#
# A fatal error has been detected by the Java Runtime Environment:
#
#  EXCEPTION_ACCESS_VIOLATION (0xc0000005) at pc=0x000001e99a3ae19b, pid=3916, tid=11628
#
# JRE version: Java(TM) SE Runtime Environment (17.0.11+7) (build 17.0.11+7-LTS-207)
# Java VM: Java HotSpot(TM) 64-Bit Server VM (17.0.11+7-LTS-207, mixed mode, emulated-client, sharing, tiered, compressed oops, compressed class ptrs, g1 gc, windows-amd64)
# Problematic frame:
# J 13423 c1 jdk.internal.reflect.AccessorGenerator.emitBoxingContantPoolEntries()V java.base@17.0.11 (1439 bytes) @ 0x000001e99a3ae19b [0x000001e99a3acac0+0x00000000000016db]
#
# No core dump will be written. Minidumps are not enabled by default on client versions of Windows
#
# If you would like to submit a bug report, please visit:
#   https://bugreport.java.com/bugreport/crash.jsp
#

---------------  S U M M A R Y ------------

Command Line: -Dcom.sun.management.jmxremote -Dcom.sun.management.jmxremote.port=50160 -Dcom.sun.management.jmxremote.authenticate=false -Dcom.sun.management.jmxremote.ssl=false -Djava.rmi.server.hostname=localhost -Dspring.jmx.enabled=true -Dmanagement.endpoints.jmx.exposure.include=* -Dspring.application.admin.enabled=true -XX:TieredStopAtLevel=1 -Dspring.boot.project.name=loja_virtual -Dfile.encoding=UTF-8 -Dstdout.encoding=UTF-8 -Dstderr.encoding=UTF-8 -XX:+ShowCodeDetailsInExceptionMessages jdev.mentoria.lojavirtual.LojaVirtualApplication --spring.output.ansi.enabled=always

Host: Intel(R) Core(TM) i3 CPU       M 380  @ 2.53GHz, 4 cores, 2G,  Windows 10 , 64 bit Build 19041 (10.0.19041.3636)
Time: Wed Jul 10 20:36:11 2024 Hora oficial do Brasil elapsed time: 34413.766991 seconds (0d 9h 33m 33s)

---------------  T H R E A D  ---------------

Current thread (0x000001e9e5967630):  JavaThread "RMI TCP Connection(521)-127.0.0.1" daemon [_thread_in_Java, id=11628, stack(0x0000002f84100000,0x0000002f84200000)]

Stack: [0x0000002f84100000,0x0000002f84200000],  sp=0x0000002f841fd110,  free space=1012k
Native frames: (J=compiled Java code, j=interpreted, Vv=VM code, C=native code)
C  0x000001e99a3ae19b


siginfo: EXCEPTION_ACCESS_VIOLATION (0xc0000005), reading address 0xffffffffffffffff


Registers:
RAX=0x00000000db697e20, RBX=0x00000000db696a60, RCX=0x000001e9a107cda0, RDX=0x00000000db6969b0
RSP=0x0000002f841fd110, RBP=0x0000002f841fda50, RSI=0x00000000db696af0, RDI=0x00000000db696a60
R8 =0x0000000000000040, R9 =0x000001e9a107cda0, R10=0x000001e9a0000000, R11=0x000001e9a107cda0
R12=0x0000000000000000, R13=0x000001e9a107cda0, R14=0x00000000db6969b0, R15=0x000001e9e5967630
RIP=0x000001e99a3ae19b, EFLAGS=0x0000000000010206


Register to memory mapping:

RIP=0x000001e99a3ae19b is at entry_point+5851 in (nmethod*)0x000001e99a3ab390
Compiled method (c1) 34413848 13423       1       jdk.internal.reflect.AccessorGenerator::emitBoxingContantPoolEntries (1439 bytes)
 total in heap  [0x000001e99a3ab390,0x000001e99a3bde68] = 76504
 relocation     [0x000001e99a3ab4e8,0x000001e99a3acab8] = 5584
 main code      [0x000001e99a3acac0,0x000001e99a3b5c00] = 37184
 stub code      [0x000001e99a3b5c00,0x000001e99a3b6f58] = 4952
 metadata       [0x000001e99a3b6f58,0x000001e99a3b6fb8] = 96
 scopes data    [0x000001e99a3b6fb8,0x000001e99a3ba1c8] = 12816
 scopes pcs     [0x000001e99a3ba1c8,0x000001e99a3bd638] = 13424
 dependencies   [0x000001e99a3bd638,0x000001e99a3bd650] = 24
 nul chk table  [0x000001e99a3bd650,0x000001e99a3bde68] = 2072
RAX=0x00000000db697e20 is an oop: [B 
{0x00000000db697e20} - klass: {type array byte}
 - length: 19
RBX=0x00000000db696a60 is an oop: jdk.internal.reflect.ByteVectorImpl 
{0x00000000db696a60} - klass: 'jdk/internal/reflect/ByteVectorImpl'
 - ---- fields (total size 3 words):
 - private 'pos' 'I' @12  847 (34f)
 - private 'data' '[B' @16  [B{0x00000000db6977b8} (db6977b8)
RCX=0x000001e9a107cda0 is a pointer to class: 
jdk.internal.reflect.ByteVectorImpl {0x000001e9a107cda8}
 - instance size:     3
 - klass size:        79
 - access:            synchronized 
 - state:             fully_initialized
 - name:              'jdk/internal/reflect/ByteVectorImpl'
 - super:             'java/lang/Object'
 - sub:               
 - arrays:            NULL
 - methods:           Array<T>(0x000001e9e11d8b18)
 - method ordering:   Array<T>(0x000001e9a08f5030)
 - default_methods:   Array<T>(0x0000000000000000)
 - local interfaces:  Array<T>(0x000001e9e11d8658)
 - trans. interfaces: Array<T>(0x000001e9e11d8658)
 - constants:         constant pool [56] {0x000001e9e11d8430} for 'jdk/internal/reflect/ByteVectorImpl' cache=0x000001e9e11d9268
 - class loader data:  loader data: 0x000001e9915bda40 of 'bootstrap'
 - source file:       'ByteVectorImpl.java'
 - class annotations:       Array<T>(0x0000000000000000)
 - class type annotations:  Array<T>(0x0000000000000000)
 - field annotations:       Array<T>(0x0000000000000000)
 - field type annotations:  Array<T>(0x0000000000000000)
 - inner classes:     Array<T>(0x000001e9a05d1dc8)
 - nest members:     Array<T>(0x000001e9a05d1dc8)
 - permitted subclasses:     Array<T>(0x000001e9a05d1dc8)
 - java mirror:       a 'java/lang/Class'{0x00000000d467bd78} = 'jdk/internal/reflect/ByteVectorImpl'
 - vtable length      11  (start addr: 0x000001e9a107cf68)
 - itable length      10 (start addr: 0x000001e9a107cfc0)
 - ---- static fields (0 words):
 - ---- non-static fields (2 words):
 - private 'pos' 'I' @12 
 - private 'data' '[B' @16 
 - non-static oop maps: 16-16 
RDX=0x00000000db6969b0 is an oop: jdk.internal.reflect.MethodAccessorGenerator 
{0x00000000db6969b0} - klass: 'jdk/internal/reflect/MethodAccessorGenerator'
 - ---- fields (total size 18 words):
 - protected 'modifiers' 'I' @12  1
 - protected 'thisClass' 'S' @16  2
 - protected 'superClass' 'S' @18  4
 - protected 'targetClass' 'S' @20  6
 - protected 'throwableClass' 'S' @22  16 (10)
 - protected 'classCastClass' 'S' @24  18 (12)
 - protected 'nullPointerClass' 'S' @26  20 (14)
 - protected 'illegalArgumentClass' 'S' @28  22 (16)
 - protected 'invocationTargetClass' 'S' @30  24 (18)
 - protected 'initIdx' 'S' @32  25 (19)
 - protected 'initNameAndTypeIdx' 'S' @34  27 (1b)
 - protected 'initStringNameAndTypeIdx' 'S' @36  31 (1f)
 - protected 'nullPointerCtorIdx' 'S' @38  28 (1c)
 - protected 'illegalArgumentCtorIdx' 'S' @40  29 (1d)
 - protected 'illegalArgumentStringCtorIdx' 'S' @42  32 (20)
 - protected 'invocationTargetCtorIdx' 'S' @44  35 (23)
 - protected 'superCtorIdx' 'S' @46  36 (24)
 - protected 'objectClass' 'S' @48  38 (26)
 - protected 'toStringIdx' 'S' @50  42 (2a)
 - protected 'codeIdx' 'S' @52  43 (2b)
 - protected 'exceptionsIdx' 'S' @54  44 (2c)
 - protected 'valueOfIdx' 'S' @56  45 (2d)
 - protected 'booleanIdx' 'S' @58  47 (2f)
 - protected 'booleanBoxIdx' 'S' @60  50 (32)
 - protected 'booleanUnboxIdx' 'S' @62  54 (36)
 - protected 'byteIdx' 'S' @64  56 (38)
 - protected 'byteBoxIdx' 'S' @66  59 (3b)
 - protected 'byteUnboxIdx' 'S' @68  63 (3f)
 - protected 'characterIdx' 'S' @70  0
 - protected 'characterBoxIdx' 'S' @72  0
 - protected 'characterUnboxIdx' 'S' @74  0
 - protected 'doubleIdx' 'S' @76  0
 - protected 'doubleBoxIdx' 'S' @78  0
 - protected 'doubleUnboxIdx' 'S' @80  0
 - protected 'floatIdx' 'S' @82  0
 - protected 'floatBoxIdx' 'S' @84  0
 - protected 'floatUnboxIdx' 'S' @86  0
 - protected 'integerIdx' 'S' @88  0
 - protected 'integerBoxIdx' 'S' @90  0
 - protected 'integerUnboxIdx' 'S' @92  0
 - protected 'longIdx' 'S' @94  0
 - protected 'longBoxIdx' 'S' @96  0
 - protected 'longUnboxIdx' 'S' @98  0
 - protected 'shortIdx' 'S' @100  0
 - protected 'shortBoxIdx' 'S' @102  0
 - protected 'shortUnboxIdx' 'S' @104  0
 - protected final 'NUM_COMMON_CPOOL_ENTRIES' 'S' @106  30 (1e)
 - protected final 'NUM_BOXING_CPOOL_ENTRIES' 'S' @108  73 (49)
 - protected 'asm' 'Ljdk/internal/reflect/ClassFileAssembler;' @112  a 'jdk/internal/reflect/ClassFileAssembler'{0x00000000db696af0} (db696af0)
 - private 'illegalArgumentCodeBuffer' 'Ljdk/internal/reflect/ClassFileAssembler;' @116  NULL (0)
 - private 'targetMethodRef' 'S' @110  12 (c)
 - private 'invokeIdx' 'S' @120  13 (d)
 - private 'invokeDescriptorIdx' 'S' @122  14 (e)
 - private 'nonPrimitiveParametersBaseIdx' 'S' @124  16 (10)
 - private 'isConstructor' 'Z' @126  true
 - private 'forSerialization' 'Z' @127  true
 - private 'declaringClass' 'Ljava/lang/Class;' @128  a 'java/lang/Class'{0x00000000d4a09868} = 'java/rmi/dgc/Lease' (d4a09868)
 - private 'parameterTypes' '[Ljava/lang/Class;' @132  a 'java/lang/Class'[0] {0x00000000db696a40} (db696a40)
 - private 'returnType' 'Ljava/lang/Class;' @136  a 'java/lang/Class'{0x00000000d4335c40} = void (d4335c40)
RSP=0x0000002f841fd110 is pointing into the stack for thread: 0x000001e9e5967630
RBP=0x0000002f841fda50 is pointing into the stack for thread: 0x000001e9e5967630
RSI=0x00000000db696af0 is an oop: jdk.internal.reflect.ClassFileAssembler 
{0x00000000db696af0} - klass: 'jdk/internal/reflect/ClassFileAssembler'
 - ---- fields (total size 4 words):
 - private 'stack' 'I' @12  0
 - private 'maxStack' 'I' @16  0
 - private 'maxLocals' 'I' @20  0
 - private 'cpIdx' 'S' @24  64 (40)
 - private 'vec' 'Ljdk/internal/reflect/ByteVector;' @28  a 'jdk/internal/reflect/ByteVectorImpl'{0x00000000db696a60} (db696a60)
RDI=0x00000000db696a60 is an oop: jdk.internal.reflect.ByteVectorImpl 
{0x00000000db696a60} - klass: 'jdk/internal/reflect/ByteVectorImpl'
 - ---- fields (total size 3 words):
 - private 'pos' 'I' @12  847 (34f)
 - private 'data' '[B' @16  [B{0x00000000db6977b8} (db6977b8)
R8 =0x0000000000000040 is an unknown value
R9 =0x000001e9a107cda0 is a pointer to class: 
jdk.internal.reflect.ByteVectorImpl {0x000001e9a107cda8}
 - instance size:     3
 - klass size:        79
 - access:            synchronized 
 - state:             fully_initialized
 - name:              'jdk/internal/reflect/ByteVectorImpl'
 - super:             'java/lang/Object'
 - sub:               
 - arrays:            NULL
 - methods:           Array<T>(0x000001e9e11d8b18)
 - method ordering:   Array<T>(0x000001e9a08f5030)
 - default_methods:   Array<T>(0x0000000000000000)
 - local interfaces:  Array<T>(0x000001e9e11d8658)
 - trans. interfaces: Array<T>(0x000001e9e11d8658)
 - constants:         constant pool [56] {0x000001e9e11d8430} for 'jdk/internal/reflect/ByteVectorImpl' cache=0x000001e9e11d9268
 - class loader data:  loader data: 0x000001e9915bda40 of 'bootstrap'
 - source file:       'ByteVectorImpl.java'
 - class annotations:       Array<T>(0x0000000000000000)
 - class type annotations:  Array<T>(0x0000000000000000)
 - field annotations:       Array<T>(0x0000000000000000)
 - field type annotations:  Array<T>(0x0000000000000000)
 - inner classes:     Array<T>(0x000001e9a05d1dc8)
 - nest members:     Array<T>(0x000001e9a05d1dc8)
 - permitted subclasses:     Array<T>(0x000001e9a05d1dc8)
 - java mirror:       a 'java/lang/Class'{0x00000000d467bd78} = 'jdk/internal/reflect/ByteVectorImpl'
 - vtable length      11  (start addr: 0x000001e9a107cf68)
 - itable length      10 (start addr: 0x000001e9a107cfc0)
 - ---- static fields (0 words):
 - ---- non-static fields (2 words):
 - private 'pos' 'I' @12 
 - private 'data' '[B' @16 
 - non-static oop maps: 16-16 
R10=0x000001e9a0000000 is pointing into metadata
R11=0x000001e9a107cda0 is a pointer to class: 
jdk.internal.reflect.ByteVectorImpl {0x000001e9a107cda8}
 - instance size:     3
 - klass size:        79
 - access:            synchronized 
 - state:             fully_initialized
 - name:              'jdk/internal/reflect/ByteVectorImpl'
 - super:             'java/lang/Object'
 - sub:               
 - arrays:            NULL
 - methods:           Array<T>(0x000001e9e11d8b18)
 - method ordering:   Array<T>(0x000001e9a08f5030)
 - default_methods:   Array<T>(0x0000000000000000)
 - local interfaces:  Array<T>(0x000001e9e11d8658)
 - trans. interfaces: Array<T>(0x000001e9e11d8658)
 - constants:         constant pool [56] {0x000001e9e11d8430} for 'jdk/internal/reflect/ByteVectorImpl' cache=0x000001e9e11d9268
 - class loader data:  loader data: 0x000001e9915bda40 of 'bootstrap'
 - source file:       'ByteVectorImpl.java'
 - class annotations:       Array<T>(0x0000000000000000)
 - class type annotations:  Array<T>(0x0000000000000000)
 - field annotations:       Array<T>(0x0000000000000000)
 - field type annotations:  Array<T>(0x0000000000000000)
 - inner classes:     Array<T>(0x000001e9a05d1dc8)
 - nest members:     Array<T>(0x000001e9a05d1dc8)
 - permitted subclasses:     Array<T>(0x000001e9a05d1dc8)
 - java mirror:       a 'java/lang/Class'{0x00000000d467bd78} = 'jdk/internal/reflect/ByteVectorImpl'
 - vtable length      11  (start addr: 0x000001e9a107cf68)
 - itable length      10 (start addr: 0x000001e9a107cfc0)
 - ---- static fields (0 words):
 - ---- non-static fields (2 words):
 - private 'pos' 'I' @12 
 - private 'data' '[B' @16 
 - non-static oop maps: 16-16 
R12=0x0 is NULL
R13=0x000001e9a107cda0 is a pointer to class: 
jdk.internal.reflect.ByteVectorImpl {0x000001e9a107cda8}
 - instance size:     3
 - klass size:        79
 - access:            synchronized 
 - state:             fully_initialized
 - name:              'jdk/internal/reflect/ByteVectorImpl'
 - super:             'java/lang/Object'
 - sub:               
 - arrays:            NULL
 - methods:           Array<T>(0x000001e9e11d8b18)
 - method ordering:   Array<T>(0x000001e9a08f5030)
 - default_methods:   Array<T>(0x0000000000000000)
 - local interfaces:  Array<T>(0x000001e9e11d8658)
 - trans. interfaces: Array<T>(0x000001e9e11d8658)
 - constants:         constant pool [56] {0x000001e9e11d8430} for 'jdk/internal/reflect/ByteVectorImpl' cache=0x000001e9e11d9268
 - class loader data:  loader data: 0x000001e9915bda40 of 'bootstrap'
 - source file:       'ByteVectorImpl.java'
 - class annotations:       Array<T>(0x0000000000000000)
 - class type annotations:  Array<T>(0x0000000000000000)
 - field annotations:       Array<T>(0x0000000000000000)
 - field type annotations:  Array<T>(0x0000000000000000)
 - inner classes:     Array<T>(0x000001e9a05d1dc8)
 - nest members:     Array<T>(0x000001e9a05d1dc8)
 - permitted subclasses:     Array<T>(0x000001e9a05d1dc8)
 - java mirror:       a 'java/lang/Class'{0x00000000d467bd78} = 'jdk/internal/reflect/ByteVectorImpl'
 - vtable length      11  (start addr: 0x000001e9a107cf68)
 - itable length      10 (start addr: 0x000001e9a107cfc0)
 - ---- static fields (0 words):
 - ---- non-static fields (2 words):
 - private 'pos' 'I' @12 
 - private 'data' '[B' @16 
 - non-static oop maps: 16-16 
R14=0x00000000db6969b0 is an oop: jdk.internal.reflect.MethodAccessorGenerator 
{0x00000000db6969b0} - klass: 'jdk/internal/reflect/MethodAccessorGenerator'
 - ---- fields (total size 18 words):
 - protected 'modifiers' 'I' @12  1
 - protected 'thisClass' 'S' @16  2
 - protected 'superClass' 'S' @18  4
 - protected 'targetClass' 'S' @20  6
 - protected 'throwableClass' 'S' @22  16 (10)
 - protected 'classCastClass' 'S' @24  18 (12)
 - protected 'nullPointerClass' 'S' @26  20 (14)
 - protected 'illegalArgumentClass' 'S' @28  22 (16)
 - protected 'invocationTargetClass' 'S' @30  24 (18)
 - protected 'initIdx' 'S' @32  25 (19)
 - protected 'initNameAndTypeIdx' 'S' @34  27 (1b)
 - protected 'initStringNameAndTypeIdx' 'S' @36  31 (1f)
 - protected 'nullPointerCtorIdx' 'S' @38  28 (1c)
 - protected 'illegalArgumentCtorIdx' 'S' @40  29 (1d)
 - protected 'illegalArgumentStringCtorIdx' 'S' @42  32 (20)
 - protected 'invocationTargetCtorIdx' 'S' @44  35 (23)
 - protected 'superCtorIdx' 'S' @46  36 (24)
 - protected 'objectClass' 'S' @48  38 (26)
 - protected 'toStringIdx' 'S' @50  42 (2a)
 - protected 'codeIdx' 'S' @52  43 (2b)
 - protected 'exceptionsIdx' 'S' @54  44 (2c)
 - protected 'valueOfIdx' 'S' @56  45 (2d)
 - protected 'booleanIdx' 'S' @58  47 (2f)
 - protected 'booleanBoxIdx' 'S' @60  50 (32)
 - protected 'booleanUnboxIdx' 'S' @62  54 (36)
 - protected 'byteIdx' 'S' @64  56 (38)
 - protected 'byteBoxIdx' 'S' @66  59 (3b)
 - protected 'byteUnboxIdx' 'S' @68  63 (3f)
 - protected 'characterIdx' 'S' @70  0
 - protected 'characterBoxIdx' 'S' @72  0
 - protected 'characterUnboxIdx' 'S' @74  0
 - protected 'doubleIdx' 'S' @76  0
 - protected 'doubleBoxIdx' 'S' @78  0
 - protected 'doubleUnboxIdx' 'S' @80  0
 - protected 'floatIdx' 'S' @82  0
 - protected 'floatBoxIdx' 'S' @84  0
 - protected 'floatUnboxIdx' 'S' @86  0
 - protected 'integerIdx' 'S' @88  0
 - protected 'integerBoxIdx' 'S' @90  0
 - protected 'integerUnboxIdx' 'S' @92  0
 - protected 'longIdx' 'S' @94  0
 - protected 'longBoxIdx' 'S' @96  0
 - protected 'longUnboxIdx' 'S' @98  0
 - protected 'shortIdx' 'S' @100  0
 - protected 'shortBoxIdx' 'S' @102  0
 - protected 'shortUnboxIdx' 'S' @104  0
 - protected final 'NUM_COMMON_CPOOL_ENTRIES' 'S' @106  30 (1e)
 - protected final 'NUM_BOXING_CPOOL_ENTRIES' 'S' @108  73 (49)
 - protected 'asm' 'Ljdk/internal/reflect/ClassFileAssembler;' @112  a 'jdk/internal/reflect/ClassFileAssembler'{0x00000000db696af0} (db696af0)
 - private 'illegalArgumentCodeBuffer' 'Ljdk/internal/reflect/ClassFileAssembler;' @116  NULL (0)
 - private 'targetMethodRef' 'S' @110  12 (c)
 - private 'invokeIdx' 'S' @120  13 (d)
 - private 'invokeDescriptorIdx' 'S' @122  14 (e)
 - private 'nonPrimitiveParametersBaseIdx' 'S' @124  16 (10)
 - private 'isConstructor' 'Z' @126  true
 - private 'forSerialization' 'Z' @127  true
 - private 'declaringClass' 'Ljava/lang/Class;' @128  a 'java/lang/Class'{0x00000000d4a09868} = 'java/rmi/dgc/Lease' (d4a09868)
 - private 'parameterTypes' '[Ljava/lang/Class;' @132  a 'java/lang/Class'[0] {0x00000000db696a40} (db696a40)
 - private 'returnType' 'Ljava/lang/Class;' @136  a 'java/lang/Class'{0x00000000d4335c40} = void (d4335c40)
R15=0x000001e9e5967630 is a thread


Top of Stack: (sp=0x0000002f841fd110)
0x0000002f841fd110:   00000000000a0009 00000000000000bd
0x0000002f841fd120:   000001e9e8176c30 000001e98f3d0000
0x0000002f841fd130:   000001e98f3d02ac 00007ffc85d1b04a
0x0000002f841fd140:   0000000000000000 000001e98f3d8400
0x0000002f841fd150:   0000000000000048 000001e98f3d0000
0x0000002f841fd160:   000001e98f3d02f0 0000000000000030
0x0000002f841fd170:   0000000000000140 000001e98f3d0d50
0x0000002f841fd180:   000001e98f460000 00000000db6969b0
0x0000002f841fd190:   00000000db696af0 0000002d0000002e
0x0000002f841fd1a0:   00000000db696af0 0000002f00000030
0x0000002f841fd1b0:   00000000db696af0 0000003300000031
0x0000002f841fd1c0:   00000000db696af0 0000002f00000034
0x0000002f841fd1d0:   00000000db696af0 0000003700000035
0x0000002f841fd1e0:   00000000db696af0 00000000db696af0
0x0000002f841fd1f0:   000000390000002d 00000000db696af0
0x0000002f841fd200:   0000003a00000038 00000000db696af0 

Instructions: (pc=0x000001e99a3ae19b)
0x000001e99a3ae09b:   c7 66 66 90 e8 9c cb ca fe 48 8b b4 24 08 01 00
0x000001e99a3ae0ab:   00 44 0f bf 46 18 41 ff c0 66 44 89 46 18 48 8b
0x000001e99a3ae0bb:   54 24 78 8b 72 70 44 0f bf 46 18 41 83 f8 00 0f
0x000001e99a3ae0cb:   84 31 62 00 00 41 c1 e0 10 41 c1 f8 10 66 44 89
0x000001e99a3ae0db:   42 44 49 b8 f0 ff 67 d4 00 00 00 00 48 8b d6 0f
0x000001e99a3ae0eb:   1f 44 00 00 e8 ac c2 cf fe 48 8b 54 24 78 8b 72
0x000001e99a3ae0fb:   70 48 89 b4 24 18 01 00 00 44 0f bf 46 18 41 83
0x000001e99a3ae10b:   f8 00 0f 84 6e 61 00 00 8b 7e 1c 41 c1 e0 10 41
0x000001e99a3ae11b:   c1 f8 10 48 83 ff 00 0f 84 29 00 00 00 49 b9 a0
0x000001e99a3ae12b:   cd 07 a1 e9 01 00 00 8b 4f 08 49 ba 00 00 00 a0
0x000001e99a3ae13b:   e9 01 00 00 49 03 ca 4c 3b 49 38 0f 85 6a 6f 00
0x000001e99a3ae14b:   00 e9 48 00 00 00 48 8b df 48 3b 07 44 89 84 24
0x000001e99a3ae15b:   20 01 00 00 41 b8 07 00 00 00 48 8b d7 0f 1f 80
0x000001e99a3ae16b:   00 00 00 00 e8 cc ca ca fe 48 8b b4 24 18 01 00
0x000001e99a3ae17b:   00 8b 56 1c 48 83 fa 00 0f 84 29 00 00 00 48 b8
0x000001e99a3ae18b:   a0 cd 07 a1 e9 01 00 00 8b 5a 08 49 ba 00 00 00
0x000001e99a3ae19b:   a0 e9 01 00 00 49 03 da 48 3b 43 38 0f 85 13 6f
0x000001e99a3ae1ab:   00 00 e9 00 00 00 00 4c 8b c2 48 3b 02 44 8b 84
0x000001e99a3ae1bb:   24 20 01 00 00 41 c1 f8 08 41 81 e0 ff 00 00 00
0x000001e99a3ae1cb:   45 0f be c0 e8 6c ca ca fe 48 8b b4 24 18 01 00
0x000001e99a3ae1db:   00 8b 56 1c 48 83 fa 00 0f 84 29 00 00 00 48 b8
0x000001e99a3ae1eb:   a0 cd 07 a1 e9 01 00 00 8b 5a 08 49 ba 00 00 00
0x000001e99a3ae1fb:   a0 e9 01 00 00 49 03 da 48 3b 43 38 0f 85 bd 6e
0x000001e99a3ae20b:   00 00 e9 00 00 00 00 4c 8b c2 48 3b 02 44 8b 84
0x000001e99a3ae21b:   24 20 01 00 00 41 81 e0 ff 00 00 00 45 0f be c0
0x000001e99a3ae22b:   0f 1f 40 00 e8 0c ca ca fe 48 8b b4 24 18 01 00
0x000001e99a3ae23b:   00 44 0f bf 46 18 41 ff c0 66 44 89 46 18 48 8b
0x000001e99a3ae24b:   54 24 78 8b 72 70 44 0f bf 46 18 41 83 f8 00 0f
0x000001e99a3ae25b:   84 a1 5f 00 00 41 c1 e0 10 41 c1 f8 10 66 44 89
0x000001e99a3ae26b:   42 46 49 b8 b0 ff 67 d4 00 00 00 00 48 8b d6 0f
0x000001e99a3ae27b:   1f 44 00 00 e8 1c c1 cf fe 48 8b 54 24 78 8b 72
0x000001e99a3ae28b:   70 48 89 b4 24 28 01 00 00 0f bf 7a 38 89 bc 24 


Stack slot to memory mapping:
stack at sp + 0 slots: 0x00000000000a0009 is an unknown value
stack at sp + 1 slots: 0x00000000000000bd is an unknown value
stack at sp + 2 slots: 0x000001e9e8176c30 points into unknown readable memory: 0x000001e98f3d8400 | 00 84 3d 8f e9 01 00 00
stack at sp + 3 slots: 0x000001e98f3d0000 points into unknown readable memory: 0x0000000000000000 | 00 00 00 00 00 00 00 00
stack at sp + 4 slots: 0x000001e98f3d02ac points into unknown readable memory: 03 00 02 01
stack at sp + 5 slots: 0x00007ffc85d1b04a jvm.dll
stack at sp + 6 slots: 0x0 is NULL
stack at sp + 7 slots: 0x000001e98f3d8400 points into unknown readable memory: 0x000001e98f3d0d50 | 50 0d 3d 8f e9 01 00 00


Compiled method (c1) 34414023 13423       1       jdk.internal.reflect.AccessorGenerator::emitBoxingContantPoolEntries (1439 bytes)
 total in heap  [0x000001e99a3ab390,0x000001e99a3bde68] = 76504
 relocation     [0x000001e99a3ab4e8,0x000001e99a3acab8] = 5584
 main code      [0x000001e99a3acac0,0x000001e99a3b5c00] = 37184
 stub code      [0x000001e99a3b5c00,0x000001e99a3b6f58] = 4952
 metadata       [0x000001e99a3b6f58,0x000001e99a3b6fb8] = 96
 scopes data    [0x000001e99a3b6fb8,0x000001e99a3ba1c8] = 12816
 scopes pcs     [0x000001e99a3ba1c8,0x000001e99a3bd638] = 13424
 dependencies   [0x000001e99a3bd638,0x000001e99a3bd650] = 24
 nul chk table  [0x000001e99a3bd650,0x000001e99a3bde68] = 2072

[Constant Pool (empty)]

[MachCode]
[Entry Point]
  # {method} {0x000001e9e11d50b0} 'emitBoxingContantPoolEntries' '()V' in 'jdk/internal/reflect/AccessorGenerator'
  #           [sp+0x5c0]  (sp of caller)
  0x000001e99a3acac0: 448b 5208 | 49bb 0000 | 00a0 e901 | 0000 4d03 | d34c 3bd0 

  0x000001e99a3acad4: ;   {runtime_call ic_miss_stub}
  0x000001e99a3acad4: 0f85 a6ff | a8fe 660f | 1f44 0000 
[Verified Entry Point]
  0x000001e99a3acae0: 8984 2400 | 90ff ff55 | 4881 ecb0 | 0500 0048 | 8954 2478 | 8b72 7048 

  0x000001e99a3acaf8: ;   {oop("valueOf"{0x00000000d44c0d48})}
  0x000001e99a3acaf8: 3b06 49b8 | 480d 4cd4 | 0000 0000 

  0x000001e99a3acb04: ;   {optimized virtual_call}
  0x000001e99a3acb04: 488b d6e8 

  0x000001e99a3acb08: ; ImmutableOopMap {[120]=Oop }
                      ;*invokevirtual emitConstantPoolUTF8 {reexecute=0 rethrow=0 return_oop=0}
                      ; - jdk.internal.reflect.AccessorGenerator::emitBoxingContantPoolEntries@6 (line 260)
  0x000001e99a3acb08: 94d8 cffe | 488b 5424 | 788b 7270 

  0x000001e99a3acb14: ; implicit exception: dispatches to 0x000001e99a3b4e86
  0x000001e99a3acb14: 440f bf46 | 1841 83f8 | 000f 84de | 8200 0041 | c1e0 1041 | c1f8 1066 | 4489 4238 

  0x000001e99a3acb30: ;   {oop("java/lang/Boolean"{0x00000000d46801b8})}
  0x000001e99a3acb30: 49b8 b801 | 68d4 0000 | 0000 488b 

  0x000001e99a3acb3c: ;   {optimized virtual_call}
  0x000001e99a3acb3c: d666 90e8 

  0x000001e99a3acb40: ; ImmutableOopMap {[120]=Oop }
                      ;*invokevirtual emitConstantPoolUTF8 {reexecute=0 rethrow=0 return_oop=0}
                      ; - jdk.internal.reflect.AccessorGenerator::emitBoxingContantPoolEntries@26 (line 264)
  0x000001e99a3acb40: 5cd8 cffe | 488b 5424 | 788b 7270 | 4889 b424 | 8000 0000 

  0x000001e99a3acb54: ; implicit exception: dispatches to 0x000001e99a3b4e8b
  0x000001e99a3acb54: 440f bf46 | 1841 83f8 | 000f 841e | 8200 008b | 7e1c 41c1 | e010 41c1 | f810 4883 | ff00 0f84 
  0x000001e99a3acb74: 2900 0000 

  0x000001e99a3acb78: ;   {metadata('jdk/internal/reflect/ByteVectorImpl')}
  0x000001e99a3acb78: 49b9 a0cd | 07a1 e901 | 0000 8b4f | 0849 ba00 | 0000 a0e9 | 0100 0049 | 03ca 4c3b | 4938 0f85 
  0x000001e99a3acb98: f482 0000 | e900 0000 | 0048 8bdf 

  0x000001e99a3acba4: ; implicit exception: dispatches to 0x000001e99a3b4e95
  0x000001e99a3acba4: 483b 0744 | 8984 2488 | 0000 0041 | b807 0000 | 0048 8bd7 | 0f1f 8000 

  0x000001e99a3acbbc: ;   {optimized virtual_call}
  0x000001e99a3acbbc: 0000 00e8 

  0x000001e99a3acbc0: ; ImmutableOopMap {[128]=Oop [120]=Oop }
                      ;*invokeinterface add {reexecute=0 rethrow=0 return_oop=0}
                      ; - jdk.internal.reflect.ClassFileAssembler::emitByte@5 (line 74)
                      ; - jdk.internal.reflect.ClassFileAssembler::emitConstantPoolClass@3 (line 113)
                      ; - jdk.internal.reflect.AccessorGenerator::emitBoxingContantPoolEntries@40 (line 265)
  0x000001e99a3acbc0: 7ce0 cafe | 488b b424 | 8000 0000 | 8b56 1c48 | 83fa 000f | 8429 0000 

  0x000001e99a3acbd8: ;   {metadata('jdk/internal/reflect/ByteVectorImpl')}
  0x000001e99a3acbd8: 0048 b8a0 | cd07 a1e9 | 0100 008b | 5a08 49ba | 0000 00a0 | e901 0000 | 4903 da48 | 3b43 380f 
  0x000001e99a3acbf8: 859d 8200 | 00e9 0000 | 0000 4c8b | c248 3b02 | 448b 8424 | 8800 0000 | 41c1 f808 | 4181 e0ff 
  0x000001e99a3acc18: 0000 0045 

  0x000001e99a3acc1c: ;   {optimized virtual_call}
  0x000001e99a3acc1c: 0fbe c0e8 

  0x000001e99a3acc20: ; ImmutableOopMap {[120]=Oop [128]=Oop }
                      ;*invokeinterface add {reexecute=0 rethrow=0 return_oop=0}
                      ; - jdk.internal.reflect.ClassFileAssembler::emitByte@5 (line 74)
                      ; - jdk.internal.reflect.ClassFileAssembler::emitShort@10 (line 63)
                      ; - jdk.internal.reflect.ClassFileAssembler::emitConstantPoolClass@8 (line 114)
                      ; - jdk.internal.reflect.AccessorGenerator::emitBoxingContantPoolEntries@40 (line 265)
  0x000001e99a3acc20: 1ce0 cafe | 488b b424 | 8000 0000 | 8b56 1c48 | 83fa 000f | 8429 0000 

  0x000001e99a3acc38: ;   {metadata('jdk/internal/reflect/ByteVectorImpl')}
  0x000001e99a3acc38: 0048 b8a0 | cd07 a1e9 | 0100 008b | 5a08 49ba | 0000 00a0 | e901 0000 | 4903 da48 | 3b43 380f 
  0x000001e99a3acc58: 8547 8200 | 00e9 0000 | 0000 4c8b | c248 3b02 | 448b 8424 | 8800 0000 | 4181 e0ff | 0000 0045 
  0x000001e99a3acc78: 0fbe c00f 

  0x000001e99a3acc7c: ;   {optimized virtual_call}
  0x000001e99a3acc7c: 1f40 00e8 

  0x000001e99a3acc80: ; ImmutableOopMap {[120]=Oop [128]=Oop }
                      ;*invokeinterface add {reexecute=0 rethrow=0 return_oop=0}
                      ; - jdk.internal.reflect.ClassFileAssembler::emitByte@5 (line 74)
                      ; - jdk.internal.reflect.ClassFileAssembler::emitShort@20 (line 64)
                      ; - jdk.internal.reflect.ClassFileAssembler::emitConstantPoolClass@8 (line 114)
                      ; - jdk.internal.reflect.AccessorGenerator::emitBoxingContantPoolEntries@40 (line 265)
  0x000001e99a3acc80: bcdf cafe | 488b b424 | 8000 0000 | 440f bf46 | 1841 ffc0 | 6644 8946 | 1848 8b54 | 2478 8b72 
  0x000001e99a3acca0: 7044 0fbf | 4618 4183 | f800 0f84 | 5180 0000 | 41c1 e010 | 41c1 f810 | 6644 8942 

  0x000001e99a3accbc: ;   {oop("(Z)Ljava/lang/Boolean;"{0x00000000d4680178})}
  0x000001e99a3accbc: 3a49 b878 | 0168 d400 | 0000 0048 | 8bd6 0f1f 

  0x000001e99a3acccc: ;   {optimized virtual_call}
  0x000001e99a3acccc: 4400 00e8 

  0x000001e99a3accd0: ; ImmutableOopMap {[120]=Oop }
                      ;*invokevirtual emitConstantPoolUTF8 {reexecute=0 rethrow=0 return_oop=0}
                      ; - jdk.internal.reflect.AccessorGenerator::emitBoxingContantPoolEntries@60 (line 267)
  0x000001e99a3accd0: ccd6 cffe | 488b 5424 | 788b 7270 | 4889 b424 | 9000 0000 | 0fbf 7a38 | 89bc 248c | 0000 0044 
  0x000001e99a3accf0: 0fbf 4618 | 4183 f800 | 0f84 837f | 0000 8b5e | 1c41 c1e0 | 1041 c1f8 | 1048 83fb | 000f 842a 
  0x000001e99a3acd10: ;   {metadata('jdk/internal/reflect/ByteVectorImpl')}
  0x000001e99a3acd10: 0000 0049 | bba0 cd07 | a1e9 0100 | 0044 8b4b | 0849 ba00 | 0000 a0e9 | 0100 004d | 03ca 4d3b 
  0x000001e99a3acd30: 5938 0f85 | 8081 0000 | e900 0000 | 0048 8bc3 

  0x000001e99a3acd40: ; implicit exception: dispatches to 0x000001e99a3b4ebd
  0x000001e99a3acd40: 483b 0344 | 8984 2498 | 0000 0041 | b80c 0000 | 0048 8bd3 

  0x000001e99a3acd54: ;   {optimized virtual_call}
  0x000001e99a3acd54: 6666 90e8 

  0x000001e99a3acd58: ; ImmutableOopMap {[120]=Oop [144]=Oop }
                      ;*invokeinterface add {reexecute=0 rethrow=0 return_oop=0}
                      ; - jdk.internal.reflect.ClassFileAssembler::emitByte@5 (line 74)
                      ; - jdk.internal.reflect.ClassFileAssembler::emitConstantPoolNameAndType@3 (line 119)
                      ; - jdk.internal.reflect.AccessorGenerator::emitBoxingContantPoolEntries@78 (line 268)
  0x000001e99a3acd58: e4de cafe | 488b b424 | 9000 0000 | 8b56 1c48 | 83fa 000f | 8429 0000 

  0x000001e99a3acd70: ;   {metadata('jdk/internal/reflect/ByteVectorImpl')}
  0x000001e99a3acd70: 0048 b8a0 | cd07 a1e9 | 0100 008b | 5a08 49ba | 0000 00a0 | e901 0000 | 4903 da48 | 3b43 380f 
  0x000001e99a3acd90: 852d 8100 | 00e9 0000 | 0000 4c8b | c248 3b02 | 8bbc 248c | 0000 00c1 | ff08 81e7 | ff00 0000 
  0x000001e99a3acdb0: 400f beff 

  0x000001e99a3acdb4: ;   {optimized virtual_call}
  0x000001e99a3acdb4: 4c8b c7e8 

  0x000001e99a3acdb8: ; ImmutableOopMap {[120]=Oop [144]=Oop }
                      ;*invokeinterface add {reexecute=0 rethrow=0 return_oop=0}
                      ; - jdk.internal.reflect.ClassFileAssembler::emitByte@5 (line 74)
                      ; - jdk.internal.reflect.ClassFileAssembler::emitShort@10 (line 63)
                      ; - jdk.internal.reflect.ClassFileAssembler::emitConstantPoolNameAndType@8 (line 120)
                      ; - jdk.internal.reflect.AccessorGenerator::emitBoxingContantPoolEntries@78 (line 268)
  0x000001e99a3acdb8: 84de cafe | 488b b424 | 9000 0000 | 8b56 1c48 | 83fa 000f | 8429 0000 

  0x000001e99a3acdd0: ;   {metadata('jdk/internal/reflect/ByteVectorImpl')}
  0x000001e99a3acdd0: 0048 b8a0 | cd07 a1e9 | 0100 008b | 5a08 49ba | 0000 00a0 | e901 0000 | 4903 da48 | 3b43 380f 
  0x000001e99a3acdf0: 85d7 8000 | 00e9 0000 | 0000 4c8b | c248 3b02 | 8bbc 248c | 0000 0081 | e7ff 0000 | 0040 0fbe 
  0x000001e99a3ace10: ff4c 8bc7 

  0x000001e99a3ace14: ;   {optimized virtual_call}
  0x000001e99a3ace14: 6666 90e8 

  0x000001e99a3ace18: ; ImmutableOopMap {[120]=Oop [144]=Oop }
                      ;*invokeinterface add {reexecute=0 rethrow=0 return_oop=0}
                      ; - jdk.internal.reflect.ClassFileAssembler::emitByte@5 (line 74)
                      ; - jdk.internal.reflect.ClassFileAssembler::emitShort@20 (line 64)
                      ; - jdk.internal.reflect.ClassFileAssembler::emitConstantPoolNameAndType@8 (line 120)
                      ; - jdk.internal.reflect.AccessorGenerator::emitBoxingContantPoolEntries@78 (line 268)
  0x000001e99a3ace18: 24de cafe | 488b b424 | 9000 0000 | 8b56 1c48 | 83fa 000f | 8429 0000 

  0x000001e99a3ace30: ;   {metadata('jdk/internal/reflect/ByteVectorImpl')}
  0x000001e99a3ace30: 0048 b8a0 | cd07 a1e9 | 0100 008b | 5a08 49ba | 0000 00a0 | e901 0000 | 4903 da48 | 3b43 380f 
  0x000001e99a3ace50: 8581 8000 | 00e9 0000 | 0000 4c8b | c248 3b02 | 448b 8424 | 9800 0000 | 41c1 f808 | 4181 e0ff 
  0x000001e99a3ace70: 0000 0045 

  0x000001e99a3ace74: ;   {optimized virtual_call}
  0x000001e99a3ace74: 0fbe c0e8 

  0x000001e99a3ace78: ; ImmutableOopMap {[120]=Oop [144]=Oop }
                      ;*invokeinterface add {reexecute=0 rethrow=0 return_oop=0}
                      ; - jdk.internal.reflect.ClassFileAssembler::emitByte@5 (line 74)
                      ; - jdk.internal.reflect.ClassFileAssembler::emitShort@10 (line 63)
                      ; - jdk.internal.reflect.ClassFileAssembler::emitConstantPoolNameAndType@13 (line 121)
                      ; - jdk.internal.reflect.AccessorGenerator::emitBoxingContantPoolEntries@78 (line 268)
  0x000001e99a3ace78: c4dd cafe | 488b b424 | 9000 0000 | 8b56 1c48 | 83fa 000f | 8429 0000 

  0x000001e99a3ace90: ;   {metadata('jdk/internal/reflect/ByteVectorImpl')}
  0x000001e99a3ace90: 0048 b8a0 | cd07 a1e9 | 0100 008b | 5a08 49ba | 0000 00a0 | e901 0000 | 4903 da48 | 3b43 380f 
  0x000001e99a3aceb0: 852b 8000 | 00e9 0000 | 0000 4c8b | c248 3b02 | 448b 8424 | 9800 0000 | 4181 e0ff | 0000 0045 
  0x000001e99a3aced0: 0fbe c00f 

  0x000001e99a3aced4: ;   {optimized virtual_call}
  0x000001e99a3aced4: 1f40 00e8 

  0x000001e99a3aced8: ; ImmutableOopMap {[120]=Oop [144]=Oop }
                      ;*invokeinterface add {reexecute=0 rethrow=0 return_oop=0}
                      ; - jdk.internal.reflect.ClassFileAssembler::emitByte@5 (line 74)
                      ; - jdk.internal.reflect.ClassFileAssembler::emitShort@20 (line 64)
                      ; - jdk.internal.reflect.ClassFileAssembler::emitConstantPoolNameAndType@13 (line 121)
                      ; - jdk.internal.reflect.AccessorGenerator::emitBoxingContantPoolEntries@78 (line 268)
  0x000001e99a3aced8: 64dd cafe | 488b b424 | 9000 0000 | 440f bf46 | 1841 ffc0 | 6644 8946 | 1848 8b54 | 2478 8b72 
  0x000001e99a3acef8: 7048 89b4 | 24a0 0000 | 0044 0fbf | 4618 4183 | f800 0f84 | f17c 0000 | 498b f8c1 | e710 c1ff 
  0x000001e99a3acf18: 1048 8bdf | 83eb 020f | bfdb c1e3 | 10c1 fb10 | 899c 249c | 0000 0041 | 83f8 000f | 8448 7c00 
  0x000001e99a3acf38: 0089 bc24 | a800 0000 | 8b46 1c48 | 83f8 000f | 842a 0000 

  0x000001e99a3acf4c: ;   {metadata('jdk/internal/reflect/ByteVectorImpl')}
  0x000001e99a3acf4c: 0049 bba0 | cd07 a1e9 | 0100 0044 | 8b48 0849 | ba00 0000 | a0e9 0100 | 004d 03ca | 4d3b 5938 
  0x000001e99a3acf6c: 0f85 7d7f | 0000 e900 | 0000 004c | 8bc0 483b | 0041 b80a | 0000 0048 

  0x000001e99a3acf84: ;   {optimized virtual_call}
  0x000001e99a3acf84: 8bd0 90e8 

  0x000001e99a3acf88: ; ImmutableOopMap {[120]=Oop [160]=Oop }
                      ;*invokeinterface add {reexecute=0 rethrow=0 return_oop=0}
                      ; - jdk.internal.reflect.ClassFileAssembler::emitByte@5 (line 74)
                      ; - jdk.internal.reflect.ClassFileAssembler::emitConstantPoolMethodref@3 (line 137)
                      ; - jdk.internal.reflect.AccessorGenerator::emitBoxingContantPoolEntries@103 (line 269)
  0x000001e99a3acf88: b4dc cafe | 488b b424 | a000 0000 | 8b56 1c48 | 83fa 000f | 8429 0000 

  0x000001e99a3acfa0: ;   {metadata('jdk/internal/reflect/ByteVectorImpl')}
  0x000001e99a3acfa0: 0048 b8a0 | cd07 a1e9 | 0100 008b | 5a08 49ba | 0000 00a0 | e901 0000 | 4903 da48 | 3b43 380f 
  0x000001e99a3acfc0: 8534 7f00 | 00e9 0000 | 0000 4c8b | c248 3b02 | 8b9c 249c | 0000 00c1 | fb08 81e3 | ff00 0000 
  0x000001e99a3acfe0: 0fbe db4c 

  0x000001e99a3acfe4: ;   {optimized virtual_call}
  0x000001e99a3acfe4: 8bc3 90e8 

  0x000001e99a3acfe8: ; ImmutableOopMap {[120]=Oop [160]=Oop }
                      ;*invokeinterface add {reexecute=0 rethrow=0 return_oop=0}
                      ; - jdk.internal.reflect.ClassFileAssembler::emitByte@5 (line 74)
                      ; - jdk.internal.reflect.ClassFileAssembler::emitShort@10 (line 63)
                      ; - jdk.internal.reflect.ClassFileAssembler::emitConstantPoolMethodref@8 (line 138)
                      ; - jdk.internal.reflect.AccessorGenerator::emitBoxingContantPoolEntries@103 (line 269)
  0x000001e99a3acfe8: 54dc cafe | 488b b424 | a000 0000 | 8b56 1c48 | 83fa 000f | 8429 0000 

  0x000001e99a3ad000: ;   {metadata('jdk/internal/reflect/ByteVectorImpl')}
  0x000001e99a3ad000: 0048 b8a0 | cd07 a1e9 | 0100 008b | 5a08 49ba | 0000 00a0 | e901 0000 | 4903 da48 | 3b43 380f 
  0x000001e99a3ad020: 85de 7e00 | 00e9 0000 | 0000 4c8b | c248 3b02 | 8b9c 249c | 0000 0081 | e3ff 0000 | 000f bedb 
  0x000001e99a3ad040: 4c8b c30f 

  0x000001e99a3ad044: ;   {optimized virtual_call}
  0x000001e99a3ad044: 1f40 00e8 

  0x000001e99a3ad048: ; ImmutableOopMap {[120]=Oop [160]=Oop }
                      ;*invokeinterface add {reexecute=0 rethrow=0 return_oop=0}
                      ; - jdk.internal.reflect.ClassFileAssembler::emitByte@5 (line 74)
                      ; - jdk.internal.reflect.ClassFileAssembler::emitShort@20 (line 64)
                      ; - jdk.internal.reflect.ClassFileAssembler::emitConstantPoolMethodref@8 (line 138)
                      ; - jdk.internal.reflect.AccessorGenerator::emitBoxingContantPoolEntries@103 (line 269)
  0x000001e99a3ad048: f4db cafe | 488b b424 | a000 0000 | 8b56 1c48 | 83fa 000f | 8429 0000 

  0x000001e99a3ad060: ;   {metadata('jdk/internal/reflect/ByteVectorImpl')}
  0x000001e99a3ad060: 0048 b8a0 | cd07 a1e9 | 0100 008b | 5a08 49ba | 0000 00a0 | e901 0000 | 4903 da48 | 3b43 380f 
  0x000001e99a3ad080: 8588 7e00 | 00e9 0000 | 0000 4c8b | c248 3b02 | 8bbc 24a8 | 0000 00c1 | ff08 81e7 | ff00 0000 
  0x000001e99a3ad0a0: 400f beff 

  0x000001e99a3ad0a4: ;   {optimized virtual_call}
  0x000001e99a3ad0a4: 4c8b c7e8 

  0x000001e99a3ad0a8: ; ImmutableOopMap {[120]=Oop [160]=Oop }
                      ;*invokeinterface add {reexecute=0 rethrow=0 return_oop=0}
                      ; - jdk.internal.reflect.ClassFileAssembler::emitByte@5 (line 74)
                      ; - jdk.internal.reflect.ClassFileAssembler::emitShort@10 (line 63)
                      ; - jdk.internal.reflect.ClassFileAssembler::emitConstantPoolMethodref@13 (line 139)
                      ; - jdk.internal.reflect.AccessorGenerator::emitBoxingContantPoolEntries@103 (line 269)
  0x000001e99a3ad0a8: 94db cafe | 488b b424 | a000 0000 | 8b56 1c48 | 83fa 000f | 8429 0000 

  0x000001e99a3ad0c0: ;   {metadata('jdk/internal/reflect/ByteVectorImpl')}
  0x000001e99a3ad0c0: 0048 b8a0 | cd07 a1e9 | 0100 008b | 5a08 49ba | 0000 00a0 | e901 0000 | 4903 da48 | 3b43 380f 
  0x000001e99a3ad0e0: 8532 7e00 | 00e9 0000 | 0000 4c8b | c248 3b02 | 8bbc 24a8 | 0000 0081 | e7ff 0000 | 0040 0fbe 
  0x000001e99a3ad100: ff4c 8bc7 

  0x000001e99a3ad104: ;   {optimized virtual_call}
  0x000001e99a3ad104: 6666 90e8 

  0x000001e99a3ad108: ; ImmutableOopMap {[120]=Oop [160]=Oop }
                      ;*invokeinterface add {reexecute=0 rethrow=0 return_oop=0}
                      ; - jdk.internal.reflect.ClassFileAssembler::emitByte@5 (line 74)
                      ; - jdk.internal.reflect.ClassFileAssembler::emitShort@20 (line 64)
                      ; - jdk.internal.reflect.ClassFileAssembler::emitConstantPoolMethodref@13 (line 139)
                      ; - jdk.internal.reflect.AccessorGenerator::emitBoxingContantPoolEntries@103 (line 269)
  0x000001e99a3ad108: 34db cafe | 488b b424 | a000 0000 | 440f bf46 | 1841 ffc0 | 6644 8946 | 1848 8b54 | 2478 8b72 
  0x000001e99a3ad128: 7044 0fbf | 4618 4183 | f800 0f84 | c979 0000 | 41c1 e010 | 41c1 f810 | 6644 8942 

  0x000001e99a3ad144: ;   {oop("booleanValue"{0x00000000d4680140})}
  0x000001e99a3ad144: 3c49 b840 | 0168 d400 | 0000 0048 | 8bd6 0f1f 

  0x000001e99a3ad154: ;   {optimized virtual_call}
  0x000001e99a3ad154: 4400 00e8 

  0x000001e99a3ad158: ; ImmutableOopMap {[120]=Oop }
                      ;*invokevirtual emitConstantPoolUTF8 {reexecute=0 rethrow=0 return_oop=0}
                      ; - jdk.internal.reflect.AccessorGenerator::emitBoxingContantPoolEntries@123 (line 271)
  0x000001e99a3ad158: 44d2 cffe | 488b 5424 | 788b 7270 

  0x000001e99a3ad164: ; implicit exception: dispatches to 0x000001e99a3b4f26
                      ;   {oop("()Z"{0x00000000d4680110})}
  0x000001e99a3ad164: 483b 0649 | b810 0168 | d400 0000 | 0048 8bd6 

  0x000001e99a3ad174: ;   {optimized virtual_call}
  0x000001e99a3ad174: 6666 90e8 

  0x000001e99a3ad178: ; ImmutableOopMap {[120]=Oop }
                      ;*invokevirtual emitConstantPoolUTF8 {reexecute=0 rethrow=0 return_oop=0}
                      ; - jdk.internal.reflect.AccessorGenerator::emitBoxingContantPoolEntries@132 (line 272)
  0x000001e99a3ad178: 24d2 cffe | 488b 5424 | 788b 7270 | 4889 b424 | b000 0000 

  0x000001e99a3ad18c: ; implicit exception: dispatches to 0x000001e99a3b4f2b
  0x000001e99a3ad18c: 440f bf46 | 1841 83f8 | 000f 84e6 | 7800 0049 | 8bf8 c1e7 | 10c1 ff10 | 488b dfff | cb0f bfdb 
  0x000001e99a3ad1ac: c1e3 10c1 | fb10 899c | 24ac 0000 | 0041 83f8 | 000f 843e | 7800 0089 | bc24 b800 | 0000 8b46 
  0x000001e99a3ad1cc: 1c48 83f8 | 000f 842a 

  0x000001e99a3ad1d4: ;   {metadata('jdk/internal/reflect/ByteVectorImpl')}
  0x000001e99a3ad1d4: 0000 0049 | bba0 cd07 | a1e9 0100 | 0044 8b48 | 0849 ba00 | 0000 a0e9 | 0100 004d | 03ca 4d3b 
  0x000001e99a3ad1f4: 5938 0f85 | 347d 0000 | e900 0000 | 004c 8bc0 

  0x000001e99a3ad204: ; implicit exception: dispatches to 0x000001e99a3b4f35
  0x000001e99a3ad204: 483b 0041 | b80c 0000 | 0048 8bd0 | 0f1f 8000 

  0x000001e99a3ad214: ;   {optimized virtual_call}
  0x000001e99a3ad214: 0000 00e8 

  0x000001e99a3ad218: ; ImmutableOopMap {[120]=Oop [176]=Oop }
                      ;*invokeinterface add {reexecute=0 rethrow=0 return_oop=0}
                      ; - jdk.internal.reflect.ClassFileAssembler::emitByte@5 (line 74)
                      ; - jdk.internal.reflect.ClassFileAssembler::emitConstantPoolNameAndType@3 (line 119)
                      ; - jdk.internal.reflect.AccessorGenerator::emitBoxingContantPoolEntries@157 (line 273)
  0x000001e99a3ad218: 24da cafe | 488b b424 | b000 0000 | 8b56 1c48 | 83fa 000f | 8429 0000 

  0x000001e99a3ad230: ;   {metadata('jdk/internal/reflect/ByteVectorImpl')}
  0x000001e99a3ad230: 0048 b8a0 | cd07 a1e9 | 0100 008b | 5a08 49ba | 0000 00a0 | e901 0000 | 4903 da48 | 3b43 380f 
  0x000001e99a3ad250: 85e5 7c00 | 00e9 0000 | 0000 4c8b | c248 3b02 | 8b9c 24ac | 0000 00c1 | fb08 81e3 | ff00 0000 
  0x000001e99a3ad270: 0fbe db4c 

  0x000001e99a3ad274: ;   {optimized virtual_call}
  0x000001e99a3ad274: 8bc3 90e8 

  0x000001e99a3ad278: ; ImmutableOopMap {[120]=Oop [176]=Oop }
                      ;*invokeinterface add {reexecute=0 rethrow=0 return_oop=0}
                      ; - jdk.internal.reflect.ClassFileAssembler::emitByte@5 (line 74)
                      ; - jdk.internal.reflect.ClassFileAssembler::emitShort@10 (line 63)
                      ; - jdk.internal.reflect.ClassFileAssembler::emitConstantPoolNameAndType@8 (line 120)
                      ; - jdk.internal.reflect.AccessorGenerator::emitBoxingContantPoolEntries@157 (line 273)
  0x000001e99a3ad278: c4d9 cafe | 488b b424 | b000 0000 | 8b56 1c48 | 83fa 000f | 8429 0000 

  0x000001e99a3ad290: ;   {metadata('jdk/internal/reflect/ByteVectorImpl')}
  0x000001e99a3ad290: 0048 b8a0 | cd07 a1e9 | 0100 008b | 5a08 49ba | 0000 00a0 | e901 0000 | 4903 da48 | 3b43 380f 
  0x000001e99a3ad2b0: 858f 7c00 | 00e9 0000 | 0000 4c8b | c248 3b02 | 8b9c 24ac | 0000 0081 | e3ff 0000 | 000f bedb 
  0x000001e99a3ad2d0: 4c8b c30f 

  0x000001e99a3ad2d4: ;   {optimized virtual_call}
  0x000001e99a3ad2d4: 1f40 00e8 

  0x000001e99a3ad2d8: ; ImmutableOopMap {[120]=Oop [176]=Oop }
                      ;*invokeinterface add {reexecute=0 rethrow=0 return_oop=0}
                      ; - jdk.internal.reflect.ClassFileAssembler::emitByte@5 (line 74)
                      ; - jdk.internal.reflect.ClassFileAssembler::emitShort@20 (line 64)
                      ; - jdk.internal.reflect.ClassFileAssembler::emitConstantPoolNameAndType@8 (line 120)
                      ; - jdk.internal.reflect.AccessorGenerator::emitBoxingContantPoolEntries@157 (line 273)
  0x000001e99a3ad2d8: 64d9 cafe | 488b b424 | b000 0000 | 8b56 1c48 | 83fa 000f | 8429 0000 

  0x000001e99a3ad2f0: ;   {metadata('jdk/internal/reflect/ByteVectorImpl')}
  0x000001e99a3ad2f0: 0048 b8a0 | cd07 a1e9 | 0100 008b | 5a08 49ba | 0000 00a0 | e901 0000 | 4903 da48 | 3b43 380f 
  0x000001e99a3ad310: 8539 7c00 | 00e9 0000 | 0000 4c8b | c248 3b02 | 8bbc 24b8 | 0000 00c1 | ff08 81e7 | ff00 0000 
  0x000001e99a3ad330: 400f beff 

  0x000001e99a3ad334: ;   {optimized virtual_call}
  0x000001e99a3ad334: 4c8b c7e8 

  0x000001e99a3ad338: ; ImmutableOopMap {[120]=Oop [176]=Oop }
                      ;*invokeinterface add {reexecute=0 rethrow=0 return_oop=0}
                      ; - jdk.internal.reflect.ClassFileAssembler::emitByte@5 (line 74)
                      ; - jdk.internal.reflect.ClassFileAssembler::emitShort@10 (line 63)
                      ; - jdk.internal.reflect.ClassFileAssembler::emitConstantPoolNameAndType@13 (line 121)
                      ; - jdk.internal.reflect.AccessorGenerator::emitBoxingContantPoolEntries@157 (line 273)
  0x000001e99a3ad338: 04d9 cafe | 488b b424 | b000 0000 | 8b56 1c48 | 83fa 000f | 8429 0000 

  0x000001e99a3ad350: ;   {metadata('jdk/internal/reflect/ByteVectorImpl')}
  0x000001e99a3ad350: 0048 b8a0 | cd07 a1e9 | 0100 008b | 5a08 49ba | 0000 00a0 | e901 0000 | 4903 da48 | 3b43 380f 
  0x000001e99a3ad370: 85e3 7b00 | 00e9 0000 | 0000 4c8b | c248 3b02 | 8bbc 24b8 | 0000 0081 | e7ff 0000 | 0040 0fbe 
  0x000001e99a3ad390: ff4c 8bc7 

  0x000001e99a3ad394: ;   {optimized virtual_call}
  0x000001e99a3ad394: 6666 90e8 

  0x000001e99a3ad398: ; ImmutableOopMap {[120]=Oop [176]=Oop }
                      ;*invokeinterface add {reexecute=0 rethrow=0 return_oop=0}
                      ; - jdk.internal.reflect.ClassFileAssembler::emitByte@5 (line 74)
                      ; - jdk.internal.reflect.ClassFileAssembler::emitShort@20 (line 64)
                      ; - jdk.internal.reflect.ClassFileAssembler::emitConstantPoolNameAndType@13 (line 121)
                      ; - jdk.internal.reflect.AccessorGenerator::emitBoxingContantPoolEntries@157 (line 273)
  0x000001e99a3ad398: a4d8 cafe | 488b b424 | b000 0000 | 440f bf46 | 1841 ffc0 | 6644 8946 | 1848 8b54 | 2478 8b72 
  0x000001e99a3ad3b8: 7048 89b4 | 24c0 0000 | 0044 0fbf | 4618 4183 | f800 0f84 | b175 0000 | 498b f8c1 | e710 c1ff 
  0x000001e99a3ad3d8: 1048 8bdf | 83eb 060f | bfdb c1e3 | 10c1 fb10 | 899c 24bc | 0000 0041 | 83f8 000f | 8408 7500 
  0x000001e99a3ad3f8: 0089 bc24 | c800 0000 | 8b46 1c48 | 83f8 000f | 842a 0000 

  0x000001e99a3ad40c: ;   {metadata('jdk/internal/reflect/ByteVectorImpl')}
  0x000001e99a3ad40c: 0049 bba0 | cd07 a1e9 | 0100 0044 | 8b48 0849 | ba00 0000 | a0e9 0100 | 004d 03ca | 4d3b 5938 
  0x000001e99a3ad42c: 0f85 357b | 0000 e900 | 0000 004c | 8bc0 483b | 0041 b80a | 0000 0048 

  0x000001e99a3ad444: ;   {optimized virtual_call}
  0x000001e99a3ad444: 8bd0 90e8 

  0x000001e99a3ad448: ; ImmutableOopMap {[192]=Oop [120]=Oop }
                      ;*invokeinterface add {reexecute=0 rethrow=0 return_oop=0}
                      ; - jdk.internal.reflect.ClassFileAssembler::emitByte@5 (line 74)
                      ; - jdk.internal.reflect.ClassFileAssembler::emitConstantPoolMethodref@3 (line 137)
                      ; - jdk.internal.reflect.AccessorGenerator::emitBoxingContantPoolEntries@183 (line 274)
  0x000001e99a3ad448: f4d7 cafe | 488b b424 | c000 0000 | 8b56 1c48 | 83fa 000f | 8429 0000 

  0x000001e99a3ad460: ;   {metadata('jdk/internal/reflect/ByteVectorImpl')}
  0x000001e99a3ad460: 0048 b8a0 | cd07 a1e9 | 0100 008b | 5a08 49ba | 0000 00a0 | e901 0000 | 4903 da48 | 3b43 380f 
  0x000001e99a3ad480: 85ec 7a00 | 00e9 0000 | 0000 4c8b | c248 3b02 | 8b9c 24bc | 0000 00c1 | fb08 81e3 | ff00 0000 
  0x000001e99a3ad4a0: 0fbe db4c 

  0x000001e99a3ad4a4: ;   {optimized virtual_call}
  0x000001e99a3ad4a4: 8bc3 90e8 

  0x000001e99a3ad4a8: ; ImmutableOopMap {[120]=Oop [192]=Oop }
                      ;*invokeinterface add {reexecute=0 rethrow=0 return_oop=0}
                      ; - jdk.internal.reflect.ClassFileAssembler::emitByte@5 (line 74)
                      ; - jdk.internal.reflect.ClassFileAssembler::emitShort@10 (line 63)
                      ; - jdk.internal.reflect.ClassFileAssembler::emitConstantPoolMethodref@8 (line 138)
                      ; - jdk.internal.reflect.AccessorGenerator::emitBoxingContantPoolEntries@183 (line 274)
  0x000001e99a3ad4a8: 94d7 cafe | 488b b424 | c000 0000 | 8b56 1c48 | 83fa 000f | 8429 0000 

  0x000001e99a3ad4c0: ;   {metadata('jdk/internal/reflect/ByteVectorImpl')}
  0x000001e99a3ad4c0: 0048 b8a0 | cd07 a1e9 | 0100 008b | 5a08 49ba | 0000 00a0 | e901 0000 | 4903 da48 | 3b43 380f 
  0x000001e99a3ad4e0: 8596 7a00 | 00e9 0000 | 0000 4c8b | c248 3b02 | 8b9c 24bc | 0000 0081 | e3ff 0000 | 000f bedb 
  0x000001e99a3ad500: 4c8b c30f 

  0x000001e99a3ad504: ;   {optimized virtual_call}
  0x000001e99a3ad504: 1f40 00e8 

  0x000001e99a3ad508: ; ImmutableOopMap {[120]=Oop [192]=Oop }
                      ;*invokeinterface add {reexecute=0 rethrow=0 return_oop=0}
                      ; - jdk.internal.reflect.ClassFileAssembler::emitByte@5 (line 74)
                      ; - jdk.internal.reflect.ClassFileAssembler::emitShort@20 (line 64)
                      ; - jdk.internal.reflect.ClassFileAssembler::emitConstantPoolMethodref@8 (line 138)
                      ; - jdk.internal.reflect.AccessorGenerator::emitBoxingContantPoolEntries@183 (line 274)
  0x000001e99a3ad508: 34d7 cafe | 488b b424 | c000 0000 | 8b56 1c48 | 83fa 000f | 8429 0000 

  0x000001e99a3ad520: ;   {metadata('jdk/internal/reflect/ByteVectorImpl')}
  0x000001e99a3ad520: 0048 b8a0 | cd07 a1e9 | 0100 008b | 5a08 49ba | 0000 00a0 | e901 0000 | 4903 da48 | 3b43 380f 
  0x000001e99a3ad540: 8540 7a00 | 00e9 0000 | 0000 4c8b | c248 3b02 | 8bbc 24c8 | 0000 00c1 | ff08 81e7 | ff00 0000 
  0x000001e99a3ad560: 400f beff 

  0x000001e99a3ad564: ;   {optimized virtual_call}
  0x000001e99a3ad564: 4c8b c7e8 

  0x000001e99a3ad568: ; ImmutableOopMap {[120]=Oop [192]=Oop }
                      ;*invokeinterface add {reexecute=0 rethrow=0 return_oop=0}
                      ; - jdk.internal.reflect.ClassFileAssembler::emitByte@5 (line 74)
                      ; - jdk.internal.reflect.ClassFileAssembler::emitShort@10 (line 63)
                      ; - jdk.internal.reflect.ClassFileAssembler::emitConstantPoolMethodref@13 (line 139)
                      ; - jdk.internal.reflect.AccessorGenerator::emitBoxingContantPoolEntries@183 (line 274)
  0x000001e99a3ad568: d4d6 cafe | 488b b424 | c000 0000 | 8b56 1c48 | 83fa 000f | 8429 0000 

  0x000001e99a3ad580: ;   {metadata('jdk/internal/reflect/ByteVectorImpl')}
  0x000001e99a3ad580: 0048 b8a0 | cd07 a1e9 | 0100 008b | 5a08 49ba | 0000 00a0 | e901 0000 | 4903 da48 | 3b43 380f 
  0x000001e99a3ad5a0: 85ea 7900 | 00e9 0000 | 0000 4c8b | c248 3b02 | 8bbc 24c8 | 0000 0081 | e7ff 0000 | 0040 0fbe 
  0x000001e99a3ad5c0: ff4c 8bc7 

  0x000001e99a3ad5c4: ;   {optimized virtual_call}
  0x000001e99a3ad5c4: 6666 90e8 

  0x000001e99a3ad5c8: ; ImmutableOopMap {[120]=Oop [192]=Oop }
                      ;*invokeinterface add {reexecute=0 rethrow=0 return_oop=0}
                      ; - jdk.internal.reflect.ClassFileAssembler::emitByte@5 (line 74)
                      ; - jdk.internal.reflect.ClassFileAssembler::emitShort@20 (line 64)
                      ; - jdk.internal.reflect.ClassFileAssembler::emitConstantPoolMethodref@13 (line 139)
                      ; - jdk.internal.reflect.AccessorGenerator::emitBoxingContantPoolEntries@183 (line 274)
  0x000001e99a3ad5c8: 74d6 cafe | 488b b424 | c000 0000 | 440f bf46 | 1841 ffc0 | 6644 8946 | 1848 8b54 | 2478 8b72 
  0x000001e99a3ad5e8: 7044 0fbf | 4618 4183 | f800 0f84 | 8972 0000 | 41c1 e010 | 41c1 f810 | 6644 8942 

  0x000001e99a3ad604: ;   {oop("java/lang/Byte"{0x00000000d46800d8})}
  0x000001e99a3ad604: 3e49 b8d8 | 0068 d400 | 0000 0048 | 8bd6 0f1f 

  0x000001e99a3ad614: ;   {optimized virtual_call}
  0x000001e99a3ad614: 4400 00e8 

  0x000001e99a3ad618: ; ImmutableOopMap {[120]=Oop }
                      ;*invokevirtual emitConstantPoolUTF8 {reexecute=0 rethrow=0 return_oop=0}
                      ; - jdk.internal.reflect.AccessorGenerator::emitBoxingContantPoolEntries@203 (line 278)
  0x000001e99a3ad618: 84cd cffe | 488b 5424 | 788b 7270 | 4889 b424 | d000 0000 

  0x000001e99a3ad62c: ; implicit exception: dispatches to 0x000001e99a3b4f9e
  0x000001e99a3ad62c: 440f bf46 | 1841 83f8 | 000f 84c6 | 7100 008b | 7e1c 41c1 | e010 41c1 | f810 4883 | ff00 0f84 
  0x000001e99a3ad64c: 2900 0000 

  0x000001e99a3ad650: ;   {metadata('jdk/internal/reflect/ByteVectorImpl')}
  0x000001e99a3ad650: 49b9 a0cd | 07a1 e901 | 0000 8b4f | 0849 ba00 | 0000 a0e9 | 0100 0049 | 03ca 4c3b | 4938 0f85 
  0x000001e99a3ad670: 2f79 0000 | e900 0000 | 0048 8bdf 

  0x000001e99a3ad67c: ; implicit exception: dispatches to 0x000001e99a3b4fa8
  0x000001e99a3ad67c: 483b 0744 | 8984 24cc | 0000 0041 | b807 0000 | 0048 8bd7 | 0f1f 8000 

  0x000001e99a3ad694: ;   {optimized virtual_call}
  0x000001e99a3ad694: 0000 00e8 

  0x000001e99a3ad698: ; ImmutableOopMap {[208]=Oop [120]=Oop }
                      ;*invokeinterface add {reexecute=0 rethrow=0 return_oop=0}
                      ; - jdk.internal.reflect.ClassFileAssembler::emitByte@5 (line 74)
                      ; - jdk.internal.reflect.ClassFileAssembler::emitConstantPoolClass@3 (line 113)
                      ; - jdk.internal.reflect.AccessorGenerator::emitBoxingContantPoolEntries@217 (line 279)
  0x000001e99a3ad698: a4d5 cafe | 488b b424 | d000 0000 | 8b56 1c48 | 83fa 000f | 8429 0000 

  0x000001e99a3ad6b0: ;   {metadata('jdk/internal/reflect/ByteVectorImpl')}
  0x000001e99a3ad6b0: 0048 b8a0 | cd07 a1e9 | 0100 008b | 5a08 49ba | 0000 00a0 | e901 0000 | 4903 da48 | 3b43 380f 
  0x000001e99a3ad6d0: 85d8 7800 | 00e9 0000 | 0000 4c8b | c248 3b02 | 448b 8424 | cc00 0000 | 41c1 f808 | 4181 e0ff 
  0x000001e99a3ad6f0: 0000 0045 

  0x000001e99a3ad6f4: ;   {optimized virtual_call}
  0x000001e99a3ad6f4: 0fbe c0e8 

  0x000001e99a3ad6f8: ; ImmutableOopMap {[120]=Oop [208]=Oop }
                      ;*invokeinterface add {reexecute=0 rethrow=0 return_oop=0}
                      ; - jdk.internal.reflect.ClassFileAssembler::emitByte@5 (line 74)
                      ; - jdk.internal.reflect.ClassFileAssembler::emitShort@10 (line 63)
                      ; - jdk.internal.reflect.ClassFileAssembler::emitConstantPoolClass@8 (line 114)
                      ; - jdk.internal.reflect.AccessorGenerator::emitBoxingContantPoolEntries@217 (line 279)
  0x000001e99a3ad6f8: 44d5 cafe | 488b b424 | d000 0000 | 8b56 1c48 | 83fa 000f | 8429 0000 

  0x000001e99a3ad710: ;   {metadata('jdk/internal/reflect/ByteVectorImpl')}
  0x000001e99a3ad710: 0048 b8a0 | cd07 a1e9 | 0100 008b | 5a08 49ba | 0000 00a0 | e901 0000 | 4903 da48 | 3b43 380f 
  0x000001e99a3ad730: 8582 7800 | 00e9 0000 | 0000 4c8b | c248 3b02 | 448b 8424 | cc00 0000 | 4181 e0ff | 0000 0045 
  0x000001e99a3ad750: 0fbe c00f 

  0x000001e99a3ad754: ;   {optimized virtual_call}
  0x000001e99a3ad754: 1f40 00e8 

  0x000001e99a3ad758: ; ImmutableOopMap {[120]=Oop [208]=Oop }
                      ;*invokeinterface add {reexecute=0 rethrow=0 return_oop=0}
                      ; - jdk.internal.reflect.ClassFileAssembler::emitByte@5 (line 74)
                      ; - jdk.internal.reflect.ClassFileAssembler::emitShort@20 (line 64)
                      ; - jdk.internal.reflect.ClassFileAssembler::emitConstantPoolClass@8 (line 114)
                      ; - jdk.internal.reflect.AccessorGenerator::emitBoxingContantPoolEntries@217 (line 279)
  0x000001e99a3ad758: e4d4 cafe | 488b b424 | d000 0000 | 440f bf46 | 1841 ffc0 | 6644 8946 | 1848 8b54 | 2478 8b72 
  0x000001e99a3ad778: 7044 0fbf | 4618 4183 | f800 0f84 | f96f 0000 | 41c1 e010 | 41c1 f810 | 6644 8942 

  0x000001e99a3ad794: ;   {oop("(B)Ljava/lang/Byte;"{0x00000000d4680098})}
  0x000001e99a3ad794: 4049 b898 | 0068 d400 | 0000 0048 | 8bd6 0f1f 

  0x000001e99a3ad7a4: ;   {optimized virtual_call}
  0x000001e99a3ad7a4: 4400 00e8 

  0x000001e99a3ad7a8: ; ImmutableOopMap {[120]=Oop }
                      ;*invokevirtual emitConstantPoolUTF8 {reexecute=0 rethrow=0 return_oop=0}
                      ; - jdk.internal.reflect.AccessorGenerator::emitBoxingContantPoolEntries@237 (line 281)
  0x000001e99a3ad7a8: f4cb cffe | 488b 5424 | 788b 7270 | 4889 b424 | d800 0000 | 0fbf 7a38 | 89bc 24e0 | 0000 0044 
  0x000001e99a3ad7c8: 0fbf 4618 | 4183 f800 | 0f84 2b6f | 0000 8b5e | 1c41 c1e0 | 1041 c1f8 | 1048 83fb | 000f 842a 
  0x000001e99a3ad7e8: ;   {metadata('jdk/internal/reflect/ByteVectorImpl')}
  0x000001e99a3ad7e8: 0000 0049 | bba0 cd07 | a1e9 0100 | 0044 8b4b | 0849 ba00 | 0000 a0e9 | 0100 004d | 03ca 4d3b 
  0x000001e99a3ad808: 5938 0f85 | bb77 0000 | e900 0000 | 0048 8bc3 

  0x000001e99a3ad818: ; implicit exception: dispatches to 0x000001e99a3b4fd0
  0x000001e99a3ad818: 483b 0344 | 8984 24e4 | 0000 0041 | b80c 0000 | 0048 8bd3 

  0x000001e99a3ad82c: ;   {optimized virtual_call}
  0x000001e99a3ad82c: 6666 90e8 

  0x000001e99a3ad830: ; ImmutableOopMap {[120]=Oop [216]=Oop }
                      ;*invokeinterface add {reexecute=0 rethrow=0 return_oop=0}
                      ; - jdk.internal.reflect.ClassFileAssembler::emitByte@5 (line 74)
                      ; - jdk.internal.reflect.ClassFileAssembler::emitConstantPoolNameAndType@3 (line 119)
                      ; - jdk.internal.reflect.AccessorGenerator::emitBoxingContantPoolEntries@255 (line 282)
  0x000001e99a3ad830: 0cd4 cafe | 488b b424 | d800 0000 | 8b56 1c48 | 83fa 000f | 8429 0000 

  0x000001e99a3ad848: ;   {metadata('jdk/internal/reflect/ByteVectorImpl')}
  0x000001e99a3ad848: 0048 b8a0 | cd07 a1e9 | 0100 008b | 5a08 49ba | 0000 00a0 | e901 0000 | 4903 da48 | 3b43 380f 
  0x000001e99a3ad868: 8568 7700 | 00e9 0000 | 0000 4c8b | c248 3b02 | 8bbc 24e0 | 0000 00c1 | ff08 81e7 | ff00 0000 
  0x000001e99a3ad888: 400f beff 

  0x000001e99a3ad88c: ;   {optimized virtual_call}
  0x000001e99a3ad88c: 4c8b c7e8 

  0x000001e99a3ad890: ; ImmutableOopMap {[120]=Oop [216]=Oop }
                      ;*invokeinterface add {reexecute=0 rethrow=0 return_oop=0}
                      ; - jdk.internal.reflect.ClassFileAssembler::emitByte@5 (line 74)
                      ; - jdk.internal.reflect.ClassFileAssembler::emitShort@10 (line 63)
                      ; - jdk.internal.reflect.ClassFileAssembler::emitConstantPoolNameAndType@8 (line 120)
                      ; - jdk.internal.reflect.AccessorGenerator::emitBoxingContantPoolEntries@255 (line 282)
  0x000001e99a3ad890: acd3 cafe | 488b b424 | d800 0000 | 8b56 1c48 | 83fa 000f | 8429 0000 

  0x000001e99a3ad8a8: ;   {metadata('jdk/internal/reflect/ByteVectorImpl')}
  0x000001e99a3ad8a8: 0048 b8a0 | cd07 a1e9 | 0100 008b | 5a08 49ba | 0000 00a0 | e901 0000 | 4903 da48 | 3b43 380f 
  0x000001e99a3ad8c8: 8512 7700 | 00e9 0000 | 0000 4c8b | c248 3b02 | 8bbc 24e0 | 0000 0081 | e7ff 0000 | 0040 0fbe 
  0x000001e99a3ad8e8: ff4c 8bc7 

  0x000001e99a3ad8ec: ;   {optimized virtual_call}
  0x000001e99a3ad8ec: 6666 90e8 

  0x000001e99a3ad8f0: ; ImmutableOopMap {[120]=Oop [216]=Oop }
                      ;*invokeinterface add {reexecute=0 rethrow=0 return_oop=0}
                      ; - jdk.internal.reflect.ClassFileAssembler::emitByte@5 (line 74)
                      ; - jdk.internal.reflect.ClassFileAssembler::emitShort@20 (line 64)
                      ; - jdk.internal.reflect.ClassFileAssembler::emitConstantPoolNameAndType@8 (line 120)
                      ; - jdk.internal.reflect.AccessorGenerator::emitBoxingContantPoolEntries@255 (line 282)
  0x000001e99a3ad8f0: 4cd3 cafe | 488b b424 | d800 0000 | 8b56 1c48 | 83fa 000f | 8429 0000 

  0x000001e99a3ad908: ;   {metadata('jdk/internal/reflect/ByteVectorImpl')}
  0x000001e99a3ad908: 0048 b8a0 | cd07 a1e9 | 0100 008b | 5a08 49ba | 0000 00a0 | e901 0000 | 4903 da48 | 3b43 380f 
  0x000001e99a3ad928: 85bc 7600 | 00e9 0000 | 0000 4c8b | c248 3b02 | 448b 8424 | e400 0000 | 41c1 f808 | 4181 e0ff 
  0x000001e99a3ad948: 0000 0045 

  0x000001e99a3ad94c: ;   {optimized virtual_call}
  0x000001e99a3ad94c: 0fbe c0e8 

  0x000001e99a3ad950: ; ImmutableOopMap {[120]=Oop [216]=Oop }
                      ;*invokeinterface add {reexecute=0 rethrow=0 return_oop=0}
                      ; - jdk.internal.reflect.ClassFileAssembler::emitByte@5 (line 74)
                      ; - jdk.internal.reflect.ClassFileAssembler::emitShort@10 (line 63)
                      ; - jdk.internal.reflect.ClassFileAssembler::emitConstantPoolNameAndType@13 (line 121)
                      ; - jdk.internal.reflect.AccessorGenerator::emitBoxingContantPoolEntries@255 (line 282)
  0x000001e99a3ad950: ecd2 cafe | 488b b424 | d800 0000 | 8b56 1c48 | 83fa 000f | 8429 0000 

  0x000001e99a3ad968: ;   {metadata('jdk/internal/reflect/ByteVectorImpl')}
  0x000001e99a3ad968: 0048 b8a0 | cd07 a1e9 | 0100 008b | 5a08 49ba | 0000 00a0 | e901 0000 | 4903 da48 | 3b43 380f 
  0x000001e99a3ad988: 8566 7600 | 00e9 0000 | 0000 4c8b | c248 3b02 | 448b 8424 | e400 0000 | 4181 e0ff | 0000 0045 
  0x000001e99a3ad9a8: 0fbe c00f 

  0x000001e99a3ad9ac: ;   {optimized virtual_call}
  0x000001e99a3ad9ac: 1f40 00e8 

  0x000001e99a3ad9b0: ; ImmutableOopMap {[120]=Oop [216]=Oop }
                      ;*invokeinterface add {reexecute=0 rethrow=0 return_oop=0}
                      ; - jdk.internal.reflect.ClassFileAssembler::emitByte@5 (line 74)
                      ; - jdk.internal.reflect.ClassFileAssembler::emitShort@20 (line 64)
                      ; - jdk.internal.reflect.ClassFileAssembler::emitConstantPoolNameAndType@13 (line 121)
                      ; - jdk.internal.reflect.AccessorGenerator::emitBoxingContantPoolEntries@255 (line 282)
  0x000001e99a3ad9b0: 8cd2 cafe | 488b b424 | d800 0000 | 440f bf46 | 1841 ffc0 | 6644 8946 | 1848 8b54 | 2478 8b72 
  0x000001e99a3ad9d0: 7048 89b4 | 24e8 0000 | 0044 0fbf | 4618 4183 | f800 0f84 | 996c 0000 | 498b f8c1 | e710 c1ff 
  0x000001e99a3ad9f0: 1048 8bdf | 83eb 020f | bfdb c1e3 | 10c1 fb10 | 899c 24f0 | 0000 0041 | 83f8 000f | 84f0 6b00 
  0x000001e99a3ada10: 0089 bc24 | f400 0000 | 8b46 1c48 | 83f8 000f | 842a 0000 

  0x000001e99a3ada24: ;   {metadata('jdk/internal/reflect/ByteVectorImpl')}
  0x000001e99a3ada24: 0049 bba0 | cd07 a1e9 | 0100 0044 | 8b48 0849 | ba00 0000 | a0e9 0100 | 004d 03ca | 4d3b 5938 
  0x000001e99a3ada44: 0f85 b875 | 0000 e900 | 0000 004c | 8bc0 483b | 0041 b80a | 0000 0048 

  0x000001e99a3ada5c: ;   {optimized virtual_call}
  0x000001e99a3ada5c: 8bd0 90e8 

  0x000001e99a3ada60: ; ImmutableOopMap {[120]=Oop [232]=Oop }
                      ;*invokeinterface add {reexecute=0 rethrow=0 return_oop=0}
                      ; - jdk.internal.reflect.ClassFileAssembler::emitByte@5 (line 74)
                      ; - jdk.internal.reflect.ClassFileAssembler::emitConstantPoolMethodref@3 (line 137)
                      ; - jdk.internal.reflect.AccessorGenerator::emitBoxingContantPoolEntries@280 (line 283)
  0x000001e99a3ada60: dcd1 cafe | 488b b424 | e800 0000 | 8b56 1c48 | 83fa 000f | 8429 0000 

  0x000001e99a3ada78: ;   {metadata('jdk/internal/reflect/ByteVectorImpl')}
  0x000001e99a3ada78: 0048 b8a0 | cd07 a1e9 | 0100 008b | 5a08 49ba | 0000 00a0 | e901 0000 | 4903 da48 | 3b43 380f 
  0x000001e99a3ada98: 856f 7500 | 00e9 0000 | 0000 4c8b | c248 3b02 | 8b9c 24f0 | 0000 00c1 | fb08 81e3 | ff00 0000 
  0x000001e99a3adab8: 0fbe db4c 

  0x000001e99a3adabc: ;   {optimized virtual_call}
  0x000001e99a3adabc: 8bc3 90e8 

  0x000001e99a3adac0: ; ImmutableOopMap {[120]=Oop [232]=Oop }
                      ;*invokeinterface add {reexecute=0 rethrow=0 return_oop=0}
                      ; - jdk.internal.reflect.ClassFileAssembler::emitByte@5 (line 74)
                      ; - jdk.internal.reflect.ClassFileAssembler::emitShort@10 (line 63)
                      ; - jdk.internal.reflect.ClassFileAssembler::emitConstantPoolMethodref@8 (line 138)
                      ; - jdk.internal.reflect.AccessorGenerator::emitBoxingContantPoolEntries@280 (line 283)
  0x000001e99a3adac0: 7cd1 cafe | 488b b424 | e800 0000 | 8b56 1c48 | 83fa 000f | 8429 0000 

  0x000001e99a3adad8: ;   {metadata('jdk/internal/reflect/ByteVectorImpl')}
  0x000001e99a3adad8: 0048 b8a0 | cd07 a1e9 | 0100 008b | 5a08 49ba | 0000 00a0 | e901 0000 | 4903 da48 | 3b43 380f 
  0x000001e99a3adaf8: 8519 7500 | 00e9 0000 | 0000 4c8b | c248 3b02 | 8b9c 24f0 | 0000 0081 | e3ff 0000 | 000f bedb 
  0x000001e99a3adb18: 4c8b c30f 

  0x000001e99a3adb1c: ;   {optimized virtual_call}
  0x000001e99a3adb1c: 1f40 00e8 

  0x000001e99a3adb20: ; ImmutableOopMap {[120]=Oop [232]=Oop }
                      ;*invokeinterface add {reexecute=0 rethrow=0 return_oop=0}
                      ; - jdk.internal.reflect.ClassFileAssembler::emitByte@5 (line 74)
                      ; - jdk.internal.reflect.ClassFileAssembler::emitShort@20 (line 64)
                      ; - jdk.internal.reflect.ClassFileAssembler::emitConstantPoolMethodref@8 (line 138)
                      ; - jdk.internal.reflect.AccessorGenerator::emitBoxingContantPoolEntries@280 (line 283)
  0x000001e99a3adb20: 1cd1 cafe | 488b b424 | e800 0000 | 8b56 1c48 | 83fa 000f | 8429 0000 

  0x000001e99a3adb38: ;   {metadata('jdk/internal/reflect/ByteVectorImpl')}
  0x000001e99a3adb38: 0048 b8a0 | cd07 a1e9 | 0100 008b | 5a08 49ba | 0000 00a0 | e901 0000 | 4903 da48 | 3b43 380f 
  0x000001e99a3adb58: 85c3 7400 | 00e9 0000 | 0000 4c8b | c248 3b02 | 8bbc 24f4 | 0000 00c1 | ff08 81e7 | ff00 0000 
  0x000001e99a3adb78: 400f beff 

  0x000001e99a3adb7c: ;   {optimized virtual_call}
  0x000001e99a3adb7c: 4c8b c7e8 

  0x000001e99a3adb80: ; ImmutableOopMap {[120]=Oop [232]=Oop }
                      ;*invokeinterface add {reexecute=0 rethrow=0 return_oop=0}
                      ; - jdk.internal.reflect.ClassFileAssembler::emitByte@5 (line 74)
                      ; - jdk.internal.reflect.ClassFileAssembler::emitShort@10 (line 63)
                      ; - jdk.internal.reflect.ClassFileAssembler::emitConstantPoolMethodref@13 (line 139)
                      ; - jdk.internal.reflect.AccessorGenerator::emitBoxingContantPoolEntries@280 (line 283)
  0x000001e99a3adb80: bcd0 cafe | 488b b424 | e800 0000 | 8b56 1c48 | 83fa 000f | 8429 0000 

  0x000001e99a3adb98: ;   {metadata('jdk/internal/reflect/ByteVectorImpl')}
  0x000001e99a3adb98: 0048 b8a0 | cd07 a1e9 | 0100 008b | 5a08 49ba | 0000 00a0 | e901 0000 | 4903 da48 | 3b43 380f 
  0x000001e99a3adbb8: 856d 7400 | 00e9 0000 | 0000 4c8b | c248 3b02 | 8bbc 24f4 | 0000 0081 | e7ff 0000 | 0040 0fbe 
  0x000001e99a3adbd8: ff4c 8bc7 

  0x000001e99a3adbdc: ;   {optimized virtual_call}
  0x000001e99a3adbdc: 6666 90e8 

  0x000001e99a3adbe0: ; ImmutableOopMap {[120]=Oop [232]=Oop }
                      ;*invokeinterface add {reexecute=0 rethrow=0 return_oop=0}
                      ; - jdk.internal.reflect.ClassFileAssembler::emitByte@5 (line 74)
                      ; - jdk.internal.reflect.ClassFileAssembler::emitShort@20 (line 64)
                      ; - jdk.internal.reflect.ClassFileAssembler::emitConstantPoolMethodref@13 (line 139)
                      ; - jdk.internal.reflect.AccessorGenerator::emitBoxingContantPoolEntries@280 (line 283)
  0x000001e99a3adbe0: 5cd0 cafe | 488b b424 | e800 0000 | 440f bf46 | 1841 ffc0 | 6644 8946 | 1848 8b54 | 2478 8b72 
  0x000001e99a3adc00: 7044 0fbf | 4618 4183 | f800 0f84 | 7169 0000 | 41c1 e010 | 41c1 f810 | 6644 8942 

  0x000001e99a3adc1c: ;   {oop("byteValue"{0x00000000d4680060})}
  0x000001e99a3adc1c: 4249 b860 | 0068 d400 | 0000 0048 | 8bd6 0f1f 

  0x000001e99a3adc2c: ;   {optimized virtual_call}
  0x000001e99a3adc2c: 4400 00e8 

  0x000001e99a3adc30: ; ImmutableOopMap {[120]=Oop }
                      ;*invokevirtual emitConstantPoolUTF8 {reexecute=0 rethrow=0 return_oop=0}
                      ; - jdk.internal.reflect.AccessorGenerator::emitBoxingContantPoolEntries@300 (line 285)
  0x000001e99a3adc30: 6cc7 cffe | 488b 5424 | 788b 7270 

  0x000001e99a3adc3c: ; implicit exception: dispatches to 0x000001e99a3b5039
                      ;   {oop("()B"{0x00000000d4680030})}
  0x000001e99a3adc3c: 483b 0649 | b830 0068 | d400 0000 | 0048 8bd6 

  0x000001e99a3adc4c: ;   {optimized virtual_call}
  0x000001e99a3adc4c: 6666 90e8 

  0x000001e99a3adc50: ; ImmutableOopMap {[120]=Oop }
                      ;*invokevirtual emitConstantPoolUTF8 {reexecute=0 rethrow=0 return_oop=0}
                      ; - jdk.internal.reflect.AccessorGenerator::emitBoxingContantPoolEntries@309 (line 286)
  0x000001e99a3adc50: 4cc7 cffe | 488b 5424 | 788b 7270 | 4889 b424 | f800 0000 

  0x000001e99a3adc64: ; implicit exception: dispatches to 0x000001e99a3b503e
  0x000001e99a3adc64: 440f bf46 | 1841 83f8 | 000f 848e | 6800 0049 | 8bf8 c1e7 | 10c1 ff10 | 488b dfff | cb0f bfdb 
  0x000001e99a3adc84: c1e3 10c1 | fb10 899c | 2400 0100 | 0041 83f8 | 000f 84e6 | 6700 0089 | bc24 0401 | 0000 8b46 
  0x000001e99a3adca4: 1c48 83f8 | 000f 842a 

  0x000001e99a3adcac: ;   {metadata('jdk/internal/reflect/ByteVectorImpl')}
  0x000001e99a3adcac: 0000 0049 | bba0 cd07 | a1e9 0100 | 0044 8b48 | 0849 ba00 | 0000 a0e9 | 0100 004d | 03ca 4d3b 
  0x000001e99a3adccc: 5938 0f85 | 6f73 0000 | e900 0000 | 004c 8bc0 

  0x000001e99a3adcdc: ; implicit exception: dispatches to 0x000001e99a3b5048
  0x000001e99a3adcdc: 483b 0041 | b80c 0000 | 0048 8bd0 | 0f1f 8000 

  0x000001e99a3adcec: ;   {optimized virtual_call}
  0x000001e99a3adcec: 0000 00e8 

  0x000001e99a3adcf0: ; ImmutableOopMap {[248]=Oop [120]=Oop }
                      ;*invokeinterface add {reexecute=0 rethrow=0 return_oop=0}
                      ; - jdk.internal.reflect.ClassFileAssembler::emitByte@5 (line 74)
                      ; - jdk.internal.reflect.ClassFileAssembler::emitConstantPoolNameAndType@3 (line 119)
                      ; - jdk.internal.reflect.AccessorGenerator::emitBoxingContantPoolEntries@334 (line 287)
  0x000001e99a3adcf0: 4ccf cafe | 488b b424 | f800 0000 | 8b56 1c48 | 83fa 000f | 8429 0000 

  0x000001e99a3add08: ;   {metadata('jdk/internal/reflect/ByteVectorImpl')}
  0x000001e99a3add08: 0048 b8a0 | cd07 a1e9 | 0100 008b | 5a08 49ba | 0000 00a0 | e901 0000 | 4903 da48 | 3b43 380f 
  0x000001e99a3add28: 8520 7300 | 00e9 0000 | 0000 4c8b | c248 3b02 | 8b9c 2400 | 0100 00c1 | fb08 81e3 | ff00 0000 
  0x000001e99a3add48: 0fbe db4c 

  0x000001e99a3add4c: ;   {optimized virtual_call}
  0x000001e99a3add4c: 8bc3 90e8 

  0x000001e99a3add50: ; ImmutableOopMap {[120]=Oop [248]=Oop }
                      ;*invokeinterface add {reexecute=0 rethrow=0 return_oop=0}
                      ; - jdk.internal.reflect.ClassFileAssembler::emitByte@5 (line 74)
                      ; - jdk.internal.reflect.ClassFileAssembler::emitShort@10 (line 63)
                      ; - jdk.internal.reflect.ClassFileAssembler::emitConstantPoolNameAndType@8 (line 120)
                      ; - jdk.internal.reflect.AccessorGenerator::emitBoxingContantPoolEntries@334 (line 287)
  0x000001e99a3add50: ecce cafe | 488b b424 | f800 0000 | 8b56 1c48 | 83fa 000f | 8429 0000 

  0x000001e99a3add68: ;   {metadata('jdk/internal/reflect/ByteVectorImpl')}
  0x000001e99a3add68: 0048 b8a0 | cd07 a1e9 | 0100 008b | 5a08 49ba | 0000 00a0 | e901 0000 | 4903 da48 | 3b43 380f 
  0x000001e99a3add88: 85ca 7200 | 00e9 0000 | 0000 4c8b | c248 3b02 | 8b9c 2400 | 0100 0081 | e3ff 0000 | 000f bedb 
  0x000001e99a3adda8: 4c8b c30f 

  0x000001e99a3addac: ;   {optimized virtual_call}
  0x000001e99a3addac: 1f40 00e8 

  0x000001e99a3addb0: ; ImmutableOopMap {[120]=Oop [248]=Oop }
                      ;*invokeinterface add {reexecute=0 rethrow=0 return_oop=0}
                      ; - jdk.internal.reflect.ClassFileAssembler::emitByte@5 (line 74)
                      ; - jdk.internal.reflect.ClassFileAssembler::emitShort@20 (line 64)
                      ; - jdk.internal.reflect.ClassFileAssembler::emitConstantPoolNameAndType@8 (line 120)
                      ; - jdk.internal.reflect.AccessorGenerator::emitBoxingContantPoolEntries@334 (line 287)
  0x000001e99a3addb0: 8cce cafe | 488b b424 | f800 0000 | 8b56 1c48 | 83fa 000f | 8429 0000 

  0x000001e99a3addc8: ;   {metadata('jdk/internal/reflect/ByteVectorImpl')}
  0x000001e99a3addc8: 0048 b8a0 | cd07 a1e9 | 0100 008b | 5a08 49ba | 0000 00a0 | e901 0000 | 4903 da48 | 3b43 380f 
  0x000001e99a3adde8: 8574 7200 | 00e9 0000 | 0000 4c8b | c248 3b02 | 8bbc 2404 | 0100 00c1 | ff08 81e7 | ff00 0000 
  0x000001e99a3ade08: 400f beff 

  0x000001e99a3ade0c: ;   {optimized virtual_call}
  0x000001e99a3ade0c: 4c8b c7e8 

  0x000001e99a3ade10: ; ImmutableOopMap {[120]=Oop [248]=Oop }
                      ;*invokeinterface add {reexecute=0 rethrow=0 return_oop=0}
                      ; - jdk.internal.reflect.ClassFileAssembler::emitByte@5 (line 74)
                      ; - jdk.internal.reflect.ClassFileAssembler::emitShort@10 (line 63)
                      ; - jdk.internal.reflect.ClassFileAssembler::emitConstantPoolNameAndType@13 (line 121)
                      ; - jdk.internal.reflect.AccessorGenerator::emitBoxingContantPoolEntries@334 (line 287)
  0x000001e99a3ade10: 2cce cafe | 488b b424 | f800 0000 | 8b56 1c48 | 83fa 000f | 8429 0000 

  0x000001e99a3ade28: ;   {metadata('jdk/internal/reflect/ByteVectorImpl')}
  0x000001e99a3ade28: 0048 b8a0 | cd07 a1e9 | 0100 008b | 5a08 49ba | 0000 00a0 | e901 0000 | 4903 da48 | 3b43 380f 
  0x000001e99a3ade48: 851e 7200 | 00e9 0000 | 0000 4c8b | c248 3b02 | 8bbc 2404 | 0100 0081 | e7ff 0000 | 0040 0fbe 
  0x000001e99a3ade68: ff4c 8bc7 

  0x000001e99a3ade6c: ;   {optimized virtual_call}
  0x000001e99a3ade6c: 6666 90e8 

  0x000001e99a3ade70: ; ImmutableOopMap {[120]=Oop [248]=Oop }
                      ;*invokeinterface add {reexecute=0 rethrow=0 return_oop=0}
                      ; - jdk.internal.reflect.ClassFileAssembler::emitByte@5 (line 74)
                      ; - jdk.internal.reflect.ClassFileAssembler::emitShort@20 (line 64)
                      ; - jdk.internal.reflect.ClassFileAssembler::emitConstantPoolNameAndType@13 (line 121)
                      ; - jdk.internal.reflect.AccessorGenerator::emitBoxingContantPoolEntries@334 (line 287)
  0x000001e99a3ade70: cccd cafe | 488b b424 | f800 0000 | 440f bf46 | 1841 ffc0 | 6644 8946 | 1848 8b54 | 2478 8b72 
  0x000001e99a3ade90: 7048 89b4 | 2408 0100 | 0044 0fbf | 4618 4183 | f800 0f84 | 5965 0000 | 498b f8c1 | e710 c1ff 
  0x000001e99a3adeb0: 1048 8bdf | 83eb 060f | bfdb c1e3 | 10c1 fb10 | 899c 2410 | 0100 0041 | 83f8 000f | 84b0 6400 
  0x000001e99a3aded0: 0089 bc24 | 1401 0000 | 8b46 1c48 | 83f8 000f | 842a 0000 

  0x000001e99a3adee4: ;   {metadata('jdk/internal/reflect/ByteVectorImpl')}
  0x000001e99a3adee4: 0049 bba0 | cd07 a1e9 | 0100 0044 | 8b48 0849 | ba00 0000 | a0e9 0100 | 004d 03ca | 4d3b 5938 
  0x000001e99a3adf04: 0f85 7071 | 0000 e900 | 0000 004c | 8bc0 483b | 0041 b80a | 0000 0048 

  0x000001e99a3adf1c: ;   {optimized virtual_call}
  0x000001e99a3adf1c: 8bd0 90e8 

  0x000001e99a3adf20: ; ImmutableOopMap {[120]=Oop [264]=Oop }
                      ;*invokeinterface add {reexecute=0 rethrow=0 return_oop=0}
                      ; - jdk.internal.reflect.ClassFileAssembler::emitByte@5 (line 74)
                      ; - jdk.internal.reflect.ClassFileAssembler::emitConstantPoolMethodref@3 (line 137)
                      ; - jdk.internal.reflect.AccessorGenerator::emitBoxingContantPoolEntries@360 (line 288)
  0x000001e99a3adf20: 1ccd cafe | 488b b424 | 0801 0000 | 8b56 1c48 | 83fa 000f | 8429 0000 

  0x000001e99a3adf38: ;   {metadata('jdk/internal/reflect/ByteVectorImpl')}
  0x000001e99a3adf38: 0048 b8a0 | cd07 a1e9 | 0100 008b | 5a08 49ba | 0000 00a0 | e901 0000 | 4903 da48 | 3b43 380f 
  0x000001e99a3adf58: 8527 7100 | 00e9 0000 | 0000 4c8b | c248 3b02 | 8b9c 2410 | 0100 00c1 | fb08 81e3 | ff00 0000 
  0x000001e99a3adf78: 0fbe db4c 

  0x000001e99a3adf7c: ;   {optimized virtual_call}
  0x000001e99a3adf7c: 8bc3 90e8 

  0x000001e99a3adf80: ; ImmutableOopMap {[120]=Oop [264]=Oop }
                      ;*invokeinterface add {reexecute=0 rethrow=0 return_oop=0}
                      ; - jdk.internal.reflect.ClassFileAssembler::emitByte@5 (line 74)
                      ; - jdk.internal.reflect.ClassFileAssembler::emitShort@10 (line 63)
                      ; - jdk.internal.reflect.ClassFileAssembler::emitConstantPoolMethodref@8 (line 138)
                      ; - jdk.internal.reflect.AccessorGenerator::emitBoxingContantPoolEntries@360 (line 288)
  0x000001e99a3adf80: bccc cafe | 488b b424 | 0801 0000 | 8b56 1c48 | 83fa 000f | 8429 0000 

  0x000001e99a3adf98: ;   {metadata('jdk/internal/reflect/ByteVectorImpl')}
  0x000001e99a3adf98: 0048 b8a0 | cd07 a1e9 | 0100 008b | 5a08 49ba | 0000 00a0 | e901 0000 | 4903 da48 | 3b43 380f 
  0x000001e99a3adfb8: 85d1 7000 | 00e9 0000 | 0000 4c8b | c248 3b02 | 8b9c 2410 | 0100 0081 | e3ff 0000 | 000f bedb 
  0x000001e99a3adfd8: 4c8b c30f 

  0x000001e99a3adfdc: ;   {optimized virtual_call}
  0x000001e99a3adfdc: 1f40 00e8 

  0x000001e99a3adfe0: ; ImmutableOopMap {[120]=Oop [264]=Oop }
                      ;*invokeinterface add {reexecute=0 rethrow=0 return_oop=0}
                      ; - jdk.internal.reflect.ClassFileAssembler::emitByte@5 (line 74)
                      ; - jdk.internal.reflect.ClassFileAssembler::emitShort@20 (line 64)
                      ; - jdk.internal.reflect.ClassFileAssembler::emitConstantPoolMethodref@8 (line 138)
                      ; - jdk.internal.reflect.AccessorGenerator::emitBoxingContantPoolEntries@360 (line 288)
  0x000001e99a3adfe0: 5ccc cafe | 488b b424 | 0801 0000 | 8b56 1c48 | 83fa 000f | 8429 0000 

  0x000001e99a3adff8: ;   {metadata('jdk/internal/reflect/ByteVectorImpl')}
  0x000001e99a3adff8: 0048 b8a0 | cd07 a1e9 | 0100 008b | 5a08 49ba | 0000 00a0 | e901 0000 | 4903 da48 | 3b43 380f 
  0x000001e99a3ae018: 857b 7000 | 00e9 0000 | 0000 4c8b | c248 3b02 | 8bbc 2414 | 0100 00c1 | ff08 81e7 | ff00 0000 
  0x000001e99a3ae038: 400f beff 

  0x000001e99a3ae03c: ;   {optimized virtual_call}
  0x000001e99a3ae03c: 4c8b c7e8 

  0x000001e99a3ae040: ; ImmutableOopMap {[120]=Oop [264]=Oop }
                      ;*invokeinterface add {reexecute=0 rethrow=0 return_oop=0}
                      ; - jdk.internal.reflect.ClassFileAssembler::emitByte@5 (line 74)
                      ; - jdk.internal.reflect.ClassFileAssembler::emitShort@10 (line 63)
                      ; - jdk.internal.reflect.ClassFileAssembler::emitConstantPoolMethodref@13 (line 139)
                      ; - jdk.internal.reflect.AccessorGenerator::emitBoxingContantPoolEntries@360 (line 288)
  0x000001e99a3ae040: fccb cafe | 488b b424 | 0801 0000 | 8b56 1c48 | 83fa 000f | 8429 0000 

  0x000001e99a3ae058: ;   {metadata('jdk/internal/reflect/ByteVectorImpl')}
  0x000001e99a3ae058: 0048 b8a0 | cd07 a1e9 | 0100 008b | 5a08 49ba | 0000 00a0 | e901 0000 | 4903 da48 | 3b43 380f 
  0x000001e99a3ae078: 8525 7000 | 00e9 0000 | 0000 4c8b | c248 3b02 | 8bbc 2414 | 0100 0081 | e7ff 0000 | 0040 0fbe 
  0x000001e99a3ae098: ff4c 8bc7 

  0x000001e99a3ae09c: ;   {optimized virtual_call}
  0x000001e99a3ae09c: 6666 90e8 

  0x000001e99a3ae0a0: ; ImmutableOopMap {[120]=Oop [264]=Oop }
                      ;*invokeinterface add {reexecute=0 rethrow=0 return_oop=0}
                      ; - jdk.internal.reflect.ClassFileAssembler::emitByte@5 (line 74)
                      ; - jdk.internal.reflect.ClassFileAssembler::emitShort@20 (line 64)
                      ; - jdk.internal.reflect.ClassFileAssembler::emitConstantPoolMethodref@13 (line 139)
                      ; - jdk.internal.reflect.AccessorGenerator::emitBoxingContantPoolEntries@360 (line 288)
  0x000001e99a3ae0a0: 9ccb cafe | 488b b424 | 0801 0000 | 440f bf46 | 1841 ffc0 | 6644 8946 | 1848 8b54 | 2478 8b72 
  0x000001e99a3ae0c0: 7044 0fbf | 4618 4183 | f800 0f84 | 3162 0000 | 41c1 e010 | 41c1 f810 | 6644 8942 

  0x000001e99a3ae0dc: ;   {oop("java/lang/Character"{0x00000000d467fff0})}
  0x000001e99a3ae0dc: 4449 b8f0 | ff67 d400 | 0000 0048 | 8bd6 0f1f 

  0x000001e99a3ae0ec: ;   {optimized virtual_call}
  0x000001e99a3ae0ec: 4400 00e8 

  0x000001e99a3ae0f0: ; ImmutableOopMap {[120]=Oop }
                      ;*invokevirtual emitConstantPoolUTF8 {reexecute=0 rethrow=0 return_oop=0}
                      ; - jdk.internal.reflect.AccessorGenerator::emitBoxingContantPoolEntries@380 (line 292)
  0x000001e99a3ae0f0: acc2 cffe | 488b 5424 | 788b 7270 | 4889 b424 | 1801 0000 

  0x000001e99a3ae104: ; implicit exception: dispatches to 0x000001e99a3b50b1
  0x000001e99a3ae104: 440f bf46 | 1841 83f8 | 000f 846e | 6100 008b | 7e1c 41c1 | e010 41c1 | f810 4883 | ff00 0f84 
  0x000001e99a3ae124: 2900 0000 

  0x000001e99a3ae128: ;   {metadata('jdk/internal/reflect/ByteVectorImpl')}
  0x000001e99a3ae128: 49b9 a0cd | 07a1 e901 | 0000 8b4f | 0849 ba00 | 0000 a0e9 | 0100 0049 | 03ca 4c3b | 4938 0f85 
  0x000001e99a3ae148: 6a6f 0000 | e948 0000 | 0048 8bdf 

  0x000001e99a3ae154: ; implicit exception: dispatches to 0x000001e99a3b50bb
  0x000001e99a3ae154: 483b 0744 | 8984 2420 | 0100 0041 | b807 0000 | 0048 8bd7 | 0f1f 8000 

  0x000001e99a3ae16c: ;   {optimized virtual_call}
  0x000001e99a3ae16c: 0000 00e8 

  0x000001e99a3ae170: ; ImmutableOopMap {[280]=Oop [120]=Oop }
                      ;*invokeinterface add {reexecute=0 rethrow=0 return_oop=0}
                      ; - jdk.internal.reflect.ClassFileAssembler::emitByte@5 (line 74)
                      ; - jdk.internal.reflect.ClassFileAssembler::emitConstantPoolClass@3 (line 113)
                      ; - jdk.internal.reflect.AccessorGenerator::emitBoxingContantPoolEntries@394 (line 293)
  0x000001e99a3ae170: ccca cafe | 488b b424 | 1801 0000 | 8b56 1c48 | 83fa 000f | 8429 0000 

  0x000001e99a3ae188: ;   {metadata('jdk/internal/reflect/ByteVectorImpl')}
  0x000001e99a3ae188: 0048 b8a0 | cd07 a1e9 | 0100 008b | 5a08 49ba | 0000 00a0 | e901 0000 | 4903 da48 | 3b43 380f 
  0x000001e99a3ae1a8: 8513 6f00 | 00e9 0000 | 0000 4c8b | c248 3b02 | 448b 8424 | 2001 0000 | 41c1 f808 | 4181 e0ff 
  0x000001e99a3ae1c8: 0000 0045 

  0x000001e99a3ae1cc: ;   {optimized virtual_call}
  0x000001e99a3ae1cc: 0fbe c0e8 

  0x000001e99a3ae1d0: ; ImmutableOopMap {[120]=Oop [280]=Oop }
                      ;*invokeinterface add {reexecute=0 rethrow=0 return_oop=0}
                      ; - jdk.internal.reflect.ClassFileAssembler::emitByte@5 (line 74)
                      ; - jdk.internal.reflect.ClassFileAssembler::emitShort@10 (line 63)
                      ; - jdk.internal.reflect.ClassFileAssembler::emitConstantPoolClass@8 (line 114)
                      ; - jdk.internal.reflect.AccessorGenerator::emitBoxingContantPoolEntries@394 (line 293)
  0x000001e99a3ae1d0: 6cca cafe | 488b b424 | 1801 0000 | 8b56 1c48 | 83fa 000f | 8429 0000 

  0x000001e99a3ae1e8: ;   {metadata('jdk/internal/reflect/ByteVectorImpl')}
  0x000001e99a3ae1e8: 0048 b8a0 | cd07 a1e9 | 0100 008b | 5a08 49ba | 0000 00a0 | e901 0000 | 4903 da48 | 3b43 380f 
  0x000001e99a3ae208: 85bd 6e00 | 00e9 0000 | 0000 4c8b | c248 3b02 | 448b 8424 | 2001 0000 | 4181 e0ff | 0000 0045 
  0x000001e99a3ae228: 0fbe c00f 

  0x000001e99a3ae22c: ;   {optimized virtual_call}
  0x000001e99a3ae22c: 1f40 00e8 

  0x000001e99a3ae230: ; ImmutableOopMap {[120]=Oop [280]=Oop }
                      ;*invokeinterface add {reexecute=0 rethrow=0 return_oop=0}
                      ; - jdk.internal.reflect.ClassFileAssembler::emitByte@5 (line 74)
                      ; - jdk.internal.reflect.ClassFileAssembler::emitShort@20 (line 64)
                      ; - jdk.internal.reflect.ClassFileAssembler::emitConstantPoolClass@8 (line 114)
                      ; - jdk.internal.reflect.AccessorGenerator::emitBoxingContantPoolEntries@394 (line 293)
  0x000001e99a3ae230: 0cca cafe | 488b b424 | 1801 0000 | 440f bf46 | 1841 ffc0 | 6644 8946 | 1848 8b54 | 2478 8b72 
  0x000001e99a3ae250: 7044 0fbf | 4618 4183 | f800 0f84 | a15f 0000 | 41c1 e010 | 41c1 f810 | 6644 8942 

  0x000001e99a3ae26c: ;   {oop("(C)Ljava/lang/Character;"{0x00000000d467ffb0})}
  0x000001e99a3ae26c: 4649 b8b0 | ff67 d400 | 0000 0048 | 8bd6 0f1f 

  0x000001e99a3ae27c: ;   {optimized virtual_call}
  0x000001e99a3ae27c: 4400 00e8 

  0x000001e99a3ae280: ; ImmutableOopMap {[120]=Oop }
                      ;*invokevirtual emitConstantPoolUTF8 {reexecute=0 rethrow=0 return_oop=0}
                      ; - jdk.internal.reflect.AccessorGenerator::emitBoxingContantPoolEntries@414 (line 295)
  0x000001e99a3ae280: 1cc1 cffe | 488b 5424 | 788b 7270 | 4889 b424 | 2801 0000 | 0fbf 7a38 | 89bc 2424 | 0100 0044 
  0x000001e99a3ae2a0: 0fbf 4618 | 4183 f800 | 0f84 d35e | 0000 8b5e | 1c41 c1e0 | 1041 c1f8 | 1048 83fb | 000f 842a 
  0x000001e99a3ae2c0: ;   {metadata('jdk/internal/reflect/ByteVectorImpl')}
  0x000001e99a3ae2c0: 0000 0049 | bba0 cd07 | a1e9 0100 | 0044 8b4b | 0849 ba00 | 0000 a0e9 | 0100 004d | 03ca 4d3b 
  0x000001e99a3ae2e0: 5938 0f85 | f66d 0000 | e900 0000 | 0048 8bc3 

  0x000001e99a3ae2f0: ; implicit exception: dispatches to 0x000001e99a3b50e3
  0x000001e99a3ae2f0: 483b 0344 | 8984 2430 | 0100 0041 | b80c 0000 | 0048 8bd3 

  0x000001e99a3ae304: ;   {optimized virtual_call}
  0x000001e99a3ae304: 6666 90e8 

  0x000001e99a3ae308: ; ImmutableOopMap {[296]=Oop [120]=Oop }
                      ;*invokeinterface add {reexecute=0 rethrow=0 return_oop=0}
                      ; - jdk.internal.reflect.ClassFileAssembler::emitByte@5 (line 74)
                      ; - jdk.internal.reflect.ClassFileAssembler::emitConstantPoolNameAndType@3 (line 119)
                      ; - jdk.internal.reflect.AccessorGenerator::emitBoxingContantPoolEntries@432 (line 296)
  0x000001e99a3ae308: 34c9 cafe | 488b b424 | 2801 0000 | 8b56 1c48 | 83fa 000f | 8429 0000 

  0x000001e99a3ae320: ;   {metadata('jdk/internal/reflect/ByteVectorImpl')}
  0x000001e99a3ae320: 0048 b8a0 | cd07 a1e9 | 0100 008b | 5a08 49ba | 0000 00a0 | e901 0000 | 4903 da48 | 3b43 380f 
  0x000001e99a3ae340: 85a3 6d00 | 00e9 0000 | 0000 4c8b | c248 3b02 | 8bbc 2424 | 0100 00c1 | ff08 81e7 | ff00 0000 
  0x000001e99a3ae360: 400f beff 

  0x000001e99a3ae364: ;   {optimized virtual_call}
  0x000001e99a3ae364: 4c8b c7e8 

  0x000001e99a3ae368: ; ImmutableOopMap {[120]=Oop [296]=Oop }
                      ;*invokeinterface add {reexecute=0 rethrow=0 return_oop=0}
                      ; - jdk.internal.reflect.ClassFileAssembler::emitByte@5 (line 74)
                      ; - jdk.internal.reflect.ClassFileAssembler::emitShort@10 (line 63)
                      ; - jdk.internal.reflect.ClassFileAssembler::emitConstantPoolNameAndType@8 (line 120)
                      ; - jdk.internal.reflect.AccessorGenerator::emitBoxingContantPoolEntries@432 (line 296)
  0x000001e99a3ae368: d4c8 cafe | 488b b424 | 2801 0000 | 8b56 1c48 | 83fa 000f | 8429 0000 

  0x000001e99a3ae380: ;   {metadata('jdk/internal/reflect/ByteVectorImpl')}
  0x000001e99a3ae380: 0048 b8a0 | cd07 a1e9 | 0100 008b | 5a08 49ba | 0000 00a0 | e901 0000 | 4903 da48 | 3b43 380f 
  0x000001e99a3ae3a0: 854d 6d00 | 00e9 0000 | 0000 4c8b | c248 3b02 | 8bbc 2424 | 0100 0081 | e7ff 0000 | 0040 0fbe 
  0x000001e99a3ae3c0: ff4c 8bc7 

  0x000001e99a3ae3c4: ;   {optimized virtual_call}
  0x000001e99a3ae3c4: 6666 90e8 

  0x000001e99a3ae3c8: ; ImmutableOopMap {[120]=Oop [296]=Oop }
                      ;*invokeinterface add {reexecute=0 rethrow=0 return_oop=0}
                      ; - jdk.internal.reflect.ClassFileAssembler::emitByte@5 (line 74)
                      ; - jdk.internal.reflect.ClassFileAssembler::emitShort@20 (line 64)
                      ; - jdk.internal.reflect.ClassFileAssembler::emitConstantPoolNameAndType@8 (line 120)
                      ; - jdk.internal.reflect.AccessorGenerator::emitBoxingContantPoolEntries@432 (line 296)
  0x000001e99a3ae3c8: 74c8 cafe | 488b b424 | 2801 0000 | 8b56 1c48 | 83fa 000f | 8429 0000 

  0x000001e99a3ae3e0: ;   {metadata('jdk/internal/reflect/ByteVectorImpl')}
  0x000001e99a3ae3e0: 0048 b8a0 | cd07 a1e9 | 0100 008b | 5a08 49ba | 0000 00a0 | e901 0000 | 4903 da48 | 3b43 380f 
  0x000001e99a3ae400: 85f7 6c00 | 00e9 0000 | 0000 4c8b | c248 3b02 | 448b 8424 | 3001 0000 | 41c1 f808 | 4181 e0ff 
  0x000001e99a3ae420: 0000 0045 

  0x000001e99a3ae424: ;   {optimized virtual_call}
  0x000001e99a3ae424: 0fbe c0e8 

  0x000001e99a3ae428: ; ImmutableOopMap {[120]=Oop [296]=Oop }
                      ;*invokeinterface add {reexecute=0 rethrow=0 return_oop=0}
                      ; - jdk.internal.reflect.ClassFileAssembler::emitByte@5 (line 74)
                      ; - jdk.internal.reflect.ClassFileAssembler::emitShort@10 (line 63)
                      ; - jdk.internal.reflect.ClassFileAssembler::emitConstantPoolNameAndType@13 (line 121)
                      ; - jdk.internal.reflect.AccessorGenerator::emitBoxingContantPoolEntries@432 (line 296)
  0x000001e99a3ae428: 14c8 cafe | 488b b424 | 2801 0000 | 8b56 1c48 | 83fa 000f | 8429 0000 

  0x000001e99a3ae440: ;   {metadata('jdk/internal/reflect/ByteVectorImpl')}
  0x000001e99a3ae440: 0048 b8a0 | cd07 a1e9 | 0100 008b | 5a08 49ba | 0000 00a0 | e901 0000 | 4903 da48 | 3b43 380f 
  0x000001e99a3ae460: 85a1 6c00 | 00e9 0000 | 0000 4c8b | c248 3b02 | 448b 8424 | 3001 0000 | 4181 e0ff | 0000 0045 
  0x000001e99a3ae480: 0fbe c00f 

  0x000001e99a3ae484: ;   {optimized virtual_call}
  0x000001e99a3ae484: 1f40 00e8 

  0x000001e99a3ae488: ; ImmutableOopMap {[120]=Oop [296]=Oop }
                      ;*invokeinterface add {reexecute=0 rethrow=0 return_oop=0}
                      ; - jdk.internal.reflect.ClassFileAssembler::emitByte@5 (line 74)
                      ; - jdk.internal.reflect.ClassFileAssembler::emitShort@20 (line 64)
                      ; - jdk.internal.reflect.ClassFileAssembler::emitConstantPoolNameAndType@13 (line 121)
                      ; - jdk.internal.reflect.AccessorGenerator::emitBoxingContantPoolEntries@432 (line 296)
  0x000001e99a3ae488: b4c7 cafe | 488b b424 | 2801 0000 | 440f bf46 | 1841 ffc0 | 6644 8946 | 1848 8b54 | 2478 8b72 
  0x000001e99a3ae4a8: 7048 89b4 | 2438 0100 | 0044 0fbf | 4618 4183 | f800 0f84 | 415c 0000 | 498b f8c1 | e710 c1ff 
  0x000001e99a3ae4c8: 1048 8bdf | 83eb 020f | bfdb c1e3 | 10c1 fb10 | 899c 2434 | 0100 0041 | 83f8 000f | 8498 5b00 
  0x000001e99a3ae4e8: 0089 bc24 | 4001 0000 | 8b46 1c48 | 83f8 000f | 842a 0000 

  0x000001e99a3ae4fc: ;   {metadata('jdk/internal/reflect/ByteVectorImpl')}
  0x000001e99a3ae4fc: 0049 bba0 | cd07 a1e9 | 0100 0044 | 8b48 0849 | ba00 0000 | a0e9 0100 | 004d 03ca | 4d3b 5938 
  0x000001e99a3ae51c: 0f85 f36b | 0000 e900 | 0000 004c | 8bc0 483b | 0041 b80a | 0000 0048 

  0x000001e99a3ae534: ;   {optimized virtual_call}
  0x000001e99a3ae534: 8bd0 90e8 

  0x000001e99a3ae538: ; ImmutableOopMap {[120]=Oop [312]=Oop }
                      ;*invokeinterface add {reexecute=0 rethrow=0 return_oop=0}
                      ; - jdk.internal.reflect.ClassFileAssembler::emitByte@5 (line 74)
                      ; - jdk.internal.reflect.ClassFileAssembler::emitConstantPoolMethodref@3 (line 137)
                      ; - jdk.internal.reflect.AccessorGenerator::emitBoxingContantPoolEntries@457 (line 297)
  0x000001e99a3ae538: 04c7 cafe | 488b b424 | 3801 0000 | 8b56 1c48 | 83fa 000f | 8429 0000 

  0x000001e99a3ae550: ;   {metadata('jdk/internal/reflect/ByteVectorImpl')}
  0x000001e99a3ae550: 0048 b8a0 | cd07 a1e9 | 0100 008b | 5a08 49ba | 0000 00a0 | e901 0000 | 4903 da48 | 3b43 380f 
  0x000001e99a3ae570: 85aa 6b00 | 00e9 0000 | 0000 4c8b | c248 3b02 | 8b9c 2434 | 0100 00c1 | fb08 81e3 | ff00 0000 
  0x000001e99a3ae590: 0fbe db4c 

  0x000001e99a3ae594: ;   {optimized virtual_call}
  0x000001e99a3ae594: 8bc3 90e8 

  0x000001e99a3ae598: ; ImmutableOopMap {[120]=Oop [312]=Oop }
                      ;*invokeinterface add {reexecute=0 rethrow=0 return_oop=0}
                      ; - jdk.internal.reflect.ClassFileAssembler::emitByte@5 (line 74)
                      ; - jdk.internal.reflect.ClassFileAssembler::emitShort@10 (line 63)
                      ; - jdk.internal.reflect.ClassFileAssembler::emitConstantPoolMethodref@8 (line 138)
                      ; - jdk.internal.reflect.AccessorGenerator::emitBoxingContantPoolEntries@457 (line 297)
  0x000001e99a3ae598: a4c6 cafe | 488b b424 | 3801 0000 | 8b56 1c48 | 83fa 000f | 8429 0000 

  0x000001e99a3ae5b0: ;   {metadata('jdk/internal/reflect/ByteVectorImpl')}
  0x000001e99a3ae5b0: 0048 b8a0 | cd07 a1e9 | 0100 008b | 5a08 49ba | 0000 00a0 | e901 0000 | 4903 da48 | 3b43 380f 
  0x000001e99a3ae5d0: 8554 6b00 | 00e9 0000 | 0000 4c8b | c248 3b02 | 8b9c 2434 | 0100 0081 | e3ff 0000 | 000f bedb 
  0x000001e99a3ae5f0: 4c8b c30f 

  0x000001e99a3ae5f4: ;   {optimized virtual_call}
  0x000001e99a3ae5f4: 1f40 00e8 

  0x000001e99a3ae5f8: ; ImmutableOopMap {[120]=Oop [312]=Oop }
                      ;*invokeinterface add {reexecute=0 rethrow=0 return_oop=0}
                      ; - jdk.internal.reflect.ClassFileAssembler::emitByte@5 (line 74)
                      ; - jdk.internal.reflect.ClassFileAssembler::emitShort@20 (line 64)
                      ; - jdk.internal.reflect.ClassFileAssembler::emitConstantPoolMethodref@8 (line 138)
                      ; - jdk.internal.reflect.AccessorGenerator::emitBoxingContantPoolEntries@457 (line 297)
  0x000001e99a3ae5f8: 44c6 cafe | 488b b424 | 3801 0000 | 8b56 1c48 | 83fa 000f | 8429 0000 

  0x000001e99a3ae610: ;   {metadata('jdk/internal/reflect/ByteVectorImpl')}
  0x000001e99a3ae610: 0048 b8a0 | cd07 a1e9 | 0100 008b | 5a08 49ba | 0000 00a0 | e901 0000 | 4903 da48 | 3b43 380f 
  0x000001e99a3ae630: 85fe 6a00 | 00e9 0000 | 0000 4c8b | c248 3b02 | 8bbc 2440 | 0100 00c1 | ff08 81e7 | ff00 0000 
  0x000001e99a3ae650: 400f beff 

  0x000001e99a3ae654: ;   {optimized virtual_call}
  0x000001e99a3ae654: 4c8b c7e8 

  0x000001e99a3ae658: ; ImmutableOopMap {[120]=Oop [312]=Oop }
                      ;*invokeinterface add {reexecute=0 rethrow=0 return_oop=0}
                      ; - jdk.internal.reflect.ClassFileAssembler::emitByte@5 (line 74)
                      ; - jdk.internal.reflect.ClassFileAssembler::emitShort@10 (line 63)
                      ; - jdk.internal.reflect.ClassFileAssembler::emitConstantPoolMethodref@13 (line 139)
                      ; - jdk.internal.reflect.AccessorGenerator::emitBoxingContantPoolEntries@457 (line 297)
  0x000001e99a3ae658: e4c5 cafe | 488b b424 | 3801 0000 | 8b56 1c48 | 83fa 000f | 8429 0000 

  0x000001e99a3ae670: ;   {metadata('jdk/internal/reflect/ByteVectorImpl')}
  0x000001e99a3ae670: 0048 b8a0 | cd07 a1e9 | 0100 008b | 5a08 49ba | 0000 00a0 | e901 0000 | 4903 da48 | 3b43 380f 
  0x000001e99a3ae690: 85a8 6a00 | 00e9 0000 | 0000 4c8b | c248 3b02 | 8bbc 2440 | 0100 0081 | e7ff 0000 | 0040 0fbe 
  0x000001e99a3ae6b0: ff4c 8bc7 

  0x000001e99a3ae6b4: ;   {optimized virtual_call}
  0x000001e99a3ae6b4: 6666 90e8 

  0x000001e99a3ae6b8: ; ImmutableOopMap {[120]=Oop [312]=Oop }
                      ;*invokeinterface add {reexecute=0 rethrow=0 return_oop=0}
                      ; - jdk.internal.reflect.ClassFileAssembler::emitByte@5 (line 74)
                      ; - jdk.internal.reflect.ClassFileAssembler::emitShort@20 (line 64)
                      ; - jdk.internal.reflect.ClassFileAssembler::emitConstantPoolMethodref@13 (line 139)
                      ; - jdk.internal.reflect.AccessorGenerator::emitBoxingContantPoolEntries@457 (line 297)
  0x000001e99a3ae6b8: 84c5 cafe | 488b b424 | 3801 0000 | 440f bf46 | 1841 ffc0 | 6644 8946 | 1848 8b54 | 2478 8b72 
  0x000001e99a3ae6d8: 7044 0fbf | 4618 4183 | f800 0f84 | 1959 0000 | 41c1 e010 | 41c1 f810 | 6644 8942 

  0x000001e99a3ae6f4: ;   {oop("charValue"{0x00000000d467ff78})}
  0x000001e99a3ae6f4: 4849 b878 | ff67 d400 | 0000 0048 | 8bd6 0f1f 

  0x000001e99a3ae704: ;   {optimized virtual_call}
  0x000001e99a3ae704: 4400 00e8 

  0x000001e99a3ae708: ; ImmutableOopMap {[120]=Oop }
                      ;*invokevirtual emitConstantPoolUTF8 {reexecute=0 rethrow=0 return_oop=0}
                      ; - jdk.internal.reflect.AccessorGenerator::emitBoxingContantPoolEntries@477 (line 299)
  0x000001e99a3ae708: 94bc cffe | 488b 5424 | 788b 7270 

  0x000001e99a3ae714: ; implicit exception: dispatches to 0x000001e99a3b514c
                      ;   {oop("()C"{0x00000000d467ff48})}
  0x000001e99a3ae714: 483b 0649 | b848 ff67 | d400 0000 | 0048 8bd6 

  0x000001e99a3ae724: ;   {optimized virtual_call}
  0x000001e99a3ae724: 6666 90e8 

  0x000001e99a3ae728: ; ImmutableOopMap {[120]=Oop }
                      ;*invokevirtual emitConstantPoolUTF8 {reexecute=0 rethrow=0 return_oop=0}
                      ; - jdk.internal.reflect.AccessorGenerator::emitBoxingContantPoolEntries@486 (line 300)
  0x000001e99a3ae728: 74bc cffe | 488b 5424 | 788b 7270 | 4889 b424 | 4801 0000 

  0x000001e99a3ae73c: ; implicit exception: dispatches to 0x000001e99a3b5151
  0x000001e99a3ae73c: 440f bf46 | 1841 83f8 | 000f 8436 | 5800 0049 | 8bf8 c1e7 | 10c1 ff10 | 488b dfff | cb0f bfdb 
  0x000001e99a3ae75c: c1e3 10c1 | fb10 899c | 2444 0100 | 0041 83f8 | 000f 848e | 5700 0089 | bc24 5001 | 0000 8b46 
  0x000001e99a3ae77c: 1c48 83f8 | 000f 842a 

  0x000001e99a3ae784: ;   {metadata('jdk/internal/reflect/ByteVectorImpl')}
  0x000001e99a3ae784: 0000 0049 | bba0 cd07 | a1e9 0100 | 0044 8b48 | 0849 ba00 | 0000 a0e9 | 0100 004d | 03ca 4d3b 
  0x000001e99a3ae7a4: 5938 0f85 | aa69 0000 | e900 0000 | 004c 8bc0 

  0x000001e99a3ae7b4: ; implicit exception: dispatches to 0x000001e99a3b515b
  0x000001e99a3ae7b4: 483b 0041 | b80c 0000 | 0048 8bd0 | 0f1f 8000 

  0x000001e99a3ae7c4: ;   {optimized virtual_call}
  0x000001e99a3ae7c4: 0000 00e8 

  0x000001e99a3ae7c8: ; ImmutableOopMap {[120]=Oop [328]=Oop }
                      ;*invokeinterface add {reexecute=0 rethrow=0 return_oop=0}
                      ; - jdk.internal.reflect.ClassFileAssembler::emitByte@5 (line 74)
                      ; - jdk.internal.reflect.ClassFileAssembler::emitConstantPoolNameAndType@3 (line 119)
                      ; - jdk.internal.reflect.AccessorGenerator::emitBoxingContantPoolEntries@511 (line 301)
  0x000001e99a3ae7c8: 74c4 cafe | 488b b424 | 4801 0000 | 8b56 1c48 | 83fa 000f | 8429 0000 

  0x000001e99a3ae7e0: ;   {metadata('jdk/internal/reflect/ByteVectorImpl')}
  0x000001e99a3ae7e0: 0048 b8a0 | cd07 a1e9 | 0100 008b | 5a08 49ba | 0000 00a0 | e901 0000 | 4903 da48 | 3b43 380f 
  0x000001e99a3ae800: 855b 6900 | 00e9 0000 | 0000 4c8b | c248 3b02 | 8b9c 2444 | 0100 00c1 | fb08 81e3 | ff00 0000 
  0x000001e99a3ae820: 0fbe db4c 

  0x000001e99a3ae824: ;   {optimized virtual_call}
  0x000001e99a3ae824: 8bc3 90e8 

  0x000001e99a3ae828: ; ImmutableOopMap {[120]=Oop [328]=Oop }
                      ;*invokeinterface add {reexecute=0 rethrow=0 return_oop=0}
                      ; - jdk.internal.reflect.ClassFileAssembler::emitByte@5 (line 74)
                      ; - jdk.internal.reflect.ClassFileAssembler::emitShort@10 (line 63)
                      ; - jdk.internal.reflect.ClassFileAssembler::emitConstantPoolNameAndType@8 (line 120)
                      ; - jdk.internal.reflect.AccessorGenerator::emitBoxingContantPoolEntries@511 (line 301)
  0x000001e99a3ae828: 14c4 cafe | 488b b424 | 4801 0000 | 8b56 1c48 | 83fa 000f | 8429 0000 

  0x000001e99a3ae840: ;   {metadata('jdk/internal/reflect/ByteVectorImpl')}
  0x000001e99a3ae840: 0048 b8a0 | cd07 a1e9 | 0100 008b | 5a08 49ba | 0000 00a0 | e901 0000 | 4903 da48 | 3b43 380f 
  0x000001e99a3ae860: 8505 6900 | 00e9 0000 | 0000 4c8b | c248 3b02 | 8b9c 2444 | 0100 0081 | e3ff 0000 | 000f bedb 
  0x000001e99a3ae880: 4c8b c30f 

  0x000001e99a3ae884: ;   {optimized virtual_call}
  0x000001e99a3ae884: 1f40 00e8 

  0x000001e99a3ae888: ; ImmutableOopMap {[120]=Oop [328]=Oop }
                      ;*invokeinterface add {reexecute=0 rethrow=0 return_oop=0}
                      ; - jdk.internal.reflect.ClassFileAssembler::emitByte@5 (line 74)
                      ; - jdk.internal.reflect.ClassFileAssembler::emitShort@20 (line 64)
                      ; - jdk.internal.reflect.ClassFileAssembler::emitConstantPoolNameAndType@8 (line 120)
                      ; - jdk.internal.reflect.AccessorGenerator::emitBoxingContantPoolEntries@511 (line 301)
  0x000001e99a3ae888: b4c3 cafe | 488b b424 | 4801 0000 | 8b56 1c48 | 83fa 000f | 8429 0000 

  0x000001e99a3ae8a0: ;   {metadata('jdk/internal/reflect/ByteVectorImpl')}
  0x000001e99a3ae8a0: 0048 b8a0 | cd07 a1e9 | 0100 008b | 5a08 49ba | 0000 00a0 | e901 0000 | 4903 da48 | 3b43 380f 
  0x000001e99a3ae8c0: 85af 6800 | 00e9 0000 | 0000 4c8b | c248 3b02 | 8bbc 2450 | 0100 00c1 | ff08 81e7 | ff00 0000 
  0x000001e99a3ae8e0: 400f beff 

  0x000001e99a3ae8e4: ;   {optimized virtual_call}
  0x000001e99a3ae8e4: 4c8b c7e8 

  0x000001e99a3ae8e8: ; ImmutableOopMap {[120]=Oop [328]=Oop }
                      ;*invokeinterface add {reexecute=0 rethrow=0 return_oop=0}
                      ; - jdk.internal.reflect.ClassFileAssembler::emitByte@5 (line 74)
                      ; - jdk.internal.reflect.ClassFileAssembler::emitShort@10 (line 63)
                      ; - jdk.internal.reflect.ClassFileAssembler::emitConstantPoolNameAndType@13 (line 121)
                      ; - jdk.internal.reflect.AccessorGenerator::emitBoxingContantPoolEntries@511 (line 301)
  0x000001e99a3ae8e8: 54c3 cafe | 488b b424 | 4801 0000 | 8b56 1c48 | 83fa 000f | 8429 0000 

  0x000001e99a3ae900: ;   {metadata('jdk/internal/reflect/ByteVectorImpl')}
  0x000001e99a3ae900: 0048 b8a0 | cd07 a1e9 | 0100 008b | 5a08 49ba | 0000 00a0 | e901 0000 | 4903 da48 | 3b43 380f 
  0x000001e99a3ae920: 8559 6800 | 00e9 0000 | 0000 4c8b | c248 3b02 | 8bbc 2450 | 0100 0081 | e7ff 0000 | 0040 0fbe 
  0x000001e99a3ae940: ff4c 8bc7 

  0x000001e99a3ae944: ;   {optimized virtual_call}
  0x000001e99a3ae944: 6666 90e8 

  0x000001e99a3ae948: ; ImmutableOopMap {[120]=Oop [328]=Oop }
                      ;*invokeinterface add {reexecute=0 rethrow=0 return_oop=0}
                      ; - jdk.internal.reflect.ClassFileAssembler::emitByte@5 (line 74)
                      ; - jdk.internal.reflect.ClassFileAssembler::emitShort@20 (line 64)
                      ; - jdk.internal.reflect.ClassFileAssembler::emitConstantPoolNameAndType@13 (line 121)
                      ; - jdk.internal.reflect.AccessorGenerator::emitBoxingContantPoolEntries@511 (line 301)
  0x000001e99a3ae948: f4c2 cafe | 488b b424 | 4801 0000 | 440f bf46 | 1841 ffc0 | 6644 8946 | 1848 8b54 | 2478 8b72 
  0x000001e99a3ae968: 7048 89b4 | 2458 0100 | 0044 0fbf | 4618 4183 | f800 0f84 | 0155 0000 | 498b f8c1 | e710 c1ff 
  0x000001e99a3ae988: 1048 8bdf | 83eb 060f | bfdb c1e3 | 10c1 fb10 | 899c 2454 | 0100 0041 | 83f8 000f | 8458 5400 
  0x000001e99a3ae9a8: 0089 bc24 | 6001 0000 | 8b46 1c48 | 83f8 000f | 842a 0000 

  0x000001e99a3ae9bc: ;   {metadata('jdk/internal/reflect/ByteVectorImpl')}
  0x000001e99a3ae9bc: 0049 bba0 | cd07 a1e9 | 0100 0044 | 8b48 0849 | ba00 0000 | a0e9 0100 | 004d 03ca | 4d3b 5938 
  0x000001e99a3ae9dc: 0f85 ab67 | 0000 e900 | 0000 004c | 8bc0 483b | 0041 b80a | 0000 0048 

  0x000001e99a3ae9f4: ;   {optimized virtual_call}
  0x000001e99a3ae9f4: 8bd0 90e8 

  0x000001e99a3ae9f8: ; ImmutableOopMap {[344]=Oop [120]=Oop }
                      ;*invokeinterface add {reexecute=0 rethrow=0 return_oop=0}
                      ; - jdk.internal.reflect.ClassFileAssembler::emitByte@5 (line 74)
                      ; - jdk.internal.reflect.ClassFileAssembler::emitConstantPoolMethodref@3 (line 137)
                      ; - jdk.internal.reflect.AccessorGenerator::emitBoxingContantPoolEntries@537 (line 302)
  0x000001e99a3ae9f8: 44c2 cafe | 488b b424 | 5801 0000 | 8b56 1c48 | 83fa 000f | 8429 0000 

  0x000001e99a3aea10: ;   {metadata('jdk/internal/reflect/ByteVectorImpl')}
  0x000001e99a3aea10: 0048 b8a0 | cd07 a1e9 | 0100 008b | 5a08 49ba | 0000 00a0 | e901 0000 | 4903 da48 | 3b43 380f 
  0x000001e99a3aea30: 8562 6700 | 00e9 0000 | 0000 4c8b | c248 3b02 | 8b9c 2454 | 0100 00c1 | fb08 81e3 | ff00 0000 
  0x000001e99a3aea50: 0fbe db4c 

  0x000001e99a3aea54: ;   {optimized virtual_call}
  0x000001e99a3aea54: 8bc3 90e8 

  0x000001e99a3aea58: ; ImmutableOopMap {[120]=Oop [344]=Oop }
                      ;*invokeinterface add {reexecute=0 rethrow=0 return_oop=0}
                      ; - jdk.internal.reflect.ClassFileAssembler::emitByte@5 (line 74)
                      ; - jdk.internal.reflect.ClassFileAssembler::emitShort@10 (line 63)
                      ; - jdk.internal.reflect.ClassFileAssembler::emitConstantPoolMethodref@8 (line 138)
                      ; - jdk.internal.reflect.AccessorGenerator::emitBoxingContantPoolEntries@537 (line 302)
  0x000001e99a3aea58: e4c1 cafe | 488b b424 | 5801 0000 | 8b56 1c48 | 83fa 000f | 8429 0000 

  0x000001e99a3aea70: ;   {metadata('jdk/internal/reflect/ByteVectorImpl')}
  0x000001e99a3aea70: 0048 b8a0 | cd07 a1e9 | 0100 008b | 5a08 49ba | 0000 00a0 | e901 0000 | 4903 da48 | 3b43 380f 
  0x000001e99a3aea90: 850c 6700 | 00e9 0000 | 0000 4c8b | c248 3b02 | 8b9c 2454 | 0100 0081 | e3ff 0000 | 000f bedb 
  0x000001e99a3aeab0: 4c8b c30f 

  0x000001e99a3aeab4: ;   {optimized virtual_call}
  0x000001e99a3aeab4: 1f40 00e8 

  0x000001e99a3aeab8: ; ImmutableOopMap {[120]=Oop [344]=Oop }
                      ;*invokeinterface add {reexecute=0 rethrow=0 return_oop=0}
                      ; - jdk.internal.reflect.ClassFileAssembler::emitByte@5 (line 74)
                      ; - jdk.internal.reflect.ClassFileAssembler::emitShort@20 (line 64)
                      ; - jdk.internal.reflect.ClassFileAssembler::emitConstantPoolMethodref@8 (line 138)
                      ; - jdk.internal.reflect.AccessorGenerator::emitBoxingContantPoolEntries@537 (line 302)
  0x000001e99a3aeab8: 84c1 cafe | 488b b424 | 5801 0000 | 8b56 1c48 | 83fa 000f | 8429 0000 

  0x000001e99a3aead0: ;   {metadata('jdk/internal/reflect/ByteVectorImpl')}
  0x000001e99a3aead0: 0048 b8a0 | cd07 a1e9 | 0100 008b | 5a08 49ba | 0000 00a0 | e901 0000 | 4903 da48 | 3b43 380f 
  0x000001e99a3aeaf0: 85b6 6600 | 00e9 0000 | 0000 4c8b | c248 3b02 | 8bbc 2460 | 0100 00c1 | ff08 81e7 | ff00 0000 
  0x000001e99a3aeb10: 400f beff 

  0x000001e99a3aeb14: ;   {optimized virtual_call}
  0x000001e99a3aeb14: 4c8b c7e8 

  0x000001e99a3aeb18: ; ImmutableOopMap {[120]=Oop [344]=Oop }
                      ;*invokeinterface add {reexecute=0 rethrow=0 return_oop=0}
                      ; - jdk.internal.reflect.ClassFileAssembler::emitByte@5 (line 74)
                      ; - jdk.internal.reflect.ClassFileAssembler::emitShort@10 (line 63)
                      ; - jdk.internal.reflect.ClassFileAssembler::emitConstantPoolMethodref@13 (line 139)
                      ; - jdk.internal.reflect.AccessorGenerator::emitBoxingContantPoolEntries@537 (line 302)
  0x000001e99a3aeb18: 24c1 cafe | 488b b424 | 5801 0000 | 8b56 1c48 | 83fa 000f | 8429 0000 

  0x000001e99a3aeb30: ;   {metadata('jdk/internal/reflect/ByteVectorImpl')}
  0x000001e99a3aeb30: 0048 b8a0 | cd07 a1e9 | 0100 008b | 5a08 49ba | 0000 00a0 | e901 0000 | 4903 da48 | 3b43 380f 
  0x000001e99a3aeb50: 8560 6600 | 00e9 0000 | 0000 4c8b | c248 3b02 | 8bbc 2460 | 0100 0081 | e7ff 0000 | 0040 0fbe 
  0x000001e99a3aeb70: ff4c 8bc7 

  0x000001e99a3aeb74: ;   {optimized virtual_call}
  0x000001e99a3aeb74: 6666 90e8 

  0x000001e99a3aeb78: ; ImmutableOopMap {[120]=Oop [344]=Oop }
                      ;*invokeinterface add {reexecute=0 rethrow=0 return_oop=0}
                      ; - jdk.internal.reflect.ClassFileAssembler::emitByte@5 (line 74)
                      ; - jdk.internal.reflect.ClassFileAssembler::emitShort@20 (line 64)
                      ; - jdk.internal.reflect.ClassFileAssembler::emitConstantPoolMethodref@13 (line 139)
                      ; - jdk.internal.reflect.AccessorGenerator::emitBoxingContantPoolEntries@537 (line 302)
  0x000001e99a3aeb78: c4c0 cafe | 488b b424 | 5801 0000 | 440f bf46 | 1841 ffc0 | 6644 8946 | 1848 8b54 | 2478 8b72 
  0x000001e99a3aeb98: 7044 0fbf | 4618 4183 | f800 0f84 | d951 0000 | 41c1 e010 | 41c1 f810 | 6644 8942 

  0x000001e99a3aebb4: ;   {oop("java/lang/Double"{0x00000000d467ff10})}
  0x000001e99a3aebb4: 4a49 b810 | ff67 d400 | 0000 0048 | 8bd6 0f1f 

  0x000001e99a3aebc4: ;   {optimized virtual_call}
  0x000001e99a3aebc4: 4400 00e8 

  0x000001e99a3aebc8: ; ImmutableOopMap {[120]=Oop }
                      ;*invokevirtual emitConstantPoolUTF8 {reexecute=0 rethrow=0 return_oop=0}
                      ; - jdk.internal.reflect.AccessorGenerator::emitBoxingContantPoolEntries@557 (line 306)
  0x000001e99a3aebc8: d4b7 cffe | 488b 5424 | 788b 7270 | 4889 b424 | 6801 0000 

  0x000001e99a3aebdc: ; implicit exception: dispatches to 0x000001e99a3b51c4
  0x000001e99a3aebdc: 440f bf46 | 1841 83f8 | 000f 8416 | 5100 008b | 7e1c 41c1 | e010 41c1 | f810 4883 | ff00 0f84 
  0x000001e99a3aebfc: 2900 0000 

  0x000001e99a3aec00: ;   {metadata('jdk/internal/reflect/ByteVectorImpl')}
  0x000001e99a3aec00: 49b9 a0cd | 07a1 e901 | 0000 8b4f | 0849 ba00 | 0000 a0e9 | 0100 0049 | 03ca 4c3b | 4938 0f85 
  0x000001e99a3aec20: a565 0000 | e900 0000 | 0048 8bdf 

  0x000001e99a3aec2c: ; implicit exception: dispatches to 0x000001e99a3b51ce
  0x000001e99a3aec2c: 483b 0744 | 8984 2464 | 0100 0041 | b807 0000 | 0048 8bd7 | 0f1f 8000 

  0x000001e99a3aec44: ;   {optimized virtual_call}
  0x000001e99a3aec44: 0000 00e8 

  0x000001e99a3aec48: ; ImmutableOopMap {[360]=Oop [120]=Oop }
                      ;*invokeinterface add {reexecute=0 rethrow=0 return_oop=0}
                      ; - jdk.internal.reflect.ClassFileAssembler::emitByte@5 (line 74)
                      ; - jdk.internal.reflect.ClassFileAssembler::emitConstantPoolClass@3 (line 113)
                      ; - jdk.internal.reflect.AccessorGenerator::emitBoxingContantPoolEntries@571 (line 307)
  0x000001e99a3aec48: f4bf cafe | 488b b424 | 6801 0000 | 8b56 1c48 | 83fa 000f | 8429 0000 

  0x000001e99a3aec60: ;   {metadata('jdk/internal/reflect/ByteVectorImpl')}
  0x000001e99a3aec60: 0048 b8a0 | cd07 a1e9 | 0100 008b | 5a08 49ba | 0000 00a0 | e901 0000 | 4903 da48 | 3b43 380f 
  0x000001e99a3aec80: 854e 6500 | 00e9 0000 | 0000 4c8b | c248 3b02 | 448b 8424 | 6401 0000 | 41c1 f808 | 4181 e0ff 
  0x000001e99a3aeca0: 0000 0045 

  0x000001e99a3aeca4: ;   {optimized virtual_call}
  0x000001e99a3aeca4: 0fbe c0e8 

  0x000001e99a3aeca8: ; ImmutableOopMap {[120]=Oop [360]=Oop }
                      ;*invokeinterface add {reexecute=0 rethrow=0 return_oop=0}
                      ; - jdk.internal.reflect.ClassFileAssembler::emitByte@5 (line 74)
                      ; - jdk.internal.reflect.ClassFileAssembler::emitShort@10 (line 63)
                      ; - jdk.internal.reflect.ClassFileAssembler::emitConstantPoolClass@8 (line 114)
                      ; - jdk.internal.reflect.AccessorGenerator::emitBoxingContantPoolEntries@571 (line 307)
  0x000001e99a3aeca8: 94bf cafe | 488b b424 | 6801 0000 | 8b56 1c48 | 83fa 000f | 8429 0000 

  0x000001e99a3aecc0: ;   {metadata('jdk/internal/reflect/ByteVectorImpl')}
  0x000001e99a3aecc0: 0048 b8a0 | cd07 a1e9 | 0100 008b | 5a08 49ba | 0000 00a0 | e901 0000 | 4903 da48 | 3b43 380f 
  0x000001e99a3aece0: 85f8 6400 | 00e9 0000 | 0000 4c8b | c248 3b02 | 448b 8424 | 6401 0000 | 4181 e0ff | 0000 0045 
  0x000001e99a3aed00: 0fbe c00f 

  0x000001e99a3aed04: ;   {optimized virtual_call}
  0x000001e99a3aed04: 1f40 00e8 

  0x000001e99a3aed08: ; ImmutableOopMap {[120]=Oop [360]=Oop }
                      ;*invokeinterface add {reexecute=0 rethrow=0 return_oop=0}
                      ; - jdk.internal.reflect.ClassFileAssembler::emitByte@5 (line 74)
                      ; - jdk.internal.reflect.ClassFileAssembler::emitShort@20 (line 64)
                      ; - jdk.internal.reflect.ClassFileAssembler::emitConstantPoolClass@8 (line 114)
                      ; - jdk.internal.reflect.AccessorGenerator::emitBoxingContantPoolEntries@571 (line 307)
  0x000001e99a3aed08: 34bf cafe | 488b b424 | 6801 0000 | 440f bf46 | 1841 ffc0 | 6644 8946 | 1848 8b54 | 2478 8b72 
  0x000001e99a3aed28: 7044 0fbf | 4618 4183 | f800 0f84 | 494f 0000 | 41c1 e010 | 41c1 f810 | 6644 8942 

  0x000001e99a3aed44: ;   {oop("(D)Ljava/lang/Double;"{0x00000000d467fed0})}
  0x000001e99a3aed44: 4c49 b8d0 | fe67 d400 | 0000 0048 | 8bd6 0f1f 

  0x000001e99a3aed54: ;   {optimized virtual_call}
  0x000001e99a3aed54: 4400 00e8 

  0x000001e99a3aed58: ; ImmutableOopMap {[120]=Oop }
                      ;*invokevirtual emitConstantPoolUTF8 {reexecute=0 rethrow=0 return_oop=0}
                      ; - jdk.internal.reflect.AccessorGenerator::emitBoxingContantPoolEntries@591 (line 309)
  0x000001e99a3aed58: 44b6 cffe | 488b 5424 | 788b 7270 | 4889 b424 | 7001 0000 | 0fbf 7a38 | 89bc 2478 | 0100 0044 
  0x000001e99a3aed78: 0fbf 4618 | 4183 f800 | 0f84 7b4e | 0000 8b5e | 1c41 c1e0 | 1041 c1f8 | 1048 83fb | 000f 842a 
  0x000001e99a3aed98: ;   {metadata('jdk/internal/reflect/ByteVectorImpl')}
  0x000001e99a3aed98: 0000 0049 | bba0 cd07 | a1e9 0100 | 0044 8b4b | 0849 ba00 | 0000 a0e9 | 0100 004d | 03ca 4d3b 
  0x000001e99a3aedb8: 5938 0f85 | 3164 0000 | e900 0000 | 0048 8bc3 

  0x000001e99a3aedc8: ; implicit exception: dispatches to 0x000001e99a3b51f6
  0x000001e99a3aedc8: 483b 0344 | 8984 247c | 0100 0041 | b80c 0000 | 0048 8bd3 

  0x000001e99a3aeddc: ;   {optimized virtual_call}
  0x000001e99a3aeddc: 6666 90e8 

  0x000001e99a3aede0: ; ImmutableOopMap {[368]=Oop [120]=Oop }
                      ;*invokeinterface add {reexecute=0 rethrow=0 return_oop=0}
                      ; - jdk.internal.reflect.ClassFileAssembler::emitByte@5 (line 74)
                      ; - jdk.internal.reflect.ClassFileAssembler::emitConstantPoolNameAndType@3 (line 119)
                      ; - jdk.internal.reflect.AccessorGenerator::emitBoxingContantPoolEntries@609 (line 310)
  0x000001e99a3aede0: 5cbe cafe | 488b b424 | 7001 0000 | 8b56 1c48 | 83fa 000f | 8429 0000 

  0x000001e99a3aedf8: ;   {metadata('jdk/internal/reflect/ByteVectorImpl')}
  0x000001e99a3aedf8: 0048 b8a0 | cd07 a1e9 | 0100 008b | 5a08 49ba | 0000 00a0 | e901 0000 | 4903 da48 | 3b43 380f 
  0x000001e99a3aee18: 85de 6300 | 00e9 0000 | 0000 4c8b | c248 3b02 | 8bbc 2478 | 0100 00c1 | ff08 81e7 | ff00 0000 
  0x000001e99a3aee38: 400f beff 

  0x000001e99a3aee3c: ;   {optimized virtual_call}
  0x000001e99a3aee3c: 4c8b c7e8 

  0x000001e99a3aee40: ; ImmutableOopMap {[120]=Oop [368]=Oop }
                      ;*invokeinterface add {reexecute=0 rethrow=0 return_oop=0}
                      ; - jdk.internal.reflect.ClassFileAssembler::emitByte@5 (line 74)
                      ; - jdk.internal.reflect.ClassFileAssembler::emitShort@10 (line 63)
                      ; - jdk.internal.reflect.ClassFileAssembler::emitConstantPoolNameAndType@8 (line 120)
                      ; - jdk.internal.reflect.AccessorGenerator::emitBoxingContantPoolEntries@609 (line 310)
  0x000001e99a3aee40: fcbd cafe | 488b b424 | 7001 0000 | 8b56 1c48 | 83fa 000f | 8429 0000 

  0x000001e99a3aee58: ;   {metadata('jdk/internal/reflect/ByteVectorImpl')}
  0x000001e99a3aee58: 0048 b8a0 | cd07 a1e9 | 0100 008b | 5a08 49ba | 0000 00a0 | e901 0000 | 4903 da48 | 3b43 380f 
  0x000001e99a3aee78: 8588 6300 | 00e9 0000 | 0000 4c8b | c248 3b02 | 8bbc 2478 | 0100 0081 | e7ff 0000 | 0040 0fbe 
  0x000001e99a3aee98: ff4c 8bc7 

  0x000001e99a3aee9c: ;   {optimized virtual_call}
  0x000001e99a3aee9c: 6666 90e8 

  0x000001e99a3aeea0: ; ImmutableOopMap {[120]=Oop [368]=Oop }
                      ;*invokeinterface add {reexecute=0 rethrow=0 return_oop=0}
                      ; - jdk.internal.reflect.ClassFileAssembler::emitByte@5 (line 74)
                      ; - jdk.internal.reflect.ClassFileAssembler::emitShort@20 (line 64)
                      ; - jdk.internal.reflect.ClassFileAssembler::emitConstantPoolNameAndType@8 (line 120)
                      ; - jdk.internal.reflect.AccessorGenerator::emitBoxingContantPoolEntries@609 (line 310)
  0x000001e99a3aeea0: 9cbd cafe | 488b b424 | 7001 0000 | 8b56 1c48 | 83fa 000f | 8429 0000 

  0x000001e99a3aeeb8: ;   {metadata('jdk/internal/reflect/ByteVectorImpl')}
  0x000001e99a3aeeb8: 0048 b8a0 | cd07 a1e9 | 0100 008b | 5a08 49ba | 0000 00a0 | e901 0000 | 4903 da48 | 3b43 380f 
  0x000001e99a3aeed8: 8532 6300 | 00e9 0000 | 0000 4c8b | c248 3b02 | 448b 8424 | 7c01 0000 | 41c1 f808 | 4181 e0ff 
  0x000001e99a3aeef8: 0000 0045 

  0x000001e99a3aeefc: ;   {optimized virtual_call}
  0x000001e99a3aeefc: 0fbe c0e8 

  0x000001e99a3aef00: ; ImmutableOopMap {[120]=Oop [368]=Oop }
                      ;*invokeinterface add {reexecute=0 rethrow=0 return_oop=0}
                      ; - jdk.internal.reflect.ClassFileAssembler::emitByte@5 (line 74)
                      ; - jdk.internal.reflect.ClassFileAssembler::emitShort@10 (line 63)
                      ; - jdk.internal.reflect.ClassFileAssembler::emitConstantPoolNameAndType@13 (line 121)
                      ; - jdk.internal.reflect.AccessorGenerator::emitBoxingContantPoolEntries@609 (line 310)
  0x000001e99a3aef00: 3cbd cafe | 488b b424 | 7001 0000 | 8b56 1c48 | 83fa 000f | 8429 0000 

  0x000001e99a3aef18: ;   {metadata('jdk/internal/reflect/ByteVectorImpl')}
  0x000001e99a3aef18: 0048 b8a0 | cd07 a1e9 | 0100 008b | 5a08 49ba | 0000 00a0 | e901 0000 | 4903 da48 | 3b43 380f 
  0x000001e99a3aef38: 85dc 6200 | 00e9 0000 | 0000 4c8b | c248 3b02 | 448b 8424 | 7c01 0000 | 4181 e0ff | 0000 0045 
  0x000001e99a3aef58: 0fbe c00f 

  0x000001e99a3aef5c: ;   {optimized virtual_call}
  0x000001e99a3aef5c: 1f40 00e8 

  0x000001e99a3aef60: ; ImmutableOopMap {[120]=Oop [368]=Oop }
                      ;*invokeinterface add {reexecute=0 rethrow=0 return_oop=0}
                      ; - jdk.internal.reflect.ClassFileAssembler::emitByte@5 (line 74)
                      ; - jdk.internal.reflect.ClassFileAssembler::emitShort@20 (line 64)
                      ; - jdk.internal.reflect.ClassFileAssembler::emitConstantPoolNameAndType@13 (line 121)
                      ; - jdk.internal.reflect.AccessorGenerator::emitBoxingContantPoolEntries@609 (line 310)
  0x000001e99a3aef60: dcbc cafe | 488b b424 | 7001 0000 | 440f bf46 | 1841 ffc0 | 6644 8946 | 1848 8b54 | 2478 8b72 
  0x000001e99a3aef80: 7048 89b4 | 2480 0100 | 0044 0fbf | 4618 4183 | f800 0f84 | e94b 0000 | 498b f8c1 | e710 c1ff 
  0x000001e99a3aefa0: 1048 8bdf | 83eb 020f | bfdb c1e3 | 10c1 fb10 | 899c 2488 | 0100 0041 | 83f8 000f | 8440 4b00 
  0x000001e99a3aefc0: 0089 bc24 | 8c01 0000 | 8b46 1c48 | 83f8 000f | 842a 0000 

  0x000001e99a3aefd4: ;   {metadata('jdk/internal/reflect/ByteVectorImpl')}
  0x000001e99a3aefd4: 0049 bba0 | cd07 a1e9 | 0100 0044 | 8b48 0849 | ba00 0000 | a0e9 0100 | 004d 03ca | 4d3b 5938 
  0x000001e99a3aeff4: 0f85 2e62 | 0000 e900 | 0000 004c | 8bc0 483b | 0041 b80a | 0000 0048 

  0x000001e99a3af00c: ;   {optimized virtual_call}
  0x000001e99a3af00c: 8bd0 90e8 

  0x000001e99a3af010: ; ImmutableOopMap {[120]=Oop [384]=Oop }
                      ;*invokeinterface add {reexecute=0 rethrow=0 return_oop=0}
                      ; - jdk.internal.reflect.ClassFileAssembler::emitByte@5 (line 74)
                      ; - jdk.internal.reflect.ClassFileAssembler::emitConstantPoolMethodref@3 (line 137)
                      ; - jdk.internal.reflect.AccessorGenerator::emitBoxingContantPoolEntries@634 (line 311)
  0x000001e99a3af010: 2cbc cafe | 488b b424 | 8001 0000 | 8b56 1c48 | 83fa 000f | 8429 0000 

  0x000001e99a3af028: ;   {metadata('jdk/internal/reflect/ByteVectorImpl')}
  0x000001e99a3af028: 0048 b8a0 | cd07 a1e9 | 0100 008b | 5a08 49ba | 0000 00a0 | e901 0000 | 4903 da48 | 3b43 380f 
  0x000001e99a3af048: 85e5 6100 | 00e9 0000 | 0000 4c8b | c248 3b02 | 8b9c 2488 | 0100 00c1 | fb08 81e3 | ff00 0000 
  0x000001e99a3af068: 0fbe db4c 

  0x000001e99a3af06c: ;   {optimized virtual_call}
  0x000001e99a3af06c: 8bc3 90e8 

  0x000001e99a3af070: ; ImmutableOopMap {[120]=Oop [384]=Oop }
                      ;*invokeinterface add {reexecute=0 rethrow=0 return_oop=0}
                      ; - jdk.internal.reflect.ClassFileAssembler::emitByte@5 (line 74)
                      ; - jdk.internal.reflect.ClassFileAssembler::emitShort@10 (line 63)
                      ; - jdk.internal.reflect.ClassFileAssembler::emitConstantPoolMethodref@8 (line 138)
                      ; - jdk.internal.reflect.AccessorGenerator::emitBoxingContantPoolEntries@634 (line 311)
  0x000001e99a3af070: ccbb cafe | 488b b424 | 8001 0000 | 8b56 1c48 | 83fa 000f | 8429 0000 

  0x000001e99a3af088: ;   {metadata('jdk/internal/reflect/ByteVectorImpl')}
  0x000001e99a3af088: 0048 b8a0 | cd07 a1e9 | 0100 008b | 5a08 49ba | 0000 00a0 | e901 0000 | 4903 da48 | 3b43 380f 
  0x000001e99a3af0a8: 858f 6100 | 00e9 0000 | 0000 4c8b | c248 3b02 | 8b9c 2488 | 0100 0081 | e3ff 0000 | 000f bedb 
  0x000001e99a3af0c8: 4c8b c30f 

  0x000001e99a3af0cc: ;   {optimized virtual_call}
  0x000001e99a3af0cc: 1f40 00e8 

  0x000001e99a3af0d0: ; ImmutableOopMap {[120]=Oop [384]=Oop }
                      ;*invokeinterface add {reexecute=0 rethrow=0 return_oop=0}
                      ; - jdk.internal.reflect.ClassFileAssembler::emitByte@5 (line 74)
                      ; - jdk.internal.reflect.ClassFileAssembler::emitShort@20 (line 64)
                      ; - jdk.internal.reflect.ClassFileAssembler::emitConstantPoolMethodref@8 (line 138)
                      ; - jdk.internal.reflect.AccessorGenerator::emitBoxingContantPoolEntries@634 (line 311)
  0x000001e99a3af0d0: 6cbb cafe | 488b b424 | 8001 0000 | 8b56 1c48 | 83fa 000f | 8429 0000 

  0x000001e99a3af0e8: ;   {metadata('jdk/internal/reflect/ByteVectorImpl')}
  0x000001e99a3af0e8: 0048 b8a0 | cd07 a1e9 | 0100 008b | 5a08 49ba | 0000 00a0 | e901 0000 | 4903 da48 | 3b43 380f 
  0x000001e99a3af108: 8539 6100 | 00e9 0000 | 0000 4c8b | c248 3b02 | 8bbc 248c | 0100 00c1 | ff08 81e7 | ff00 0000 
  0x000001e99a3af128: 400f beff 

  0x000001e99a3af12c: ;   {optimized virtual_call}
  0x000001e99a3af12c: 4c8b c7e8 

  0x000001e99a3af130: ; ImmutableOopMap {[120]=Oop [384]=Oop }
                      ;*invokeinterface add {reexecute=0 rethrow=0 return_oop=0}
                      ; - jdk.internal.reflect.ClassFileAssembler::emitByte@5 (line 74)
                      ; - jdk.internal.reflect.ClassFileAssembler::emitShort@10 (line 63)
                      ; - jdk.internal.reflect.ClassFileAssembler::emitConstantPoolMethodref@13 (line 139)
                      ; - jdk.internal.reflect.AccessorGenerator::emitBoxingContantPoolEntries@634 (line 311)
  0x000001e99a3af130: 0cbb cafe | 488b b424 | 8001 0000 | 8b56 1c48 | 83fa 000f | 8429 0000 

  0x000001e99a3af148: ;   {metadata('jdk/internal/reflect/ByteVectorImpl')}
  0x000001e99a3af148: 0048 b8a0 | cd07 a1e9 | 0100 008b | 5a08 49ba | 0000 00a0 | e901 0000 | 4903 da48 | 3b43 380f 
  0x000001e99a3af168: 85e3 6000 | 00e9 0000 | 0000 4c8b | c248 3b02 | 8bbc 248c | 0100 0081 | e7ff 0000 | 0040 0fbe 
  0x000001e99a3af188: ff4c 8bc7 

  0x000001e99a3af18c: ;   {optimized virtual_call}
  0x000001e99a3af18c: 6666 90e8 

  0x000001e99a3af190: ; ImmutableOopMap {[120]=Oop [384]=Oop }
                      ;*invokeinterface add {reexecute=0 rethrow=0 return_oop=0}
                      ; - jdk.internal.reflect.ClassFileAssembler::emitByte@5 (line 74)
                      ; - jdk.internal.reflect.ClassFileAssembler::emitShort@20 (line 64)
                      ; - jdk.internal.reflect.ClassFileAssembler::emitConstantPoolMethodref@13 (line 139)
                      ; - jdk.internal.reflect.AccessorGenerator::emitBoxingContantPoolEntries@634 (line 311)
  0x000001e99a3af190: acba cafe | 488b b424 | 8001 0000 | 440f bf46 | 1841 ffc0 | 6644 8946 | 1848 8b54 | 2478 8b72 
  0x000001e99a3af1b0: 7044 0fbf | 4618 4183 | f800 0f84 | c148 0000 | 41c1 e010 | 41c1 f810 | 6644 8942 

  0x000001e99a3af1cc: ;   {oop("doubleValue"{0x00000000d467fe98})}
  0x000001e99a3af1cc: 4e49 b898 | fe67 d400 | 0000 0048 | 8bd6 0f1f 

  0x000001e99a3af1dc: ;   {optimized virtual_call}
  0x000001e99a3af1dc: 4400 00e8 

  0x000001e99a3af1e0: ; ImmutableOopMap {[120]=Oop }
                      ;*invokevirtual emitConstantPoolUTF8 {reexecute=0 rethrow=0 return_oop=0}
                      ; - jdk.internal.reflect.AccessorGenerator::emitBoxingContantPoolEntries@654 (line 313)
  0x000001e99a3af1e0: bcb1 cffe | 488b 5424 | 788b 7270 

  0x000001e99a3af1ec: ; implicit exception: dispatches to 0x000001e99a3b525f
                      ;   {oop("()D"{0x00000000d467fe68})}
  0x000001e99a3af1ec: 483b 0649 | b868 fe67 | d400 0000 | 0048 8bd6 

  0x000001e99a3af1fc: ;   {optimized virtual_call}
  0x000001e99a3af1fc: 6666 90e8 

  0x000001e99a3af200: ; ImmutableOopMap {[120]=Oop }
                      ;*invokevirtual emitConstantPoolUTF8 {reexecute=0 rethrow=0 return_oop=0}
                      ; - jdk.internal.reflect.AccessorGenerator::emitBoxingContantPoolEntries@663 (line 314)
  0x000001e99a3af200: 9cb1 cffe | 488b 5424 | 788b 7270 | 4889 b424 | 9001 0000 

  0x000001e99a3af214: ; implicit exception: dispatches to 0x000001e99a3b5264
  0x000001e99a3af214: 440f bf46 | 1841 83f8 | 000f 84de | 4700 0049 | 8bf8 c1e7 | 10c1 ff10 | 488b dfff | cb0f bfdb 
  0x000001e99a3af234: c1e3 10c1 | fb10 899c | 2498 0100 | 0041 83f8 | 000f 8436 | 4700 0089 | bc24 9c01 | 0000 8b46 
  0x000001e99a3af254: 1c48 83f8 | 000f 842a 

  0x000001e99a3af25c: ;   {metadata('jdk/internal/reflect/ByteVectorImpl')}
  0x000001e99a3af25c: 0000 0049 | bba0 cd07 | a1e9 0100 | 0044 8b48 | 0849 ba00 | 0000 a0e9 | 0100 004d | 03ca 4d3b 
  0x000001e99a3af27c: 5938 0f85 | e55f 0000 | e900 0000 | 004c 8bc0 

  0x000001e99a3af28c: ; implicit exception: dispatches to 0x000001e99a3b526e
  0x000001e99a3af28c: 483b 0041 | b80c 0000 | 0048 8bd0 | 0f1f 8000 

  0x000001e99a3af29c: ;   {optimized virtual_call}
  0x000001e99a3af29c: 0000 00e8 

  0x000001e99a3af2a0: ; ImmutableOopMap {[400]=Oop [120]=Oop }
                      ;*invokeinterface add {reexecute=0 rethrow=0 return_oop=0}
                      ; - jdk.internal.reflect.ClassFileAssembler::emitByte@5 (line 74)
                      ; - jdk.internal.reflect.ClassFileAssembler::emitConstantPoolNameAndType@3 (line 119)
                      ; - jdk.internal.reflect.AccessorGenerator::emitBoxingContantPoolEntries@688 (line 315)
  0x000001e99a3af2a0: 9cb9 cafe | 488b b424 | 9001 0000 | 8b56 1c48 | 83fa 000f | 8429 0000 

  0x000001e99a3af2b8: ;   {metadata('jdk/internal/reflect/ByteVectorImpl')}
  0x000001e99a3af2b8: 0048 b8a0 | cd07 a1e9 | 0100 008b | 5a08 49ba | 0000 00a0 | e901 0000 | 4903 da48 | 3b43 380f 
  0x000001e99a3af2d8: 8596 5f00 | 00e9 0000 | 0000 4c8b | c248 3b02 | 8b9c 2498 | 0100 00c1 | fb08 81e3 | ff00 0000 
  0x000001e99a3af2f8: 0fbe db4c 

  0x000001e99a3af2fc: ;   {optimized virtual_call}
  0x000001e99a3af2fc: 8bc3 90e8 

  0x000001e99a3af300: ; ImmutableOopMap {[120]=Oop [400]=Oop }
                      ;*invokeinterface add {reexecute=0 rethrow=0 return_oop=0}
                      ; - jdk.internal.reflect.ClassFileAssembler::emitByte@5 (line 74)
                      ; - jdk.internal.reflect.ClassFileAssembler::emitShort@10 (line 63)
                      ; - jdk.internal.reflect.ClassFileAssembler::emitConstantPoolNameAndType@8 (line 120)
                      ; - jdk.internal.reflect.AccessorGenerator::emitBoxingContantPoolEntries@688 (line 315)
  0x000001e99a3af300: 3cb9 cafe | 488b b424 | 9001 0000 | 8b56 1c48 | 83fa 000f | 8429 0000 

  0x000001e99a3af318: ;   {metadata('jdk/internal/reflect/ByteVectorImpl')}
  0x000001e99a3af318: 0048 b8a0 | cd07 a1e9 | 0100 008b | 5a08 49ba | 0000 00a0 | e901 0000 | 4903 da48 | 3b43 380f 
  0x000001e99a3af338: 8540 5f00 | 00e9 0000 | 0000 4c8b | c248 3b02 | 8b9c 2498 | 0100 0081 | e3ff 0000 | 000f bedb 
  0x000001e99a3af358: 4c8b c30f 

  0x000001e99a3af35c: ;   {optimized virtual_call}
  0x000001e99a3af35c: 1f40 00e8 

  0x000001e99a3af360: ; ImmutableOopMap {[120]=Oop [400]=Oop }
                      ;*invokeinterface add {reexecute=0 rethrow=0 return_oop=0}
                      ; - jdk.internal.reflect.ClassFileAssembler::emitByte@5 (line 74)
                      ; - jdk.internal.reflect.ClassFileAssembler::emitShort@20 (line 64)
                      ; - jdk.internal.reflect.ClassFileAssembler::emitConstantPoolNameAndType@8 (line 120)
                      ; - jdk.internal.reflect.AccessorGenerator::emitBoxingContantPoolEntries@688 (line 315)
  0x000001e99a3af360: dcb8 cafe | 488b b424 | 9001 0000 | 8b56 1c48 | 83fa 000f | 8429 0000 

  0x000001e99a3af378: ;   {metadata('jdk/internal/reflect/ByteVectorImpl')}
  0x000001e99a3af378: 0048 b8a0 | cd07 a1e9 | 0100 008b | 5a08 49ba | 0000 00a0 | e901 0000 | 4903 da48 | 3b43 380f 
  0x000001e99a3af398: 85ea 5e00 | 00e9 0000 | 0000 4c8b | c248 3b02 | 8bbc 249c | 0100 00c1 | ff08 81e7 | ff00 0000 
  0x000001e99a3af3b8: 400f beff 

  0x000001e99a3af3bc: ;   {optimized virtual_call}
  0x000001e99a3af3bc: 4c8b c7e8 

  0x000001e99a3af3c0: ; ImmutableOopMap {[120]=Oop [400]=Oop }
                      ;*invokeinterface add {reexecute=0 rethrow=0 return_oop=0}
                      ; - jdk.internal.reflect.ClassFileAssembler::emitByte@5 (line 74)
                      ; - jdk.internal.reflect.ClassFileAssembler::emitShort@10 (line 63)
                      ; - jdk.internal.reflect.ClassFileAssembler::emitConstantPoolNameAndType@13 (line 121)
                      ; - jdk.internal.reflect.AccessorGenerator::emitBoxingContantPoolEntries@688 (line 315)
  0x000001e99a3af3c0: 7cb8 cafe | 488b b424 | 9001 0000 | 8b56 1c48 | 83fa 000f | 8429 0000 

  0x000001e99a3af3d8: ;   {metadata('jdk/internal/reflect/ByteVectorImpl')}
  0x000001e99a3af3d8: 0048 b8a0 | cd07 a1e9 | 0100 008b | 5a08 49ba | 0000 00a0 | e901 0000 | 4903 da48 | 3b43 380f 
  0x000001e99a3af3f8: 8594 5e00 | 00e9 0000 | 0000 4c8b | c248 3b02 | 8bbc 249c | 0100 0081 | e7ff 0000 | 0040 0fbe 
  0x000001e99a3af418: ff4c 8bc7 

  0x000001e99a3af41c: ;   {optimized virtual_call}
  0x000001e99a3af41c: 6666 90e8 

  0x000001e99a3af420: ; ImmutableOopMap {[120]=Oop [400]=Oop }
                      ;*invokeinterface add {reexecute=0 rethrow=0 return_oop=0}
                      ; - jdk.internal.reflect.ClassFileAssembler::emitByte@5 (line 74)
                      ; - jdk.internal.reflect.ClassFileAssembler::emitShort@20 (line 64)
                      ; - jdk.internal.reflect.ClassFileAssembler::emitConstantPoolNameAndType@13 (line 121)
                      ; - jdk.internal.reflect.AccessorGenerator::emitBoxingContantPoolEntries@688 (line 315)
  0x000001e99a3af420: 1cb8 cafe | 488b b424 | 9001 0000 | 440f bf46 | 1841 ffc0 | 6644 8946 | 1848 8b54 | 2478 8b72 
  0x000001e99a3af440: 7048 89b4 | 24a0 0100 | 0044 0fbf | 4618 4183 | f800 0f84 | a944 0000 | 498b f8c1 | e710 c1ff 
  0x000001e99a3af460: 1048 8bdf | 83eb 060f | bfdb c1e3 | 10c1 fb10 | 899c 24a8 | 0100 0041 | 83f8 000f | 8400 4400 
  0x000001e99a3af480: 0089 bc24 | ac01 0000 | 8b46 1c48 | 83f8 000f | 842a 0000 

  0x000001e99a3af494: ;   {metadata('jdk/internal/reflect/ByteVectorImpl')}
  0x000001e99a3af494: 0049 bba0 | cd07 a1e9 | 0100 0044 | 8b48 0849 | ba00 0000 | a0e9 0100 | 004d 03ca | 4d3b 5938 
  0x000001e99a3af4b4: 0f85 e65d | 0000 e900 | 0000 004c | 8bc0 483b | 0041 b80a | 0000 0048 

  0x000001e99a3af4cc: ;   {optimized virtual_call}
  0x000001e99a3af4cc: 8bd0 90e8 

  0x000001e99a3af4d0: ; ImmutableOopMap {[120]=Oop [416]=Oop }
                      ;*invokeinterface add {reexecute=0 rethrow=0 return_oop=0}
                      ; - jdk.internal.reflect.ClassFileAssembler::emitByte@5 (line 74)
                      ; - jdk.internal.reflect.ClassFileAssembler::emitConstantPoolMethodref@3 (line 137)
                      ; - jdk.internal.reflect.AccessorGenerator::emitBoxingContantPoolEntries@714 (line 316)
  0x000001e99a3af4d0: 6cb7 cafe | 488b b424 | a001 0000 | 8b56 1c48 | 83fa 000f | 8429 0000 

  0x000001e99a3af4e8: ;   {metadata('jdk/internal/reflect/ByteVectorImpl')}
  0x000001e99a3af4e8: 0048 b8a0 | cd07 a1e9 | 0100 008b | 5a08 49ba | 0000 00a0 | e901 0000 | 4903 da48 | 3b43 380f 
  0x000001e99a3af508: 859d 5d00 | 00e9 0000 | 0000 4c8b | c248 3b02 | 8b9c 24a8 | 0100 00c1 | fb08 81e3 | ff00 0000 
  0x000001e99a3af528: 0fbe db4c 

  0x000001e99a3af52c: ;   {optimized virtual_call}
  0x000001e99a3af52c: 8bc3 90e8 

  0x000001e99a3af530: ; ImmutableOopMap {[120]=Oop [416]=Oop }
                      ;*invokeinterface add {reexecute=0 rethrow=0 return_oop=0}
                      ; - jdk.internal.reflect.ClassFileAssembler::emitByte@5 (line 74)
                      ; - jdk.internal.reflect.ClassFileAssembler::emitShort@10 (line 63)
                      ; - jdk.internal.reflect.ClassFileAssembler::emitConstantPoolMethodref@8 (line 138)
                      ; - jdk.internal.reflect.AccessorGenerator::emitBoxingContantPoolEntries@714 (line 316)
  0x000001e99a3af530: 0cb7 cafe | 488b b424 | a001 0000 | 8b56 1c48 | 83fa 000f | 8429 0000 

  0x000001e99a3af548: ;   {metadata('jdk/internal/reflect/ByteVectorImpl')}
  0x000001e99a3af548: 0048 b8a0 | cd07 a1e9 | 0100 008b | 5a08 49ba | 0000 00a0 | e901 0000 | 4903 da48 | 3b43 380f 
  0x000001e99a3af568: 8547 5d00 | 00e9 0000 | 0000 4c8b | c248 3b02 | 8b9c 24a8 | 0100 0081 | e3ff 0000 | 000f bedb 
  0x000001e99a3af588: 4c8b c30f 

  0x000001e99a3af58c: ;   {optimized virtual_call}
  0x000001e99a3af58c: 1f40 00e8 

  0x000001e99a3af590: ; ImmutableOopMap {[120]=Oop [416]=Oop }
                      ;*invokeinterface add {reexecute=0 rethrow=0 return_oop=0}
                      ; - jdk.internal.reflect.ClassFileAssembler::emitByte@5 (line 74)
                      ; - jdk.internal.reflect.ClassFileAssembler::emitShort@20 (line 64)
                      ; - jdk.internal.reflect.ClassFileAssembler::emitConstantPoolMethodref@8 (line 138)
                      ; - jdk.internal.reflect.AccessorGenerator::emitBoxingContantPoolEntries@714 (line 316)
  0x000001e99a3af590: acb6 cafe | 488b b424 | a001 0000 | 8b56 1c48 | 83fa 000f | 8429 0000 

  0x000001e99a3af5a8: ;   {metadata('jdk/internal/reflect/ByteVectorImpl')}
  0x000001e99a3af5a8: 0048 b8a0 | cd07 a1e9 | 0100 008b | 5a08 49ba | 0000 00a0 | e901 0000 | 4903 da48 | 3b43 380f 
  0x000001e99a3af5c8: 85f1 5c00 | 00e9 0000 | 0000 4c8b | c248 3b02 | 8bbc 24ac | 0100 00c1 | ff08 81e7 | ff00 0000 
  0x000001e99a3af5e8: 400f beff 

  0x000001e99a3af5ec: ;   {optimized virtual_call}
  0x000001e99a3af5ec: 4c8b c7e8 

  0x000001e99a3af5f0: ; ImmutableOopMap {[120]=Oop [416]=Oop }
                      ;*invokeinterface add {reexecute=0 rethrow=0 return_oop=0}
                      ; - jdk.internal.reflect.ClassFileAssembler::emitByte@5 (line 74)
                      ; - jdk.internal.reflect.ClassFileAssembler::emitShort@10 (line 63)
                      ; - jdk.internal.reflect.ClassFileAssembler::emitConstantPoolMethodref@13 (line 139)
                      ; - jdk.internal.reflect.AccessorGenerator::emitBoxingContantPoolEntries@714 (line 316)
  0x000001e99a3af5f0: 4cb6 cafe | 488b b424 | a001 0000 | 8b56 1c48 | 83fa 000f | 8429 0000 

  0x000001e99a3af608: ;   {metadata('jdk/internal/reflect/ByteVectorImpl')}
  0x000001e99a3af608: 0048 b8a0 | cd07 a1e9 | 0100 008b | 5a08 49ba | 0000 00a0 | e901 0000 | 4903 da48 | 3b43 380f 
  0x000001e99a3af628: 859b 5c00 | 00e9 0000 | 0000 4c8b | c248 3b02 | 8bbc 24ac | 0100 0081 | e7ff 0000 | 0040 0fbe 
  0x000001e99a3af648: ff4c 8bc7 

  0x000001e99a3af64c: ;   {optimized virtual_call}
  0x000001e99a3af64c: 6666 90e8 

  0x000001e99a3af650: ; ImmutableOopMap {[120]=Oop [416]=Oop }
                      ;*invokeinterface add {reexecute=0 rethrow=0 return_oop=0}
                      ; - jdk.internal.reflect.ClassFileAssembler::emitByte@5 (line 74)
                      ; - jdk.internal.reflect.ClassFileAssembler::emitShort@20 (line 64)
                      ; - jdk.internal.reflect.ClassFileAssembler::emitConstantPoolMethodref@13 (line 139)
                      ; - jdk.internal.reflect.AccessorGenerator::emitBoxingContantPoolEntries@714 (line 316)
  0x000001e99a3af650: ecb5 cafe | 488b b424 | a001 0000 | 440f bf46 | 1841 ffc0 | 6644 8946 | 1848 8b54 | 2478 8b72 
  0x000001e99a3af670: 7044 0fbf | 4618 4183 | f800 0f84 | 8141 0000 | 41c1 e010 | 41c1 f810 | 6644 8942 

  0x000001e99a3af68c: ;   {oop("java/lang/Float"{0x00000000d467fe30})}
  0x000001e99a3af68c: 5049 b830 | fe67 d400 | 0000 0048 | 8bd6 0f1f 

  0x000001e99a3af69c: ;   {optimized virtual_call}
  0x000001e99a3af69c: 4400 00e8 

  0x000001e99a3af6a0: ; ImmutableOopMap {[120]=Oop }
                      ;*invokevirtual emitConstantPoolUTF8 {reexecute=0 rethrow=0 return_oop=0}
                      ; - jdk.internal.reflect.AccessorGenerator::emitBoxingContantPoolEntries@734 (line 320)
  0x000001e99a3af6a0: fcac cffe | 488b 5424 | 788b 7270 | 4889 b424 | b001 0000 

  0x000001e99a3af6b4: ; implicit exception: dispatches to 0x000001e99a3b52d7
  0x000001e99a3af6b4: 440f bf46 | 1841 83f8 | 000f 84be | 4000 008b | 7e1c 41c1 | e010 41c1 | f810 4883 | ff00 0f84 
  0x000001e99a3af6d4: 2900 0000 

  0x000001e99a3af6d8: ;   {metadata('jdk/internal/reflect/ByteVectorImpl')}
  0x000001e99a3af6d8: 49b9 a0cd | 07a1 e901 | 0000 8b4f | 0849 ba00 | 0000 a0e9 | 0100 0049 | 03ca 4c3b | 4938 0f85 
  0x000001e99a3af6f8: e05b 0000 | e900 0000 | 0048 8bdf 

  0x000001e99a3af704: ; implicit exception: dispatches to 0x000001e99a3b52e1
  0x000001e99a3af704: 483b 0744 | 8984 24b8 | 0100 0041 | b807 0000 | 0048 8bd7 | 0f1f 8000 

  0x000001e99a3af71c: ;   {optimized virtual_call}
  0x000001e99a3af71c: 0000 00e8 

  0x000001e99a3af720: ; ImmutableOopMap {[120]=Oop [432]=Oop }
                      ;*invokeinterface add {reexecute=0 rethrow=0 return_oop=0}
                      ; - jdk.internal.reflect.ClassFileAssembler::emitByte@5 (line 74)
                      ; - jdk.internal.reflect.ClassFileAssembler::emitConstantPoolClass@3 (line 113)
                      ; - jdk.internal.reflect.AccessorGenerator::emitBoxingContantPoolEntries@748 (line 321)
  0x000001e99a3af720: 1cb5 cafe | 488b b424 | b001 0000 | 8b56 1c48 | 83fa 000f | 8429 0000 

  0x000001e99a3af738: ;   {metadata('jdk/internal/reflect/ByteVectorImpl')}
  0x000001e99a3af738: 0048 b8a0 | cd07 a1e9 | 0100 008b | 5a08 49ba | 0000 00a0 | e901 0000 | 4903 da48 | 3b43 380f 
  0x000001e99a3af758: 8589 5b00 | 00e9 0000 | 0000 4c8b | c248 3b02 | 448b 8424 | b801 0000 | 41c1 f808 | 4181 e0ff 
  0x000001e99a3af778: 0000 0045 

  0x000001e99a3af77c: ;   {optimized virtual_call}
  0x000001e99a3af77c: 0fbe c0e8 

  0x000001e99a3af780: ; ImmutableOopMap {[120]=Oop [432]=Oop }
                      ;*invokeinterface add {reexecute=0 rethrow=0 return_oop=0}
                      ; - jdk.internal.reflect.ClassFileAssembler::emitByte@5 (line 74)
                      ; - jdk.internal.reflect.ClassFileAssembler::emitShort@10 (line 63)
                      ; - jdk.internal.reflect.ClassFileAssembler::emitConstantPoolClass@8 (line 114)
                      ; - jdk.internal.reflect.AccessorGenerator::emitBoxingContantPoolEntries@748 (line 321)
  0x000001e99a3af780: bcb4 cafe | 488b b424 | b001 0000 | 8b56 1c48 | 83fa 000f | 8429 0000 

  0x000001e99a3af798: ;   {metadata('jdk/internal/reflect/ByteVectorImpl')}
  0x000001e99a3af798: 0048 b8a0 | cd07 a1e9 | 0100 008b | 5a08 49ba | 0000 00a0 | e901 0000 | 4903 da48 | 3b43 380f 
  0x000001e99a3af7b8: 8533 5b00 | 00e9 0000 | 0000 4c8b | c248 3b02 | 448b 8424 | b801 0000 | 4181 e0ff | 0000 0045 
  0x000001e99a3af7d8: 0fbe c00f 

  0x000001e99a3af7dc: ;   {optimized virtual_call}
  0x000001e99a3af7dc: 1f40 00e8 

  0x000001e99a3af7e0: ; ImmutableOopMap {[120]=Oop [432]=Oop }
                      ;*invokeinterface add {reexecute=0 rethrow=0 return_oop=0}
                      ; - jdk.internal.reflect.ClassFileAssembler::emitByte@5 (line 74)
                      ; - jdk.internal.reflect.ClassFileAssembler::emitShort@20 (line 64)
                      ; - jdk.internal.reflect.ClassFileAssembler::emitConstantPoolClass@8 (line 114)
                      ; - jdk.internal.reflect.AccessorGenerator::emitBoxingContantPoolEntries@748 (line 321)
  0x000001e99a3af7e0: 5cb4 cafe | 488b b424 | b001 0000 | 440f bf46 | 1841 ffc0 | 6644 8946 | 1848 8b54 | 2478 8b72 
  0x000001e99a3af800: 7044 0fbf | 4618 4183 | f800 0f84 | f13e 0000 | 41c1 e010 | 41c1 f810 | 6644 8942 

  0x000001e99a3af81c: ;   {oop("(F)Ljava/lang/Float;"{0x00000000d467fdf0})}
  0x000001e99a3af81c: 5249 b8f0 | fd67 d400 | 0000 0048 | 8bd6 0f1f 

  0x000001e99a3af82c: ;   {optimized virtual_call}
  0x000001e99a3af82c: 4400 00e8 

  0x000001e99a3af830: ; ImmutableOopMap {[120]=Oop }
                      ;*invokevirtual emitConstantPoolUTF8 {reexecute=0 rethrow=0 return_oop=0}
                      ; - jdk.internal.reflect.AccessorGenerator::emitBoxingContantPoolEntries@768 (line 323)
  0x000001e99a3af830: 6cab cffe | 488b 5424 | 788b 7270 | 4889 b424 | c001 0000 | 0fbf 7a38 | 89bc 24bc | 0100 0044 
  0x000001e99a3af850: 0fbf 4618 | 4183 f800 | 0f84 233e | 0000 8b5e | 1c41 c1e0 | 1041 c1f8 | 1048 83fb | 000f 842a 
  0x000001e99a3af870: ;   {metadata('jdk/internal/reflect/ByteVectorImpl')}
  0x000001e99a3af870: 0000 0049 | bba0 cd07 | a1e9 0100 | 0044 8b4b | 0849 ba00 | 0000 a0e9 | 0100 004d | 03ca 4d3b 
  0x000001e99a3af890: 5938 0f85 | 6c5a 0000 | e900 0000 | 0048 8bc3 

  0x000001e99a3af8a0: ; implicit exception: dispatches to 0x000001e99a3b5309
  0x000001e99a3af8a0: 483b 0344 | 8984 24c8 | 0100 0041 | b80c 0000 | 0048 8bd3 

  0x000001e99a3af8b4: ;   {optimized virtual_call}
  0x000001e99a3af8b4: 6666 90e8 

  0x000001e99a3af8b8: ; ImmutableOopMap {[448]=Oop [120]=Oop }
                      ;*invokeinterface add {reexecute=0 rethrow=0 return_oop=0}
                      ; - jdk.internal.reflect.ClassFileAssembler::emitByte@5 (line 74)
                      ; - jdk.internal.reflect.ClassFileAssembler::emitConstantPoolNameAndType@3 (line 119)
                      ; - jdk.internal.reflect.AccessorGenerator::emitBoxingContantPoolEntries@786 (line 324)
  0x000001e99a3af8b8: 84b3 cafe | 488b b424 | c001 0000 | 8b56 1c48 | 83fa 000f | 8429 0000 

  0x000001e99a3af8d0: ;   {metadata('jdk/internal/reflect/ByteVectorImpl')}
  0x000001e99a3af8d0: 0048 b8a0 | cd07 a1e9 | 0100 008b | 5a08 49ba | 0000 00a0 | e901 0000 | 4903 da48 | 3b43 380f 
  0x000001e99a3af8f0: 8519 5a00 | 00e9 0000 | 0000 4c8b | c248 3b02 | 8bbc 24bc | 0100 00c1 | ff08 81e7 | ff00 0000 
  0x000001e99a3af910: 400f beff 

  0x000001e99a3af914: ;   {optimized virtual_call}
  0x000001e99a3af914: 4c8b c7e8 

  0x000001e99a3af918: ; ImmutableOopMap {[120]=Oop [448]=Oop }
                      ;*invokeinterface add {reexecute=0 rethrow=0 return_oop=0}
                      ; - jdk.internal.reflect.ClassFileAssembler::emitByte@5 (line 74)
                      ; - jdk.internal.reflect.ClassFileAssembler::emitShort@10 (line 63)
                      ; - jdk.internal.reflect.ClassFileAssembler::emitConstantPoolNameAndType@8 (line 120)
                      ; - jdk.internal.reflect.AccessorGenerator::emitBoxingContantPoolEntries@786 (line 324)
  0x000001e99a3af918: 24b3 cafe | 488b b424 | c001 0000 | 8b56 1c48 | 83fa 000f | 8429 0000 

  0x000001e99a3af930: ;   {metadata('jdk/internal/reflect/ByteVectorImpl')}
  0x000001e99a3af930: 0048 b8a0 | cd07 a1e9 | 0100 008b | 5a08 49ba | 0000 00a0 | e901 0000 | 4903 da48 | 3b43 380f 
  0x000001e99a3af950: 85c3 5900 | 00e9 0000 | 0000 4c8b | c248 3b02 | 8bbc 24bc | 0100 0081 | e7ff 0000 | 0040 0fbe 
  0x000001e99a3af970: ff4c 8bc7 

  0x000001e99a3af974: ;   {optimized virtual_call}
  0x000001e99a3af974: 6666 90e8 

  0x000001e99a3af978: ; ImmutableOopMap {[120]=Oop [448]=Oop }
                      ;*invokeinterface add {reexecute=0 rethrow=0 return_oop=0}
                      ; - jdk.internal.reflect.ClassFileAssembler::emitByte@5 (line 74)
                      ; - jdk.internal.reflect.ClassFileAssembler::emitShort@20 (line 64)
                      ; - jdk.internal.reflect.ClassFileAssembler::emitConstantPoolNameAndType@8 (line 120)
                      ; - jdk.internal.reflect.AccessorGenerator::emitBoxingContantPoolEntries@786 (line 324)
  0x000001e99a3af978: c4b2 cafe | 488b b424 | c001 0000 | 8b56 1c48 | 83fa 000f | 8429 0000 

  0x000001e99a3af990: ;   {metadata('jdk/internal/reflect/ByteVectorImpl')}
  0x000001e99a3af990: 0048 b8a0 | cd07 a1e9 | 0100 008b | 5a08 49ba | 0000 00a0 | e901 0000 | 4903 da48 | 3b43 380f 
  0x000001e99a3af9b0: 856d 5900 | 00e9 0000 | 0000 4c8b | c248 3b02 | 448b 8424 | c801 0000 | 41c1 f808 | 4181 e0ff 
  0x000001e99a3af9d0: 0000 0045 

  0x000001e99a3af9d4: ;   {optimized virtual_call}
  0x000001e99a3af9d4: 0fbe c0e8 

  0x000001e99a3af9d8: ; ImmutableOopMap {[120]=Oop [448]=Oop }
                      ;*invokeinterface add {reexecute=0 rethrow=0 return_oop=0}
                      ; - jdk.internal.reflect.ClassFileAssembler::emitByte@5 (line 74)
                      ; - jdk.internal.reflect.ClassFileAssembler::emitShort@10 (line 63)
                      ; - jdk.internal.reflect.ClassFileAssembler::emitConstantPoolNameAndType@13 (line 121)
                      ; - jdk.internal.reflect.AccessorGenerator::emitBoxingContantPoolEntries@786 (line 324)
  0x000001e99a3af9d8: 64b2 cafe | 488b b424 | c001 0000 | 8b56 1c48 | 83fa 000f | 8429 0000 

  0x000001e99a3af9f0: ;   {metadata('jdk/internal/reflect/ByteVectorImpl')}
  0x000001e99a3af9f0: 0048 b8a0 | cd07 a1e9 | 0100 008b | 5a08 49ba | 0000 00a0 | e901 0000 | 4903 da48 | 3b43 380f 
  0x000001e99a3afa10: 8517 5900 | 00e9 0000 | 0000 4c8b | c248 3b02 | 448b 8424 | c801 0000 | 4181 e0ff | 0000 0045 
  0x000001e99a3afa30: 0fbe c00f 

  0x000001e99a3afa34: ;   {optimized virtual_call}
  0x000001e99a3afa34: 1f40 00e8 

  0x000001e99a3afa38: ; ImmutableOopMap {[120]=Oop [448]=Oop }
                      ;*invokeinterface add {reexecute=0 rethrow=0 return_oop=0}
                      ; - jdk.internal.reflect.ClassFileAssembler::emitByte@5 (line 74)
                      ; - jdk.internal.reflect.ClassFileAssembler::emitShort@20 (line 64)
                      ; - jdk.internal.reflect.ClassFileAssembler::emitConstantPoolNameAndType@13 (line 121)
                      ; - jdk.internal.reflect.AccessorGenerator::emitBoxingContantPoolEntries@786 (line 324)
  0x000001e99a3afa38: 04b2 cafe | 488b b424 | c001 0000 | 440f bf46 | 1841 ffc0 | 6644 8946 | 1848 8b54 | 2478 8b72 
  0x000001e99a3afa58: 7048 89b4 | 24d0 0100 | 0044 0fbf | 4618 4183 | f800 0f84 | 913b 0000 | 498b f8c1 | e710 c1ff 
  0x000001e99a3afa78: 1048 8bdf | 83eb 020f | bfdb c1e3 | 10c1 fb10 | 899c 24cc | 0100 0041 | 83f8 000f | 84e8 3a00 
  0x000001e99a3afa98: 0089 bc24 | d801 0000 | 8b46 1c48 | 83f8 000f | 842a 0000 

  0x000001e99a3afaac: ;   {metadata('jdk/internal/reflect/ByteVectorImpl')}
  0x000001e99a3afaac: 0049 bba0 | cd07 a1e9 | 0100 0044 | 8b48 0849 | ba00 0000 | a0e9 0100 | 004d 03ca | 4d3b 5938 
  0x000001e99a3afacc: 0f85 6958 | 0000 e900 | 0000 004c | 8bc0 483b | 0041 b80a | 0000 0048 

  0x000001e99a3afae4: ;   {optimized virtual_call}
  0x000001e99a3afae4: 8bd0 90e8 

  0x000001e99a3afae8: ; ImmutableOopMap {[464]=Oop [120]=Oop }
                      ;*invokeinterface add {reexecute=0 rethrow=0 return_oop=0}
                      ; - jdk.internal.reflect.ClassFileAssembler::emitByte@5 (line 74)
                      ; - jdk.internal.reflect.ClassFileAssembler::emitConstantPoolMethodref@3 (line 137)
                      ; - jdk.internal.reflect.AccessorGenerator::emitBoxingContantPoolEntries@811 (line 325)
  0x000001e99a3afae8: 54b1 cafe | 488b b424 | d001 0000 | 8b56 1c48 | 83fa 000f | 8429 0000 

  0x000001e99a3afb00: ;   {metadata('jdk/internal/reflect/ByteVectorImpl')}
  0x000001e99a3afb00: 0048 b8a0 | cd07 a1e9 | 0100 008b | 5a08 49ba | 0000 00a0 | e901 0000 | 4903 da48 | 3b43 380f 
  0x000001e99a3afb20: 8520 5800 | 00e9 0000 | 0000 4c8b | c248 3b02 | 8b9c 24cc | 0100 00c1 | fb08 81e3 | ff00 0000 
  0x000001e99a3afb40: 0fbe db4c 

  0x000001e99a3afb44: ;   {optimized virtual_call}
  0x000001e99a3afb44: 8bc3 90e8 

  0x000001e99a3afb48: ; ImmutableOopMap {[120]=Oop [464]=Oop }
                      ;*invokeinterface add {reexecute=0 rethrow=0 return_oop=0}
                      ; - jdk.internal.reflect.ClassFileAssembler::emitByte@5 (line 74)
                      ; - jdk.internal.reflect.ClassFileAssembler::emitShort@10 (line 63)
                      ; - jdk.internal.reflect.ClassFileAssembler::emitConstantPoolMethodref@8 (line 138)
                      ; - jdk.internal.reflect.AccessorGenerator::emitBoxingContantPoolEntries@811 (line 325)
  0x000001e99a3afb48: f4b0 cafe | 488b b424 | d001 0000 | 8b56 1c48 | 83fa 000f | 8429 0000 

  0x000001e99a3afb60: ;   {metadata('jdk/internal/reflect/ByteVectorImpl')}
  0x000001e99a3afb60: 0048 b8a0 | cd07 a1e9 | 0100 008b | 5a08 49ba | 0000 00a0 | e901 0000 | 4903 da48 | 3b43 380f 
  0x000001e99a3afb80: 85ca 5700 | 00e9 0000 | 0000 4c8b | c248 3b02 | 8b9c 24cc | 0100 0081 | e3ff 0000 | 000f bedb 
  0x000001e99a3afba0: 4c8b c30f 

  0x000001e99a3afba4: ;   {optimized virtual_call}
  0x000001e99a3afba4: 1f40 00e8 

  0x000001e99a3afba8: ; ImmutableOopMap {[120]=Oop [464]=Oop }
                      ;*invokeinterface add {reexecute=0 rethrow=0 return_oop=0}
                      ; - jdk.internal.reflect.ClassFileAssembler::emitByte@5 (line 74)
                      ; - jdk.internal.reflect.ClassFileAssembler::emitShort@20 (line 64)
                      ; - jdk.internal.reflect.ClassFileAssembler::emitConstantPoolMethodref@8 (line 138)
                      ; - jdk.internal.reflect.AccessorGenerator::emitBoxingContantPoolEntries@811 (line 325)
  0x000001e99a3afba8: 94b0 cafe | 488b b424 | d001 0000 | 8b56 1c48 | 83fa 000f | 8429 0000 

  0x000001e99a3afbc0: ;   {metadata('jdk/internal/reflect/ByteVectorImpl')}
  0x000001e99a3afbc0: 0048 b8a0 | cd07 a1e9 | 0100 008b | 5a08 49ba | 0000 00a0 | e901 0000 | 4903 da48 | 3b43 380f 
  0x000001e99a3afbe0: 8574 5700 | 00e9 0000 | 0000 4c8b | c248 3b02 | 8bbc 24d8 | 0100 00c1 | ff08 81e7 | ff00 0000 
  0x000001e99a3afc00: 400f beff 

  0x000001e99a3afc04: ;   {optimized virtual_call}
  0x000001e99a3afc04: 4c8b c7e8 

  0x000001e99a3afc08: ; ImmutableOopMap {[120]=Oop [464]=Oop }
                      ;*invokeinterface add {reexecute=0 rethrow=0 return_oop=0}
                      ; - jdk.internal.reflect.ClassFileAssembler::emitByte@5 (line 74)
                      ; - jdk.internal.reflect.ClassFileAssembler::emitShort@10 (line 63)
                      ; - jdk.internal.reflect.ClassFileAssembler::emitConstantPoolMethodref@13 (line 139)
                      ; - jdk.internal.reflect.AccessorGenerator::emitBoxingContantPoolEntries@811 (line 325)
  0x000001e99a3afc08: 34b0 cafe | 488b b424 | d001 0000 | 8b56 1c48 | 83fa 000f | 8429 0000 

  0x000001e99a3afc20: ;   {metadata('jdk/internal/reflect/ByteVectorImpl')}
  0x000001e99a3afc20: 0048 b8a0 | cd07 a1e9 | 0100 008b | 5a08 49ba | 0000 00a0 | e901 0000 | 4903 da48 | 3b43 380f 
  0x000001e99a3afc40: 851e 5700 | 00e9 0000 | 0000 4c8b | c248 3b02 | 8bbc 24d8 | 0100 0081 | e7ff 0000 | 0040 0fbe 
  0x000001e99a3afc60: ff4c 8bc7 

  0x000001e99a3afc64: ;   {optimized virtual_call}
  0x000001e99a3afc64: 6666 90e8 

  0x000001e99a3afc68: ; ImmutableOopMap {[120]=Oop [464]=Oop }
                      ;*invokeinterface add {reexecute=0 rethrow=0 return_oop=0}
                      ; - jdk.internal.reflect.ClassFileAssembler::emitByte@5 (line 74)
                      ; - jdk.internal.reflect.ClassFileAssembler::emitShort@20 (line 64)
                      ; - jdk.internal.reflect.ClassFileAssembler::emitConstantPoolMethodref@13 (line 139)
                      ; - jdk.internal.reflect.AccessorGenerator::emitBoxingContantPoolEntries@811 (line 325)
  0x000001e99a3afc68: d4af cafe | 488b b424 | d001 0000 | 440f bf46 | 1841 ffc0 | 6644 8946 | 1848 8b54 | 2478 8b72 
  0x000001e99a3afc88: 7044 0fbf | 4618 4183 | f800 0f84 | 6938 0000 | 41c1 e010 | 41c1 f810 | 6644 8942 

  0x000001e99a3afca4: ;   {oop("floatValue"{0x00000000d467fdb8})}
  0x000001e99a3afca4: 5449 b8b8 | fd67 d400 | 0000 0048 | 8bd6 0f1f 

  0x000001e99a3afcb4: ;   {optimized virtual_call}
  0x000001e99a3afcb4: 4400 00e8 

  0x000001e99a3afcb8: ; ImmutableOopMap {[120]=Oop }
                      ;*invokevirtual emitConstantPoolUTF8 {reexecute=0 rethrow=0 return_oop=0}
                      ; - jdk.internal.reflect.AccessorGenerator::emitBoxingContantPoolEntries@831 (line 327)
  0x000001e99a3afcb8: e4a6 cffe | 488b 5424 | 788b 7270 

  0x000001e99a3afcc4: ; implicit exception: dispatches to 0x000001e99a3b5372
                      ;   {oop("()F"{0x00000000d467fd88})}
  0x000001e99a3afcc4: 483b 0649 | b888 fd67 | d400 0000 | 0048 8bd6 

  0x000001e99a3afcd4: ;   {optimized virtual_call}
  0x000001e99a3afcd4: 6666 90e8 

  0x000001e99a3afcd8: ; ImmutableOopMap {[120]=Oop }
                      ;*invokevirtual emitConstantPoolUTF8 {reexecute=0 rethrow=0 return_oop=0}
                      ; - jdk.internal.reflect.AccessorGenerator::emitBoxingContantPoolEntries@840 (line 328)
  0x000001e99a3afcd8: c4a6 cffe | 488b 5424 | 788b 7270 | 4889 b424 | e001 0000 

  0x000001e99a3afcec: ; implicit exception: dispatches to 0x000001e99a3b5377
  0x000001e99a3afcec: 440f bf46 | 1841 83f8 | 000f 8486 | 3700 0049 | 8bf8 c1e7 | 10c1 ff10 | 488b dfff | cb0f bfdb 
  0x000001e99a3afd0c: c1e3 10c1 | fb10 899c | 24dc 0100 | 0041 83f8 | 000f 84de | 3600 0089 | bc24 e801 | 0000 8b46 
  0x000001e99a3afd2c: 1c48 83f8 | 000f 842a 

  0x000001e99a3afd34: ;   {metadata('jdk/internal/reflect/ByteVectorImpl')}
  0x000001e99a3afd34: 0000 0049 | bba0 cd07 | a1e9 0100 | 0044 8b48 | 0849 ba00 | 0000 a0e9 | 0100 004d | 03ca 4d3b 
  0x000001e99a3afd54: 5938 0f85 | 2056 0000 | e900 0000 | 004c 8bc0 

  0x000001e99a3afd64: ; implicit exception: dispatches to 0x000001e99a3b5381
  0x000001e99a3afd64: 483b 0041 | b80c 0000 | 0048 8bd0 | 0f1f 8000 

  0x000001e99a3afd74: ;   {optimized virtual_call}
  0x000001e99a3afd74: 0000 00e8 

  0x000001e99a3afd78: ; ImmutableOopMap {[480]=Oop [120]=Oop }
                      ;*invokeinterface add {reexecute=0 rethrow=0 return_oop=0}
                      ; - jdk.internal.reflect.ClassFileAssembler::emitByte@5 (line 74)
                      ; - jdk.internal.reflect.ClassFileAssembler::emitConstantPoolNameAndType@3 (line 119)
                      ; - jdk.internal.reflect.AccessorGenerator::emitBoxingContantPoolEntries@865 (line 329)
  0x000001e99a3afd78: c4ae cafe | 488b b424 | e001 0000 | 8b56 1c48 | 83fa 000f | 8429 0000 

  0x000001e99a3afd90: ;   {metadata('jdk/internal/reflect/ByteVectorImpl')}
  0x000001e99a3afd90: 0048 b8a0 | cd07 a1e9 | 0100 008b | 5a08 49ba | 0000 00a0 | e901 0000 | 4903 da48 | 3b43 380f 
  0x000001e99a3afdb0: 85d1 5500 | 00e9 0000 | 0000 4c8b | c248 3b02 | 8b9c 24dc | 0100 00c1 | fb08 81e3 | ff00 0000 
  0x000001e99a3afdd0: 0fbe db4c 

  0x000001e99a3afdd4: ;   {optimized virtual_call}
  0x000001e99a3afdd4: 8bc3 90e8 

  0x000001e99a3afdd8: ; ImmutableOopMap {[120]=Oop [480]=Oop }
                      ;*invokeinterface add {reexecute=0 rethrow=0 return_oop=0}
                      ; - jdk.internal.reflect.ClassFileAssembler::emitByte@5 (line 74)
                      ; - jdk.internal.reflect.ClassFileAssembler::emitShort@10 (line 63)
                      ; - jdk.internal.reflect.ClassFileAssembler::emitConstantPoolNameAndType@8 (line 120)
                      ; - jdk.internal.reflect.AccessorGenerator::emitBoxingContantPoolEntries@865 (line 329)
  0x000001e99a3afdd8: 64ae cafe | 488b b424 | e001 0000 | 8b56 1c48 | 83fa 000f | 8429 0000 

  0x000001e99a3afdf0: ;   {metadata('jdk/internal/reflect/ByteVectorImpl')}
  0x000001e99a3afdf0: 0048 b8a0 | cd07 a1e9 | 0100 008b | 5a08 49ba | 0000 00a0 | e901 0000 | 4903 da48 | 3b43 380f 
  0x000001e99a3afe10: 857b 5500 | 00e9 0000 | 0000 4c8b | c248 3b02 | 8b9c 24dc | 0100 0081 | e3ff 0000 | 000f bedb 
  0x000001e99a3afe30: 4c8b c30f 

  0x000001e99a3afe34: ;   {optimized virtual_call}
  0x000001e99a3afe34: 1f40 00e8 

  0x000001e99a3afe38: ; ImmutableOopMap {[120]=Oop [480]=Oop }
                      ;*invokeinterface add {reexecute=0 rethrow=0 return_oop=0}
                      ; - jdk.internal.reflect.ClassFileAssembler::emitByte@5 (line 74)
                      ; - jdk.internal.reflect.ClassFileAssembler::emitShort@20 (line 64)
                      ; - jdk.internal.reflect.ClassFileAssembler::emitConstantPoolNameAndType@8 (line 120)
                      ; - jdk.internal.reflect.AccessorGenerator::emitBoxingContantPoolEntries@865 (line 329)
  0x000001e99a3afe38: 04ae cafe | 488b b424 | e001 0000 | 8b56 1c48 | 83fa 000f | 8429 0000 

  0x000001e99a3afe50: ;   {metadata('jdk/internal/reflect/ByteVectorImpl')}
  0x000001e99a3afe50: 0048 b8a0 | cd07 a1e9 | 0100 008b | 5a08 49ba | 0000 00a0 | e901 0000 | 4903 da48 | 3b43 380f 
  0x000001e99a3afe70: 8525 5500 | 00e9 0000 | 0000 4c8b | c248 3b02 | 8bbc 24e8 | 0100 00c1 | ff08 81e7 | ff00 0000 
  0x000001e99a3afe90: 400f beff 

  0x000001e99a3afe94: ;   {optimized virtual_call}
  0x000001e99a3afe94: 4c8b c7e8 

  0x000001e99a3afe98: ; ImmutableOopMap {[120]=Oop [480]=Oop }
                      ;*invokeinterface add {reexecute=0 rethrow=0 return_oop=0}
                      ; - jdk.internal.reflect.ClassFileAssembler::emitByte@5 (line 74)
                      ; - jdk.internal.reflect.ClassFileAssembler::emitShort@10 (line 63)
                      ; - jdk.internal.reflect.ClassFileAssembler::emitConstantPoolNameAndType@13 (line 121)
                      ; - jdk.internal.reflect.AccessorGenerator::emitBoxingContantPoolEntries@865 (line 329)
  0x000001e99a3afe98: a4ad cafe | 488b b424 | e001 0000 | 8b56 1c48 | 83fa 000f | 8429 0000 

  0x000001e99a3afeb0: ;   {metadata('jdk/internal/reflect/ByteVectorImpl')}
  0x000001e99a3afeb0: 0048 b8a0 | cd07 a1e9 | 0100 008b | 5a08 49ba | 0000 00a0 | e901 0000 | 4903 da48 | 3b43 380f 
  0x000001e99a3afed0: 85cf 5400 | 00e9 0000 | 0000 4c8b | c248 3b02 | 8bbc 24e8 | 0100 0081 | e7ff 0000 | 0040 0fbe 
  0x000001e99a3afef0: ff4c 8bc7 

  0x000001e99a3afef4: ;   {optimized virtual_call}
  0x000001e99a3afef4: 6666 90e8 

  0x000001e99a3afef8: ; ImmutableOopMap {[120]=Oop [480]=Oop }
                      ;*invokeinterface add {reexecute=0 rethrow=0 return_oop=0}
                      ; - jdk.internal.reflect.ClassFileAssembler::emitByte@5 (line 74)
                      ; - jdk.internal.reflect.ClassFileAssembler::emitShort@20 (line 64)
                      ; - jdk.internal.reflect.ClassFileAssembler::emitConstantPoolNameAndType@13 (line 121)
                      ; - jdk.internal.reflect.AccessorGenerator::emitBoxingContantPoolEntries@865 (line 329)
  0x000001e99a3afef8: 44ad cafe | 488b b424 | e001 0000 | 440f bf46 | 1841 ffc0 | 6644 8946 | 1848 8b54 | 2478 8b72 
  0x000001e99a3aff18: 7048 89b4 | 24f0 0100 | 0044 0fbf | 4618 4183 | f800 0f84 | 5134 0000 | 498b f8c1 | e710 c1ff 
  0x000001e99a3aff38: 1048 8bdf | 83eb 060f | bfdb c1e3 | 10c1 fb10 | 899c 24ec | 0100 0041 | 83f8 000f | 84a8 3300 
  0x000001e99a3aff58: 0089 bc24 | f801 0000 | 8b46 1c48 | 83f8 000f | 842a 0000 

  0x000001e99a3aff6c: ;   {metadata('jdk/internal/reflect/ByteVectorImpl')}
  0x000001e99a3aff6c: 0049 bba0 | cd07 a1e9 | 0100 0044 | 8b48 0849 | ba00 0000 | a0e9 0100 | 004d 03ca | 4d3b 5938 
  0x000001e99a3aff8c: 0f85 2154 | 0000 e900 | 0000 004c | 8bc0 483b | 0041 b80a | 0000 0048 

  0x000001e99a3affa4: ;   {optimized virtual_call}
  0x000001e99a3affa4: 8bd0 90e8 

  0x000001e99a3affa8: ; ImmutableOopMap {[496]=Oop [120]=Oop }
                      ;*invokeinterface add {reexecute=0 rethrow=0 return_oop=0}
                      ; - jdk.internal.reflect.ClassFileAssembler::emitByte@5 (line 74)
                      ; - jdk.internal.reflect.ClassFileAssembler::emitConstantPoolMethodref@3 (line 137)
                      ; - jdk.internal.reflect.AccessorGenerator::emitBoxingContantPoolEntries@891 (line 330)
  0x000001e99a3affa8: 94ac cafe | 488b b424 | f001 0000 | 8b56 1c48 | 83fa 000f | 8429 0000 

  0x000001e99a3affc0: ;   {metadata('jdk/internal/reflect/ByteVectorImpl')}
  0x000001e99a3affc0: 0048 b8a0 | cd07 a1e9 | 0100 008b | 5a08 49ba | 0000 00a0 | e901 0000 | 4903 da48 | 3b43 380f 
  0x000001e99a3affe0: 85d8 5300 | 00e9 0000 | 0000 4c8b | c248 3b02 | 8b9c 24ec | 0100 00c1 | fb08 81e3 | ff00 0000 
  0x000001e99a3b0000: 0fbe db4c 

  0x000001e99a3b0004: ;   {optimized virtual_call}
  0x000001e99a3b0004: 8bc3 90e8 

  0x000001e99a3b0008: ; ImmutableOopMap {[120]=Oop [496]=Oop }
                      ;*invokeinterface add {reexecute=0 rethrow=0 return_oop=0}
                      ; - jdk.internal.reflect.ClassFileAssembler::emitByte@5 (line 74)
                      ; - jdk.internal.reflect.ClassFileAssembler::emitShort@10 (line 63)
                      ; - jdk.internal.reflect.ClassFileAssembler::emitConstantPoolMethodref@8 (line 138)
                      ; - jdk.internal.reflect.AccessorGenerator::emitBoxingContantPoolEntries@891 (line 330)
  0x000001e99a3b0008: 34ac cafe | 488b b424 | f001 0000 | 8b56 1c48 | 83fa 000f | 8429 0000 

  0x000001e99a3b0020: ;   {metadata('jdk/internal/reflect/ByteVectorImpl')}
  0x000001e99a3b0020: 0048 b8a0 | cd07 a1e9 | 0100 008b | 5a08 49ba | 0000 00a0 | e901 0000 | 4903 da48 | 3b43 380f 
  0x000001e99a3b0040: 8582 5300 | 00e9 0000 | 0000 4c8b | c248 3b02 | 8b9c 24ec | 0100 0081 | e3ff 0000 | 000f bedb 
  0x000001e99a3b0060: 4c8b c30f 

  0x000001e99a3b0064: ;   {optimized virtual_call}
  0x000001e99a3b0064: 1f40 00e8 

  0x000001e99a3b0068: ; ImmutableOopMap {[120]=Oop [496]=Oop }
                      ;*invokeinterface add {reexecute=0 rethrow=0 return_oop=0}
                      ; - jdk.internal.reflect.ClassFileAssembler::emitByte@5 (line 74)
                      ; - jdk.internal.reflect.ClassFileAssembler::emitShort@20 (line 64)
                      ; - jdk.internal.reflect.ClassFileAssembler::emitConstantPoolMethodref@8 (line 138)
                      ; - jdk.internal.reflect.AccessorGenerator::emitBoxingContantPoolEntries@891 (line 330)
  0x000001e99a3b0068: d4ab cafe | 488b b424 | f001 0000 | 8b56 1c48 | 83fa 000f | 8429 0000 

  0x000001e99a3b0080: ;   {metadata('jdk/internal/reflect/ByteVectorImpl')}
  0x000001e99a3b0080: 0048 b8a0 | cd07 a1e9 | 0100 008b | 5a08 49ba | 0000 00a0 | e901 0000 | 4903 da48 | 3b43 380f 
  0x000001e99a3b00a0: 852c 5300 | 00e9 0000 | 0000 4c8b | c248 3b02 | 8bbc 24f8 | 0100 00c1 | ff08 81e7 | ff00 0000 
  0x000001e99a3b00c0: 400f beff 

  0x000001e99a3b00c4: ;   {optimized virtual_call}
  0x000001e99a3b00c4: 4c8b c7e8 

  0x000001e99a3b00c8: ; ImmutableOopMap {[120]=Oop [496]=Oop }
                      ;*invokeinterface add {reexecute=0 rethrow=0 return_oop=0}
                      ; - jdk.internal.reflect.ClassFileAssembler::emitByte@5 (line 74)
                      ; - jdk.internal.reflect.ClassFileAssembler::emitShort@10 (line 63)
                      ; - jdk.internal.reflect.ClassFileAssembler::emitConstantPoolMethodref@13 (line 139)
                      ; - jdk.internal.reflect.AccessorGenerator::emitBoxingContantPoolEntries@891 (line 330)
  0x000001e99a3b00c8: 74ab cafe | 488b b424 | f001 0000 | 8b56 1c48 | 83fa 000f | 8429 0000 

  0x000001e99a3b00e0: ;   {metadata('jdk/internal/reflect/ByteVectorImpl')}
  0x000001e99a3b00e0: 0048 b8a0 | cd07 a1e9 | 0100 008b | 5a08 49ba | 0000 00a0 | e901 0000 | 4903 da48 | 3b43 380f 
  0x000001e99a3b0100: 85d6 5200 | 00e9 0000 | 0000 4c8b | c248 3b02 | 8bbc 24f8 | 0100 0081 | e7ff 0000 | 0040 0fbe 
  0x000001e99a3b0120: ff4c 8bc7 

  0x000001e99a3b0124: ;   {optimized virtual_call}
  0x000001e99a3b0124: 6666 90e8 

  0x000001e99a3b0128: ; ImmutableOopMap {[120]=Oop [496]=Oop }
                      ;*invokeinterface add {reexecute=0 rethrow=0 return_oop=0}
                      ; - jdk.internal.reflect.ClassFileAssembler::emitByte@5 (line 74)
                      ; - jdk.internal.reflect.ClassFileAssembler::emitShort@20 (line 64)
                      ; - jdk.internal.reflect.ClassFileAssembler::emitConstantPoolMethodref@13 (line 139)
                      ; - jdk.internal.reflect.AccessorGenerator::emitBoxingContantPoolEntries@891 (line 330)
  0x000001e99a3b0128: 14ab cafe | 488b b424 | f001 0000 | 440f bf46 | 1841 ffc0 | 6644 8946 | 1848 8b54 | 2478 8b72 
  0x000001e99a3b0148: 7044 0fbf | 4618 4183 | f800 0f84 | 2931 0000 | 41c1 e010 | 41c1 f810 | 6644 8942 

  0x000001e99a3b0164: ;   {oop("java/lang/Integer"{0x00000000d467fd48})}
  0x000001e99a3b0164: 5649 b848 | fd67 d400 | 0000 0048 | 8bd6 0f1f 

  0x000001e99a3b0174: ;   {optimized virtual_call}
  0x000001e99a3b0174: 4400 00e8 

  0x000001e99a3b0178: ; ImmutableOopMap {[120]=Oop }
                      ;*invokevirtual emitConstantPoolUTF8 {reexecute=0 rethrow=0 return_oop=0}
                      ; - jdk.internal.reflect.AccessorGenerator::emitBoxingContantPoolEntries@911 (line 334)
  0x000001e99a3b0178: 24a2 cffe | 488b 5424 | 788b 7270 | 4889 b424 | 0002 0000 

  0x000001e99a3b018c: ; implicit exception: dispatches to 0x000001e99a3b53ea
  0x000001e99a3b018c: 440f bf46 | 1841 83f8 | 000f 8466 | 3000 008b | 7e1c 41c1 | e010 41c1 | f810 4883 | ff00 0f84 
  0x000001e99a3b01ac: 2900 0000 

  0x000001e99a3b01b0: ;   {metadata('jdk/internal/reflect/ByteVectorImpl')}
  0x000001e99a3b01b0: 49b9 a0cd | 07a1 e901 | 0000 8b4f | 0849 ba00 | 0000 a0e9 | 0100 0049 | 03ca 4c3b | 4938 0f85 
  0x000001e99a3b01d0: 1b52 0000 | e900 0000 | 0048 8bdf 

  0x000001e99a3b01dc: ; implicit exception: dispatches to 0x000001e99a3b53f4
  0x000001e99a3b01dc: 483b 0744 | 8984 24fc | 0100 0041 | b807 0000 | 0048 8bd7 | 0f1f 8000 

  0x000001e99a3b01f4: ;   {optimized virtual_call}
  0x000001e99a3b01f4: 0000 00e8 

  0x000001e99a3b01f8: ; ImmutableOopMap {[120]=Oop [512]=Oop }
                      ;*invokeinterface add {reexecute=0 rethrow=0 return_oop=0}
                      ; - jdk.internal.reflect.ClassFileAssembler::emitByte@5 (line 74)
                      ; - jdk.internal.reflect.ClassFileAssembler::emitConstantPoolClass@3 (line 113)
                      ; - jdk.internal.reflect.AccessorGenerator::emitBoxingContantPoolEntries@925 (line 335)
  0x000001e99a3b01f8: 44aa cafe | 488b b424 | 0002 0000 | 8b56 1c48 | 83fa 000f | 8429 0000 

  0x000001e99a3b0210: ;   {metadata('jdk/internal/reflect/ByteVectorImpl')}
  0x000001e99a3b0210: 0048 b8a0 | cd07 a1e9 | 0100 008b | 5a08 49ba | 0000 00a0 | e901 0000 | 4903 da48 | 3b43 380f 
  0x000001e99a3b0230: 85c4 5100 | 00e9 0000 | 0000 4c8b | c248 3b02 | 448b 8424 | fc01 0000 | 41c1 f808 | 4181 e0ff 
  0x000001e99a3b0250: 0000 0045 

  0x000001e99a3b0254: ;   {optimized virtual_call}
  0x000001e99a3b0254: 0fbe c0e8 

  0x000001e99a3b0258: ; ImmutableOopMap {[120]=Oop [512]=Oop }
                      ;*invokeinterface add {reexecute=0 rethrow=0 return_oop=0}
                      ; - jdk.internal.reflect.ClassFileAssembler::emitByte@5 (line 74)
                      ; - jdk.internal.reflect.ClassFileAssembler::emitShort@10 (line 63)
                      ; - jdk.internal.reflect.ClassFileAssembler::emitConstantPoolClass@8 (line 114)
                      ; - jdk.internal.reflect.AccessorGenerator::emitBoxingContantPoolEntries@925 (line 335)
  0x000001e99a3b0258: e4a9 cafe | 488b b424 | 0002 0000 | 8b56 1c48 | 83fa 000f | 8429 0000 

  0x000001e99a3b0270: ;   {metadata('jdk/internal/reflect/ByteVectorImpl')}
  0x000001e99a3b0270: 0048 b8a0 | cd07 a1e9 | 0100 008b | 5a08 49ba | 0000 00a0 | e901 0000 | 4903 da48 | 3b43 380f 
  0x000001e99a3b0290: 856e 5100 | 00e9 0000 | 0000 4c8b | c248 3b02 | 448b 8424 | fc01 0000 | 4181 e0ff | 0000 0045 
  0x000001e99a3b02b0: 0fbe c00f 

  0x000001e99a3b02b4: ;   {optimized virtual_call}
  0x000001e99a3b02b4: 1f40 00e8 

  0x000001e99a3b02b8: ; ImmutableOopMap {[120]=Oop [512]=Oop }
                      ;*invokeinterface add {reexecute=0 rethrow=0 return_oop=0}
                      ; - jdk.internal.reflect.ClassFileAssembler::emitByte@5 (line 74)
                      ; - jdk.internal.reflect.ClassFileAssembler::emitShort@20 (line 64)
                      ; - jdk.internal.reflect.ClassFileAssembler::emitConstantPoolClass@8 (line 114)
                      ; - jdk.internal.reflect.AccessorGenerator::emitBoxingContantPoolEntries@925 (line 335)
  0x000001e99a3b02b8: 84a9 cafe | 488b b424 | 0002 0000 | 440f bf46 | 1841 ffc0 | 6644 8946 | 1848 8b54 | 2478 8b72 
  0x000001e99a3b02d8: 7044 0fbf | 4618 4183 | f800 0f84 | 992e 0000 | 41c1 e010 | 41c1 f810 | 6644 8942 

  0x000001e99a3b02f4: ;   {oop("(I)Ljava/lang/Integer;"{0x00000000d467fd08})}
  0x000001e99a3b02f4: 5849 b808 | fd67 d400 | 0000 0048 | 8bd6 0f1f 

  0x000001e99a3b0304: ;   {optimized virtual_call}
  0x000001e99a3b0304: 4400 00e8 

  0x000001e99a3b0308: ; ImmutableOopMap {[120]=Oop }
                      ;*invokevirtual emitConstantPoolUTF8 {reexecute=0 rethrow=0 return_oop=0}
                      ; - jdk.internal.reflect.AccessorGenerator::emitBoxingContantPoolEntries@945 (line 337)
  0x000001e99a3b0308: 94a0 cffe | 488b 5424 | 788b 7270 | 4889 b424 | 0802 0000 | 0fbf 7a38 | 89bc 2410 | 0200 0044 
  0x000001e99a3b0328: 0fbf 4618 | 4183 f800 | 0f84 cb2d | 0000 8b5e | 1c41 c1e0 | 1041 c1f8 | 1048 83fb | 000f 842a 
  0x000001e99a3b0348: ;   {metadata('jdk/internal/reflect/ByteVectorImpl')}
  0x000001e99a3b0348: 0000 0049 | bba0 cd07 | a1e9 0100 | 0044 8b4b | 0849 ba00 | 0000 a0e9 | 0100 004d | 03ca 4d3b 
  0x000001e99a3b0368: 5938 0f85 | a750 0000 | e900 0000 | 0048 8bc3 

  0x000001e99a3b0378: ; implicit exception: dispatches to 0x000001e99a3b541c
  0x000001e99a3b0378: 483b 0344 | 8984 2414 | 0200 0041 | b80c 0000 | 0048 8bd3 

  0x000001e99a3b038c: ;   {optimized virtual_call}
  0x000001e99a3b038c: 6666 90e8 

  0x000001e99a3b0390: ; ImmutableOopMap {[120]=Oop [520]=Oop }
                      ;*invokeinterface add {reexecute=0 rethrow=0 return_oop=0}
                      ; - jdk.internal.reflect.ClassFileAssembler::emitByte@5 (line 74)
                      ; - jdk.internal.reflect.ClassFileAssembler::emitConstantPoolNameAndType@3 (line 119)
                      ; - jdk.internal.reflect.AccessorGenerator::emitBoxingContantPoolEntries@963 (line 338)
  0x000001e99a3b0390: aca8 cafe | 488b b424 | 0802 0000 | 8b56 1c48 | 83fa 000f | 8429 0000 

  0x000001e99a3b03a8: ;   {metadata('jdk/internal/reflect/ByteVectorImpl')}
  0x000001e99a3b03a8: 0048 b8a0 | cd07 a1e9 | 0100 008b | 5a08 49ba | 0000 00a0 | e901 0000 | 4903 da48 | 3b43 380f 
  0x000001e99a3b03c8: 8554 5000 | 00e9 0000 | 0000 4c8b | c248 3b02 | 8bbc 2410 | 0200 00c1 | ff08 81e7 | ff00 0000 
  0x000001e99a3b03e8: 400f beff 

  0x000001e99a3b03ec: ;   {optimized virtual_call}
  0x000001e99a3b03ec: 4c8b c7e8 

  0x000001e99a3b03f0: ; ImmutableOopMap {[120]=Oop [520]=Oop }
                      ;*invokeinterface add {reexecute=0 rethrow=0 return_oop=0}
                      ; - jdk.internal.reflect.ClassFileAssembler::emitByte@5 (line 74)
                      ; - jdk.internal.reflect.ClassFileAssembler::emitShort@10 (line 63)
                      ; - jdk.internal.reflect.ClassFileAssembler::emitConstantPoolNameAndType@8 (line 120)
                      ; - jdk.internal.reflect.AccessorGenerator::emitBoxingContantPoolEntries@963 (line 338)
  0x000001e99a3b03f0: 4ca8 cafe | 488b b424 | 0802 0000 | 8b56 1c48 | 83fa 000f | 8429 0000 

  0x000001e99a3b0408: ;   {metadata('jdk/internal/reflect/ByteVectorImpl')}
  0x000001e99a3b0408: 0048 b8a0 | cd07 a1e9 | 0100 008b | 5a08 49ba | 0000 00a0 | e901 0000 | 4903 da48 | 3b43 380f 
  0x000001e99a3b0428: 85fe 4f00 | 00e9 0000 | 0000 4c8b | c248 3b02 | 8bbc 2410 | 0200 0081 | e7ff 0000 | 0040 0fbe 
  0x000001e99a3b0448: ff4c 8bc7 

  0x000001e99a3b044c: ;   {optimized virtual_call}
  0x000001e99a3b044c: 6666 90e8 

  0x000001e99a3b0450: ; ImmutableOopMap {[120]=Oop [520]=Oop }
                      ;*invokeinterface add {reexecute=0 rethrow=0 return_oop=0}
                      ; - jdk.internal.reflect.ClassFileAssembler::emitByte@5 (line 74)
                      ; - jdk.internal.reflect.ClassFileAssembler::emitShort@20 (line 64)
                      ; - jdk.internal.reflect.ClassFileAssembler::emitConstantPoolNameAndType@8 (line 120)
                      ; - jdk.internal.reflect.AccessorGenerator::emitBoxingContantPoolEntries@963 (line 338)
  0x000001e99a3b0450: eca7 cafe | 488b b424 | 0802 0000 | 8b56 1c48 | 83fa 000f | 8429 0000 

  0x000001e99a3b0468: ;   {metadata('jdk/internal/reflect/ByteVectorImpl')}
  0x000001e99a3b0468: 0048 b8a0 | cd07 a1e9 | 0100 008b | 5a08 49ba | 0000 00a0 | e901 0000 | 4903 da48 | 3b43 380f 
  0x000001e99a3b0488: 85a8 4f00 | 00e9 0000 | 0000 4c8b | c248 3b02 | 448b 8424 | 1402 0000 | 41c1 f808 | 4181 e0ff 
  0x000001e99a3b04a8: 0000 0045 

  0x000001e99a3b04ac: ;   {optimized virtual_call}
  0x000001e99a3b04ac: 0fbe c0e8 

  0x000001e99a3b04b0: ; ImmutableOopMap {[120]=Oop [520]=Oop }
                      ;*invokeinterface add {reexecute=0 rethrow=0 return_oop=0}
                      ; - jdk.internal.reflect.ClassFileAssembler::emitByte@5 (line 74)
                      ; - jdk.internal.reflect.ClassFileAssembler::emitShort@10 (line 63)
                      ; - jdk.internal.reflect.ClassFileAssembler::emitConstantPoolNameAndType@13 (line 121)
                      ; - jdk.internal.reflect.AccessorGenerator::emitBoxingContantPoolEntries@963 (line 338)
  0x000001e99a3b04b0: 8ca7 cafe | 488b b424 | 0802 0000 | 8b56 1c48 | 83fa 000f | 8429 0000 

  0x000001e99a3b04c8: ;   {metadata('jdk/internal/reflect/ByteVectorImpl')}
  0x000001e99a3b04c8: 0048 b8a0 | cd07 a1e9 | 0100 008b | 5a08 49ba | 0000 00a0 | e901 0000 | 4903 da48 | 3b43 380f 
  0x000001e99a3b04e8: 8552 4f00 | 00e9 0000 | 0000 4c8b | c248 3b02 | 448b 8424 | 1402 0000 | 4181 e0ff | 0000 0045 
  0x000001e99a3b0508: 0fbe c00f 

  0x000001e99a3b050c: ;   {optimized virtual_call}
  0x000001e99a3b050c: 1f40 00e8 

  0x000001e99a3b0510: ; ImmutableOopMap {[120]=Oop [520]=Oop }
                      ;*invokeinterface add {reexecute=0 rethrow=0 return_oop=0}
                      ; - jdk.internal.reflect.ClassFileAssembler::emitByte@5 (line 74)
                      ; - jdk.internal.reflect.ClassFileAssembler::emitShort@20 (line 64)
                      ; - jdk.internal.reflect.ClassFileAssembler::emitConstantPoolNameAndType@13 (line 121)
                      ; - jdk.internal.reflect.AccessorGenerator::emitBoxingContantPoolEntries@963 (line 338)
  0x000001e99a3b0510: 2ca7 cafe | 488b b424 | 0802 0000 | 440f bf46 | 1841 ffc0 | 6644 8946 | 1848 8b54 | 2478 8b72 
  0x000001e99a3b0530: 7048 89b4 | 2418 0200 | 0044 0fbf | 4618 4183 | f800 0f84 | 392b 0000 | 498b f8c1 | e710 c1ff 
  0x000001e99a3b0550: 1048 8bdf | 83eb 020f | bfdb c1e3 | 10c1 fb10 | 899c 2420 | 0200 0041 | 83f8 000f | 8490 2a00 
  0x000001e99a3b0570: 0089 bc24 | 2402 0000 | 8b46 1c48 | 83f8 000f | 842a 0000 

  0x000001e99a3b0584: ;   {metadata('jdk/internal/reflect/ByteVectorImpl')}
  0x000001e99a3b0584: 0049 bba0 | cd07 a1e9 | 0100 0044 | 8b48 0849 | ba00 0000 | a0e9 0100 | 004d 03ca | 4d3b 5938 
  0x000001e99a3b05a4: 0f85 a44e | 0000 e900 | 0000 004c | 8bc0 483b | 0041 b80a | 0000 0048 

  0x000001e99a3b05bc: ;   {optimized virtual_call}
  0x000001e99a3b05bc: 8bd0 90e8 

  0x000001e99a3b05c0: ; ImmutableOopMap {[120]=Oop [536]=Oop }
                      ;*invokeinterface add {reexecute=0 rethrow=0 return_oop=0}
                      ; - jdk.internal.reflect.ClassFileAssembler::emitByte@5 (line 74)
                      ; - jdk.internal.reflect.ClassFileAssembler::emitConstantPoolMethodref@3 (line 137)
                      ; - jdk.internal.reflect.AccessorGenerator::emitBoxingContantPoolEntries@988 (line 339)
  0x000001e99a3b05c0: 7ca6 cafe | 488b b424 | 1802 0000 | 8b56 1c48 | 83fa 000f | 8429 0000 

  0x000001e99a3b05d8: ;   {metadata('jdk/internal/reflect/ByteVectorImpl')}
  0x000001e99a3b05d8: 0048 b8a0 | cd07 a1e9 | 0100 008b | 5a08 49ba | 0000 00a0 | e901 0000 | 4903 da48 | 3b43 380f 
  0x000001e99a3b05f8: 855b 4e00 | 00e9 0000 | 0000 4c8b | c248 3b02 | 8b9c 2420 | 0200 00c1 | fb08 81e3 | ff00 0000 
  0x000001e99a3b0618: 0fbe db4c 

  0x000001e99a3b061c: ;   {optimized virtual_call}
  0x000001e99a3b061c: 8bc3 90e8 

  0x000001e99a3b0620: ; ImmutableOopMap {[120]=Oop [536]=Oop }
                      ;*invokeinterface add {reexecute=0 rethrow=0 return_oop=0}
                      ; - jdk.internal.reflect.ClassFileAssembler::emitByte@5 (line 74)
                      ; - jdk.internal.reflect.ClassFileAssembler::emitShort@10 (line 63)
                      ; - jdk.internal.reflect.ClassFileAssembler::emitConstantPoolMethodref@8 (line 138)
                      ; - jdk.internal.reflect.AccessorGenerator::emitBoxingContantPoolEntries@988 (line 339)
  0x000001e99a3b0620: 1ca6 cafe | 488b b424 | 1802 0000 | 8b56 1c48 | 83fa 000f | 8429 0000 

  0x000001e99a3b0638: ;   {metadata('jdk/internal/reflect/ByteVectorImpl')}
  0x000001e99a3b0638: 0048 b8a0 | cd07 a1e9 | 0100 008b | 5a08 49ba | 0000 00a0 | e901 0000 | 4903 da48 | 3b43 380f 
  0x000001e99a3b0658: 8505 4e00 | 00e9 0000 | 0000 4c8b | c248 3b02 | 8b9c 2420 | 0200 0081 | e3ff 0000 | 000f bedb 
  0x000001e99a3b0678: 4c8b c30f 

  0x000001e99a3b067c: ;   {optimized virtual_call}
  0x000001e99a3b067c: 1f40 00e8 

  0x000001e99a3b0680: ; ImmutableOopMap {[120]=Oop [536]=Oop }
                      ;*invokeinterface add {reexecute=0 rethrow=0 return_oop=0}
                      ; - jdk.internal.reflect.ClassFileAssembler::emitByte@5 (line 74)
                      ; - jdk.internal.reflect.ClassFileAssembler::emitShort@20 (line 64)
                      ; - jdk.internal.reflect.ClassFileAssembler::emitConstantPoolMethodref@8 (line 138)
                      ; - jdk.internal.reflect.AccessorGenerator::emitBoxingContantPoolEntries@988 (line 339)
  0x000001e99a3b0680: bca5 cafe | 488b b424 | 1802 0000 | 8b56 1c48 | 83fa 000f | 8429 0000 

  0x000001e99a3b0698: ;   {metadata('jdk/internal/reflect/ByteVectorImpl')}
  0x000001e99a3b0698: 0048 b8a0 | cd07 a1e9 | 0100 008b | 5a08 49ba | 0000 00a0 | e901 0000 | 4903 da48 | 3b43 380f 
  0x000001e99a3b06b8: 85af 4d00 | 00e9 0000 | 0000 4c8b | c248 3b02 | 8bbc 2424 | 0200 00c1 | ff08 81e7 | ff00 0000 
  0x000001e99a3b06d8: 400f beff 

  0x000001e99a3b06dc: ;   {optimized virtual_call}
  0x000001e99a3b06dc: 4c8b c7e8 

  0x000001e99a3b06e0: ; ImmutableOopMap {[120]=Oop [536]=Oop }
                      ;*invokeinterface add {reexecute=0 rethrow=0 return_oop=0}
                      ; - jdk.internal.reflect.ClassFileAssembler::emitByte@5 (line 74)
                      ; - jdk.internal.reflect.ClassFileAssembler::emitShort@10 (line 63)
                      ; - jdk.internal.reflect.ClassFileAssembler::emitConstantPoolMethodref@13 (line 139)
                      ; - jdk.internal.reflect.AccessorGenerator::emitBoxingContantPoolEntries@988 (line 339)
  0x000001e99a3b06e0: 5ca5 cafe | 488b b424 | 1802 0000 | 8b56 1c48 | 83fa 000f | 8429 0000 

  0x000001e99a3b06f8: ;   {metadata('jdk/internal/reflect/ByteVectorImpl')}
  0x000001e99a3b06f8: 0048 b8a0 | cd07 a1e9 | 0100 008b | 5a08 49ba | 0000 00a0 | e901 0000 | 4903 da48 | 3b43 380f 
  0x000001e99a3b0718: 8559 4d00 | 00e9 0000 | 0000 4c8b | c248 3b02 | 8bbc 2424 | 0200 0081 | e7ff 0000 | 0040 0fbe 
  0x000001e99a3b0738: ff4c 8bc7 

  0x000001e99a3b073c: ;   {optimized virtual_call}
  0x000001e99a3b073c: 6666 90e8 

  0x000001e99a3b0740: ; ImmutableOopMap {[120]=Oop [536]=Oop }
                      ;*invokeinterface add {reexecute=0 rethrow=0 return_oop=0}
                      ; - jdk.internal.reflect.ClassFileAssembler::emitByte@5 (line 74)
                      ; - jdk.internal.reflect.ClassFileAssembler::emitShort@20 (line 64)
                      ; - jdk.internal.reflect.ClassFileAssembler::emitConstantPoolMethodref@13 (line 139)
                      ; - jdk.internal.reflect.AccessorGenerator::emitBoxingContantPoolEntries@988 (line 339)
  0x000001e99a3b0740: fca4 cafe | 488b b424 | 1802 0000 | 440f bf46 | 1841 ffc0 | 6644 8946 | 1848 8b54 | 2478 8b72 
  0x000001e99a3b0760: 7044 0fbf | 4618 4183 | f800 0f84 | 1128 0000 | 41c1 e010 | 41c1 f810 | 6644 8942 

  0x000001e99a3b077c: ;   {oop("intValue"{0x00000000d467fcd8})}
  0x000001e99a3b077c: 5a49 b8d8 | fc67 d400 | 0000 0048 | 8bd6 0f1f 

  0x000001e99a3b078c: ;   {optimized virtual_call}
  0x000001e99a3b078c: 4400 00e8 

  0x000001e99a3b0790: ; ImmutableOopMap {[120]=Oop }
                      ;*invokevirtual emitConstantPoolUTF8 {reexecute=0 rethrow=0 return_oop=0}
                      ; - jdk.internal.reflect.AccessorGenerator::emitBoxingContantPoolEntries@1008 (line 341)
  0x000001e99a3b0790: 0c9c cffe | 488b 5424 | 788b 7270 

  0x000001e99a3b079c: ; implicit exception: dispatches to 0x000001e99a3b5485
                      ;   {oop("()I"{0x00000000d467fca8})}
  0x000001e99a3b079c: 483b 0649 | b8a8 fc67 | d400 0000 | 0048 8bd6 

  0x000001e99a3b07ac: ;   {optimized virtual_call}
  0x000001e99a3b07ac: 6666 90e8 

  0x000001e99a3b07b0: ; ImmutableOopMap {[120]=Oop }
                      ;*invokevirtual emitConstantPoolUTF8 {reexecute=0 rethrow=0 return_oop=0}
                      ; - jdk.internal.reflect.AccessorGenerator::emitBoxingContantPoolEntries@1017 (line 342)
  0x000001e99a3b07b0: ec9b cffe | 488b 5424 | 788b 7270 | 4889 b424 | 2802 0000 

  0x000001e99a3b07c4: ; implicit exception: dispatches to 0x000001e99a3b548a
  0x000001e99a3b07c4: 440f bf46 | 1841 83f8 | 000f 842e | 2700 0049 | 8bf8 c1e7 | 10c1 ff10 | 488b dfff | cb0f bfdb 
  0x000001e99a3b07e4: c1e3 10c1 | fb10 899c | 2430 0200 | 0041 83f8 | 000f 8486 | 2600 0089 | bc24 3402 | 0000 8b46 
  0x000001e99a3b0804: 1c48 83f8 | 000f 842a 

  0x000001e99a3b080c: ;   {metadata('jdk/internal/reflect/ByteVectorImpl')}
  0x000001e99a3b080c: 0000 0049 | bba0 cd07 | a1e9 0100 | 0044 8b48 | 0849 ba00 | 0000 a0e9 | 0100 004d | 03ca 4d3b 
  0x000001e99a3b082c: 5938 0f85 | 5b4c 0000 | e900 0000 | 004c 8bc0 

  0x000001e99a3b083c: ; implicit exception: dispatches to 0x000001e99a3b5494
  0x000001e99a3b083c: 483b 0041 | b80c 0000 | 0048 8bd0 | 0f1f 8000 

  0x000001e99a3b084c: ;   {optimized virtual_call}
  0x000001e99a3b084c: 0000 00e8 

  0x000001e99a3b0850: ; ImmutableOopMap {[552]=Oop [120]=Oop }
                      ;*invokeinterface add {reexecute=0 rethrow=0 return_oop=0}
                      ; - jdk.internal.reflect.ClassFileAssembler::emitByte@5 (line 74)
                      ; - jdk.internal.reflect.ClassFileAssembler::emitConstantPoolNameAndType@3 (line 119)
                      ; - jdk.internal.reflect.AccessorGenerator::emitBoxingContantPoolEntries@1042 (line 343)
  0x000001e99a3b0850: eca3 cafe | 488b b424 | 2802 0000 | 8b56 1c48 | 83fa 000f | 8429 0000 

  0x000001e99a3b0868: ;   {metadata('jdk/internal/reflect/ByteVectorImpl')}
  0x000001e99a3b0868: 0048 b8a0 | cd07 a1e9 | 0100 008b | 5a08 49ba | 0000 00a0 | e901 0000 | 4903 da48 | 3b43 380f 
  0x000001e99a3b0888: 850c 4c00 | 00e9 0000 | 0000 4c8b | c248 3b02 | 8b9c 2430 | 0200 00c1 | fb08 81e3 | ff00 0000 
  0x000001e99a3b08a8: 0fbe db4c 

  0x000001e99a3b08ac: ;   {optimized virtual_call}
  0x000001e99a3b08ac: 8bc3 90e8 

  0x000001e99a3b08b0: ; ImmutableOopMap {[120]=Oop [552]=Oop }
                      ;*invokeinterface add {reexecute=0 rethrow=0 return_oop=0}
                      ; - jdk.internal.reflect.ClassFileAssembler::emitByte@5 (line 74)
                      ; - jdk.internal.reflect.ClassFileAssembler::emitShort@10 (line 63)
                      ; - jdk.internal.reflect.ClassFileAssembler::emitConstantPoolNameAndType@8 (line 120)
                      ; - jdk.internal.reflect.AccessorGenerator::emitBoxingContantPoolEntries@1042 (line 343)
  0x000001e99a3b08b0: 8ca3 cafe | 488b b424 | 2802 0000 | 8b56 1c48 | 83fa 000f | 8429 0000 

  0x000001e99a3b08c8: ;   {metadata('jdk/internal/reflect/ByteVectorImpl')}
  0x000001e99a3b08c8: 0048 b8a0 | cd07 a1e9 | 0100 008b | 5a08 49ba | 0000 00a0 | e901 0000 | 4903 da48 | 3b43 380f 
  0x000001e99a3b08e8: 85b6 4b00 | 00e9 0000 | 0000 4c8b | c248 3b02 | 8b9c 2430 | 0200 0081 | e3ff 0000 | 000f bedb 
  0x000001e99a3b0908: 4c8b c30f 

  0x000001e99a3b090c: ;   {optimized virtual_call}
  0x000001e99a3b090c: 1f40 00e8 

  0x000001e99a3b0910: ; ImmutableOopMap {[120]=Oop [552]=Oop }
                      ;*invokeinterface add {reexecute=0 rethrow=0 return_oop=0}
                      ; - jdk.internal.reflect.ClassFileAssembler::emitByte@5 (line 74)
                      ; - jdk.internal.reflect.ClassFileAssembler::emitShort@20 (line 64)
                      ; - jdk.internal.reflect.ClassFileAssembler::emitConstantPoolNameAndType@8 (line 120)
                      ; - jdk.internal.reflect.AccessorGenerator::emitBoxingContantPoolEntries@1042 (line 343)
  0x000001e99a3b0910: 2ca3 cafe | 488b b424 | 2802 0000 | 8b56 1c48 | 83fa 000f | 8429 0000 

  0x000001e99a3b0928: ;   {metadata('jdk/internal/reflect/ByteVectorImpl')}
  0x000001e99a3b0928: 0048 b8a0 | cd07 a1e9 | 0100 008b | 5a08 49ba | 0000 00a0 | e901 0000 | 4903 da48 | 3b43 380f 
  0x000001e99a3b0948: 8560 4b00 | 00e9 0000 | 0000 4c8b | c248 3b02 | 8bbc 2434 | 0200 00c1 | ff08 81e7 | ff00 0000 
  0x000001e99a3b0968: 400f beff 

  0x000001e99a3b096c: ;   {optimized virtual_call}
  0x000001e99a3b096c: 4c8b c7e8 

  0x000001e99a3b0970: ; ImmutableOopMap {[120]=Oop [552]=Oop }
                      ;*invokeinterface add {reexecute=0 rethrow=0 return_oop=0}
                      ; - jdk.internal.reflect.ClassFileAssembler::emitByte@5 (line 74)
                      ; - jdk.internal.reflect.ClassFileAssembler::emitShort@10 (line 63)
                      ; - jdk.internal.reflect.ClassFileAssembler::emitConstantPoolNameAndType@13 (line 121)
                      ; - jdk.internal.reflect.AccessorGenerator::emitBoxingContantPoolEntries@1042 (line 343)
  0x000001e99a3b0970: cca2 cafe | 488b b424 | 2802 0000 | 8b56 1c48 | 83fa 000f | 8429 0000 

  0x000001e99a3b0988: ;   {metadata('jdk/internal/reflect/ByteVectorImpl')}
  0x000001e99a3b0988: 0048 b8a0 | cd07 a1e9 | 0100 008b | 5a08 49ba | 0000 00a0 | e901 0000 | 4903 da48 | 3b43 380f 
  0x000001e99a3b09a8: 850a 4b00 | 00e9 0000 | 0000 4c8b | c248 3b02 | 8bbc 2434 | 0200 0081 | e7ff 0000 | 0040 0fbe 
  0x000001e99a3b09c8: ff4c 8bc7 

  0x000001e99a3b09cc: ;   {optimized virtual_call}
  0x000001e99a3b09cc: 6666 90e8 

  0x000001e99a3b09d0: ; ImmutableOopMap {[120]=Oop [552]=Oop }
                      ;*invokeinterface add {reexecute=0 rethrow=0 return_oop=0}
                      ; - jdk.internal.reflect.ClassFileAssembler::emitByte@5 (line 74)
                      ; - jdk.internal.reflect.ClassFileAssembler::emitShort@20 (line 64)
                      ; - jdk.internal.reflect.ClassFileAssembler::emitConstantPoolNameAndType@13 (line 121)
                      ; - jdk.internal.reflect.AccessorGenerator::emitBoxingContantPoolEntries@1042 (line 343)
  0x000001e99a3b09d0: 6ca2 cafe | 488b b424 | 2802 0000 | 440f bf46 | 1841 ffc0 | 6644 8946 | 1848 8b54 | 2478 8b72 
  0x000001e99a3b09f0: 7048 89b4 | 2438 0200 | 0044 0fbf | 4618 4183 | f800 0f84 | f923 0000 | 498b f8c1 | e710 c1ff 
  0x000001e99a3b0a10: 1048 8bdf | 83eb 060f | bfdb c1e3 | 10c1 fb10 | 899c 2440 | 0200 0041 | 83f8 000f | 8450 2300 
  0x000001e99a3b0a30: 0089 bc24 | 4402 0000 | 8b46 1c48 | 83f8 000f | 842a 0000 

  0x000001e99a3b0a44: ;   {metadata('jdk/internal/reflect/ByteVectorImpl')}
  0x000001e99a3b0a44: 0049 bba0 | cd07 a1e9 | 0100 0044 | 8b48 0849 | ba00 0000 | a0e9 0100 | 004d 03ca | 4d3b 5938 
  0x000001e99a3b0a64: 0f85 5c4a | 0000 e900 | 0000 004c | 8bc0 483b | 0041 b80a | 0000 0048 

  0x000001e99a3b0a7c: ;   {optimized virtual_call}
  0x000001e99a3b0a7c: 8bd0 90e8 

  0x000001e99a3b0a80: ; ImmutableOopMap {[120]=Oop [568]=Oop }
                      ;*invokeinterface add {reexecute=0 rethrow=0 return_oop=0}
                      ; - jdk.internal.reflect.ClassFileAssembler::emitByte@5 (line 74)
                      ; - jdk.internal.reflect.ClassFileAssembler::emitConstantPoolMethodref@3 (line 137)
                      ; - jdk.internal.reflect.AccessorGenerator::emitBoxingContantPoolEntries@1068 (line 344)
  0x000001e99a3b0a80: bca1 cafe | 488b b424 | 3802 0000 | 8b56 1c48 | 83fa 000f | 8429 0000 

  0x000001e99a3b0a98: ;   {metadata('jdk/internal/reflect/ByteVectorImpl')}
  0x000001e99a3b0a98: 0048 b8a0 | cd07 a1e9 | 0100 008b | 5a08 49ba | 0000 00a0 | e901 0000 | 4903 da48 | 3b43 380f 
  0x000001e99a3b0ab8: 8513 4a00 | 00e9 0000 | 0000 4c8b | c248 3b02 | 8b9c 2440 | 0200 00c1 | fb08 81e3 | ff00 0000 
  0x000001e99a3b0ad8: 0fbe db4c 

  0x000001e99a3b0adc: ;   {optimized virtual_call}
  0x000001e99a3b0adc: 8bc3 90e8 

  0x000001e99a3b0ae0: ; ImmutableOopMap {[120]=Oop [568]=Oop }
                      ;*invokeinterface add {reexecute=0 rethrow=0 return_oop=0}
                      ; - jdk.internal.reflect.ClassFileAssembler::emitByte@5 (line 74)
                      ; - jdk.internal.reflect.ClassFileAssembler::emitShort@10 (line 63)
                      ; - jdk.internal.reflect.ClassFileAssembler::emitConstantPoolMethodref@8 (line 138)
                      ; - jdk.internal.reflect.AccessorGenerator::emitBoxingContantPoolEntries@1068 (line 344)
  0x000001e99a3b0ae0: 5ca1 cafe | 488b b424 | 3802 0000 | 8b56 1c48 | 83fa 000f | 8429 0000 

  0x000001e99a3b0af8: ;   {metadata('jdk/internal/reflect/ByteVectorImpl')}
  0x000001e99a3b0af8: 0048 b8a0 | cd07 a1e9 | 0100 008b | 5a08 49ba | 0000 00a0 | e901 0000 | 4903 da48 | 3b43 380f 
  0x000001e99a3b0b18: 85bd 4900 | 00e9 0000 | 0000 4c8b | c248 3b02 | 8b9c 2440 | 0200 0081 | e3ff 0000 | 000f bedb 
  0x000001e99a3b0b38: 4c8b c30f 

  0x000001e99a3b0b3c: ;   {optimized virtual_call}
  0x000001e99a3b0b3c: 1f40 00e8 

  0x000001e99a3b0b40: ; ImmutableOopMap {[120]=Oop [568]=Oop }
                      ;*invokeinterface add {reexecute=0 rethrow=0 return_oop=0}
                      ; - jdk.internal.reflect.ClassFileAssembler::emitByte@5 (line 74)
                      ; - jdk.internal.reflect.ClassFileAssembler::emitShort@20 (line 64)
                      ; - jdk.internal.reflect.ClassFileAssembler::emitConstantPoolMethodref@8 (line 138)
                      ; - jdk.internal.reflect.AccessorGenerator::emitBoxingContantPoolEntries@1068 (line 344)
  0x000001e99a3b0b40: fca0 cafe | 488b b424 | 3802 0000 | 8b56 1c48 | 83fa 000f | 8429 0000 

  0x000001e99a3b0b58: ;   {metadata('jdk/internal/reflect/ByteVectorImpl')}
  0x000001e99a3b0b58: 0048 b8a0 | cd07 a1e9 | 0100 008b | 5a08 49ba | 0000 00a0 | e901 0000 | 4903 da48 | 3b43 380f 
  0x000001e99a3b0b78: 8567 4900 | 00e9 0000 | 0000 4c8b | c248 3b02 | 8bbc 2444 | 0200 00c1 | ff08 81e7 | ff00 0000 
  0x000001e99a3b0b98: 400f beff 

  0x000001e99a3b0b9c: ;   {optimized virtual_call}
  0x000001e99a3b0b9c: 4c8b c7e8 

  0x000001e99a3b0ba0: ; ImmutableOopMap {[120]=Oop [568]=Oop }
                      ;*invokeinterface add {reexecute=0 rethrow=0 return_oop=0}
                      ; - jdk.internal.reflect.ClassFileAssembler::emitByte@5 (line 74)
                      ; - jdk.internal.reflect.ClassFileAssembler::emitShort@10 (line 63)
                      ; - jdk.internal.reflect.ClassFileAssembler::emitConstantPoolMethodref@13 (line 139)
                      ; - jdk.internal.reflect.AccessorGenerator::emitBoxingContantPoolEntries@1068 (line 344)
  0x000001e99a3b0ba0: 9ca0 cafe | 488b b424 | 3802 0000 | 8b56 1c48 | 83fa 000f | 8429 0000 

  0x000001e99a3b0bb8: ;   {metadata('jdk/internal/reflect/ByteVectorImpl')}
  0x000001e99a3b0bb8: 0048 b8a0 | cd07 a1e9 | 0100 008b | 5a08 49ba | 0000 00a0 | e901 0000 | 4903 da48 | 3b43 380f 
  0x000001e99a3b0bd8: 8511 4900 | 00e9 0000 | 0000 4c8b | c248 3b02 | 8bbc 2444 | 0200 0081 | e7ff 0000 | 0040 0fbe 
  0x000001e99a3b0bf8: ff4c 8bc7 

  0x000001e99a3b0bfc: ;   {optimized virtual_call}
  0x000001e99a3b0bfc: 6666 90e8 

  0x000001e99a3b0c00: ; ImmutableOopMap {[120]=Oop [568]=Oop }
                      ;*invokeinterface add {reexecute=0 rethrow=0 return_oop=0}
                      ; - jdk.internal.reflect.ClassFileAssembler::emitByte@5 (line 74)
                      ; - jdk.internal.reflect.ClassFileAssembler::emitShort@20 (line 64)
                      ; - jdk.internal.reflect.ClassFileAssembler::emitConstantPoolMethodref@13 (line 139)
                      ; - jdk.internal.reflect.AccessorGenerator::emitBoxingContantPoolEntries@1068 (line 344)
  0x000001e99a3b0c00: 3ca0 cafe | 488b b424 | 3802 0000 | 440f bf46 | 1841 ffc0 | 6644 8946 | 1848 8b54 | 2478 8b72 
  0x000001e99a3b0c20: 7044 0fbf | 4618 4183 | f800 0f84 | d120 0000 | 41c1 e010 | 41c1 f810 | 6644 8942 

  0x000001e99a3b0c3c: ;   {oop("java/lang/Long"{0x00000000d467fc70})}
  0x000001e99a3b0c3c: 5c49 b870 | fc67 d400 | 0000 0048 | 8bd6 0f1f 

  0x000001e99a3b0c4c: ;   {optimized virtual_call}
  0x000001e99a3b0c4c: 4400 00e8 

  0x000001e99a3b0c50: ; ImmutableOopMap {[120]=Oop }
                      ;*invokevirtual emitConstantPoolUTF8 {reexecute=0 rethrow=0 return_oop=0}
                      ; - jdk.internal.reflect.AccessorGenerator::emitBoxingContantPoolEntries@1088 (line 348)
  0x000001e99a3b0c50: 4c97 cffe | 488b 5424 | 788b 7270 | 4889 b424 | 4802 0000 

  0x000001e99a3b0c64: ; implicit exception: dispatches to 0x000001e99a3b54fd
  0x000001e99a3b0c64: 440f bf46 | 1841 83f8 | 000f 840e | 2000 008b | 7e1c 41c1 | e010 41c1 | f810 4883 | ff00 0f84 
  0x000001e99a3b0c84: 2900 0000 

  0x000001e99a3b0c88: ;   {metadata('jdk/internal/reflect/ByteVectorImpl')}
  0x000001e99a3b0c88: 49b9 a0cd | 07a1 e901 | 0000 8b4f | 0849 ba00 | 0000 a0e9 | 0100 0049 | 03ca 4c3b | 4938 0f85 
  0x000001e99a3b0ca8: 5648 0000 | e900 0000 | 0048 8bdf 

  0x000001e99a3b0cb4: ; implicit exception: dispatches to 0x000001e99a3b5507
  0x000001e99a3b0cb4: 483b 0744 | 8984 2450 | 0200 0041 | b807 0000 | 0048 8bd7 | 0f1f 8000 

  0x000001e99a3b0ccc: ;   {optimized virtual_call}
  0x000001e99a3b0ccc: 0000 00e8 

  0x000001e99a3b0cd0: ; ImmutableOopMap {[584]=Oop [120]=Oop }
                      ;*invokeinterface add {reexecute=0 rethrow=0 return_oop=0}
                      ; - jdk.internal.reflect.ClassFileAssembler::emitByte@5 (line 74)
                      ; - jdk.internal.reflect.ClassFileAssembler::emitConstantPoolClass@3 (line 113)
                      ; - jdk.internal.reflect.AccessorGenerator::emitBoxingContantPoolEntries@1102 (line 349)
  0x000001e99a3b0cd0: 6c9f cafe | 488b b424 | 4802 0000 | 8b56 1c48 | 83fa 000f | 8429 0000 

  0x000001e99a3b0ce8: ;   {metadata('jdk/internal/reflect/ByteVectorImpl')}
  0x000001e99a3b0ce8: 0048 b8a0 | cd07 a1e9 | 0100 008b | 5a08 49ba | 0000 00a0 | e901 0000 | 4903 da48 | 3b43 380f 
  0x000001e99a3b0d08: 85ff 4700 | 00e9 0000 | 0000 4c8b | c248 3b02 | 448b 8424 | 5002 0000 | 41c1 f808 | 4181 e0ff 
  0x000001e99a3b0d28: 0000 0045 

  0x000001e99a3b0d2c: ;   {optimized virtual_call}
  0x000001e99a3b0d2c: 0fbe c0e8 

  0x000001e99a3b0d30: ; ImmutableOopMap {[120]=Oop [584]=Oop }
                      ;*invokeinterface add {reexecute=0 rethrow=0 return_oop=0}
                      ; - jdk.internal.reflect.ClassFileAssembler::emitByte@5 (line 74)
                      ; - jdk.internal.reflect.ClassFileAssembler::emitShort@10 (line 63)
                      ; - jdk.internal.reflect.ClassFileAssembler::emitConstantPoolClass@8 (line 114)
                      ; - jdk.internal.reflect.AccessorGenerator::emitBoxingContantPoolEntries@1102 (line 349)
  0x000001e99a3b0d30: 0c9f cafe | 488b b424 | 4802 0000 | 8b56 1c48 | 83fa 000f | 8429 0000 

  0x000001e99a3b0d48: ;   {metadata('jdk/internal/reflect/ByteVectorImpl')}
  0x000001e99a3b0d48: 0048 b8a0 | cd07 a1e9 | 0100 008b | 5a08 49ba | 0000 00a0 | e901 0000 | 4903 da48 | 3b43 380f 
  0x000001e99a3b0d68: 85a9 4700 | 00e9 0000 | 0000 4c8b | c248 3b02 | 448b 8424 | 5002 0000 | 4181 e0ff | 0000 0045 
  0x000001e99a3b0d88: 0fbe c00f 

  0x000001e99a3b0d8c: ;   {optimized virtual_call}
  0x000001e99a3b0d8c: 1f40 00e8 

  0x000001e99a3b0d90: ; ImmutableOopMap {[120]=Oop [584]=Oop }
                      ;*invokeinterface add {reexecute=0 rethrow=0 return_oop=0}
                      ; - jdk.internal.reflect.ClassFileAssembler::emitByte@5 (line 74)
                      ; - jdk.internal.reflect.ClassFileAssembler::emitShort@20 (line 64)
                      ; - jdk.internal.reflect.ClassFileAssembler::emitConstantPoolClass@8 (line 114)
                      ; - jdk.internal.reflect.AccessorGenerator::emitBoxingContantPoolEntries@1102 (line 349)
  0x000001e99a3b0d90: ac9e cafe | 488b b424 | 4802 0000 | 440f bf46 | 1841 ffc0 | 6644 8946 | 1848 8b54 | 2478 8b72 
  0x000001e99a3b0db0: 7044 0fbf | 4618 4183 | f800 0f84 | 411e 0000 | 41c1 e010 | 41c1 f810 | 6644 8942 

  0x000001e99a3b0dcc: ;   {oop("(J)Ljava/lang/Long;"{0x00000000d467fc30})}
  0x000001e99a3b0dcc: 5e49 b830 | fc67 d400 | 0000 0048 | 8bd6 0f1f 

  0x000001e99a3b0ddc: ;   {optimized virtual_call}
  0x000001e99a3b0ddc: 4400 00e8 

  0x000001e99a3b0de0: ; ImmutableOopMap {[120]=Oop }
                      ;*invokevirtual emitConstantPoolUTF8 {reexecute=0 rethrow=0 return_oop=0}
                      ; - jdk.internal.reflect.AccessorGenerator::emitBoxingContantPoolEntries@1122 (line 351)
  0x000001e99a3b0de0: bc95 cffe | 488b 5424 | 788b 7270 | 4889 b424 | 5802 0000 | 0fbf 7a38 | 89bc 2454 | 0200 0044 
  0x000001e99a3b0e00: 0fbf 4618 | 4183 f800 | 0f84 731d | 0000 8b5e | 1c41 c1e0 | 1041 c1f8 | 1048 83fb | 000f 842a 
  0x000001e99a3b0e20: ;   {metadata('jdk/internal/reflect/ByteVectorImpl')}
  0x000001e99a3b0e20: 0000 0049 | bba0 cd07 | a1e9 0100 | 0044 8b4b | 0849 ba00 | 0000 a0e9 | 0100 004d | 03ca 4d3b 
  0x000001e99a3b0e40: 5938 0f85 | e246 0000 | e900 0000 | 0048 8bc3 

  0x000001e99a3b0e50: ; implicit exception: dispatches to 0x000001e99a3b552f
  0x000001e99a3b0e50: 483b 0344 | 8984 2460 | 0200 0041 | b80c 0000 | 0048 8bd3 

  0x000001e99a3b0e64: ;   {optimized virtual_call}
  0x000001e99a3b0e64: 6666 90e8 

  0x000001e99a3b0e68: ; ImmutableOopMap {[600]=Oop [120]=Oop }
                      ;*invokeinterface add {reexecute=0 rethrow=0 return_oop=0}
                      ; - jdk.internal.reflect.ClassFileAssembler::emitByte@5 (line 74)
                      ; - jdk.internal.reflect.ClassFileAssembler::emitConstantPoolNameAndType@3 (line 119)
                      ; - jdk.internal.reflect.AccessorGenerator::emitBoxingContantPoolEntries@1140 (line 352)
  0x000001e99a3b0e68: d49d cafe | 488b b424 | 5802 0000 | 8b56 1c48 | 83fa 000f | 8429 0000 

  0x000001e99a3b0e80: ;   {metadata('jdk/internal/reflect/ByteVectorImpl')}
  0x000001e99a3b0e80: 0048 b8a0 | cd07 a1e9 | 0100 008b | 5a08 49ba | 0000 00a0 | e901 0000 | 4903 da48 | 3b43 380f 
  0x000001e99a3b0ea0: 858f 4600 | 00e9 0000 | 0000 4c8b | c248 3b02 | 8bbc 2454 | 0200 00c1 | ff08 81e7 | ff00 0000 
  0x000001e99a3b0ec0: 400f beff 

  0x000001e99a3b0ec4: ;   {optimized virtual_call}
  0x000001e99a3b0ec4: 4c8b c7e8 

  0x000001e99a3b0ec8: ; ImmutableOopMap {[120]=Oop [600]=Oop }
                      ;*invokeinterface add {reexecute=0 rethrow=0 return_oop=0}
                      ; - jdk.internal.reflect.ClassFileAssembler::emitByte@5 (line 74)
                      ; - jdk.internal.reflect.ClassFileAssembler::emitShort@10 (line 63)
                      ; - jdk.internal.reflect.ClassFileAssembler::emitConstantPoolNameAndType@8 (line 120)
                      ; - jdk.internal.reflect.AccessorGenerator::emitBoxingContantPoolEntries@1140 (line 352)
  0x000001e99a3b0ec8: 749d cafe | 488b b424 | 5802 0000 | 8b56 1c48 | 83fa 000f | 8429 0000 

  0x000001e99a3b0ee0: ;   {metadata('jdk/internal/reflect/ByteVectorImpl')}
  0x000001e99a3b0ee0: 0048 b8a0 | cd07 a1e9 | 0100 008b | 5a08 49ba | 0000 00a0 | e901 0000 | 4903 da48 | 3b43 380f 
  0x000001e99a3b0f00: 8539 4600 | 00e9 0000 | 0000 4c8b | c248 3b02 | 8bbc 2454 | 0200 0081 | e7ff 0000 | 0040 0fbe 
  0x000001e99a3b0f20: ff4c 8bc7 

  0x000001e99a3b0f24: ;   {optimized virtual_call}
  0x000001e99a3b0f24: 6666 90e8 

  0x000001e99a3b0f28: ; ImmutableOopMap {[120]=Oop [600]=Oop }
                      ;*invokeinterface add {reexecute=0 rethrow=0 return_oop=0}
                      ; - jdk.internal.reflect.ClassFileAssembler::emitByte@5 (line 74)
                      ; - jdk.internal.reflect.ClassFileAssembler::emitShort@20 (line 64)
                      ; - jdk.internal.reflect.ClassFileAssembler::emitConstantPoolNameAndType@8 (line 120)
                      ; - jdk.internal.reflect.AccessorGenerator::emitBoxingContantPoolEntries@1140 (line 352)
  0x000001e99a3b0f28: 149d cafe | 488b b424 | 5802 0000 | 8b56 1c48 | 83fa 000f | 8429 0000 

  0x000001e99a3b0f40: ;   {metadata('jdk/internal/reflect/ByteVectorImpl')}
  0x000001e99a3b0f40: 0048 b8a0 | cd07 a1e9 | 0100 008b | 5a08 49ba | 0000 00a0 | e901 0000 | 4903 da48 | 3b43 380f 
  0x000001e99a3b0f60: 85e3 4500 | 00e9 0000 | 0000 4c8b | c248 3b02 | 448b 8424 | 6002 0000 | 41c1 f808 | 4181 e0ff 
  0x000001e99a3b0f80: 0000 0045 

  0x000001e99a3b0f84: ;   {optimized virtual_call}
  0x000001e99a3b0f84: 0fbe c0e8 

  0x000001e99a3b0f88: ; ImmutableOopMap {[120]=Oop [600]=Oop }
                      ;*invokeinterface add {reexecute=0 rethrow=0 return_oop=0}
                      ; - jdk.internal.reflect.ClassFileAssembler::emitByte@5 (line 74)
                      ; - jdk.internal.reflect.ClassFileAssembler::emitShort@10 (line 63)
                      ; - jdk.internal.reflect.ClassFileAssembler::emitConstantPoolNameAndType@13 (line 121)
                      ; - jdk.internal.reflect.AccessorGenerator::emitBoxingContantPoolEntries@1140 (line 352)
  0x000001e99a3b0f88: b49c cafe | 488b b424 | 5802 0000 | 8b56 1c48 | 83fa 000f | 8429 0000 

  0x000001e99a3b0fa0: ;   {metadata('jdk/internal/reflect/ByteVectorImpl')}
  0x000001e99a3b0fa0: 0048 b8a0 | cd07 a1e9 | 0100 008b | 5a08 49ba | 0000 00a0 | e901 0000 | 4903 da48 | 3b43 380f 
  0x000001e99a3b0fc0: 858d 4500 | 00e9 0000 | 0000 4c8b | c248 3b02 | 448b 8424 | 6002 0000 | 4181 e0ff | 0000 0045 
  0x000001e99a3b0fe0: 0fbe c00f 

  0x000001e99a3b0fe4: ;   {optimized virtual_call}
  0x000001e99a3b0fe4: 1f40 00e8 

  0x000001e99a3b0fe8: ; ImmutableOopMap {[120]=Oop [600]=Oop }
                      ;*invokeinterface add {reexecute=0 rethrow=0 return_oop=0}
                      ; - jdk.internal.reflect.ClassFileAssembler::emitByte@5 (line 74)
                      ; - jdk.internal.reflect.ClassFileAssembler::emitShort@20 (line 64)
                      ; - jdk.internal.reflect.ClassFileAssembler::emitConstantPoolNameAndType@13 (line 121)
                      ; - jdk.internal.reflect.AccessorGenerator::emitBoxingContantPoolEntries@1140 (line 352)
  0x000001e99a3b0fe8: 549c cafe | 488b b424 | 5802 0000 | 440f bf46 | 1841 ffc0 | 6644 8946 | 1848 8b54 | 2478 8b72 
  0x000001e99a3b1008: 7048 89b4 | 2468 0200 | 0044 0fbf | 4618 4183 | f800 0f84 | e11a 0000 | 498b f8c1 | e710 c1ff 
  0x000001e99a3b1028: 1048 8bdf | 83eb 020f | bfdb c1e3 | 10c1 fb10 | 899c 2464 | 0200 0041 | 83f8 000f | 8438 1a00 
  0x000001e99a3b1048: 0089 bc24 | 7002 0000 | 8b46 1c48 | 83f8 000f | 842a 0000 

  0x000001e99a3b105c: ;   {metadata('jdk/internal/reflect/ByteVectorImpl')}
  0x000001e99a3b105c: 0049 bba0 | cd07 a1e9 | 0100 0044 | 8b48 0849 | ba00 0000 | a0e9 0100 | 004d 03ca | 4d3b 5938 
  0x000001e99a3b107c: 0f85 df44 | 0000 e900 | 0000 004c | 8bc0 483b | 0041 b80a | 0000 0048 

  0x000001e99a3b1094: ;   {optimized virtual_call}
  0x000001e99a3b1094: 8bd0 90e8 

  0x000001e99a3b1098: ; ImmutableOopMap {[616]=Oop [120]=Oop }
                      ;*invokeinterface add {reexecute=0 rethrow=0 return_oop=0}
                      ; - jdk.internal.reflect.ClassFileAssembler::emitByte@5 (line 74)
                      ; - jdk.internal.reflect.ClassFileAssembler::emitConstantPoolMethodref@3 (line 137)
                      ; - jdk.internal.reflect.AccessorGenerator::emitBoxingContantPoolEntries@1165 (line 353)
  0x000001e99a3b1098: a49b cafe | 488b b424 | 6802 0000 | 8b56 1c48 | 83fa 000f | 8429 0000 

  0x000001e99a3b10b0: ;   {metadata('jdk/internal/reflect/ByteVectorImpl')}
  0x000001e99a3b10b0: 0048 b8a0 | cd07 a1e9 | 0100 008b | 5a08 49ba | 0000 00a0 | e901 0000 | 4903 da48 | 3b43 380f 
  0x000001e99a3b10d0: 8596 4400 | 00e9 0000 | 0000 4c8b | c248 3b02 | 8b9c 2464 | 0200 00c1 | fb08 81e3 | ff00 0000 
  0x000001e99a3b10f0: 0fbe db4c 

  0x000001e99a3b10f4: ;   {optimized virtual_call}
  0x000001e99a3b10f4: 8bc3 90e8 

  0x000001e99a3b10f8: ; ImmutableOopMap {[120]=Oop [616]=Oop }
                      ;*invokeinterface add {reexecute=0 rethrow=0 return_oop=0}
                      ; - jdk.internal.reflect.ClassFileAssembler::emitByte@5 (line 74)
                      ; - jdk.internal.reflect.ClassFileAssembler::emitShort@10 (line 63)
                      ; - jdk.internal.reflect.ClassFileAssembler::emitConstantPoolMethodref@8 (line 138)
                      ; - jdk.internal.reflect.AccessorGenerator::emitBoxingContantPoolEntries@1165 (line 353)
  0x000001e99a3b10f8: 449b cafe | 488b b424 | 6802 0000 | 8b56 1c48 | 83fa 000f | 8429 0000 

  0x000001e99a3b1110: ;   {metadata('jdk/internal/reflect/ByteVectorImpl')}
  0x000001e99a3b1110: 0048 b8a0 | cd07 a1e9 | 0100 008b | 5a08 49ba | 0000 00a0 | e901 0000 | 4903 da48 | 3b43 380f 
  0x000001e99a3b1130: 8540 4400 | 00e9 0000 | 0000 4c8b | c248 3b02 | 8b9c 2464 | 0200 0081 | e3ff 0000 | 000f bedb 
  0x000001e99a3b1150: 4c8b c30f 

  0x000001e99a3b1154: ;   {optimized virtual_call}
  0x000001e99a3b1154: 1f40 00e8 

  0x000001e99a3b1158: ; ImmutableOopMap {[120]=Oop [616]=Oop }
                      ;*invokeinterface add {reexecute=0 rethrow=0 return_oop=0}
                      ; - jdk.internal.reflect.ClassFileAssembler::emitByte@5 (line 74)
                      ; - jdk.internal.reflect.ClassFileAssembler::emitShort@20 (line 64)
                      ; - jdk.internal.reflect.ClassFileAssembler::emitConstantPoolMethodref@8 (line 138)
                      ; - jdk.internal.reflect.AccessorGenerator::emitBoxingContantPoolEntries@1165 (line 353)
  0x000001e99a3b1158: e49a cafe | 488b b424 | 6802 0000 | 8b56 1c48 | 83fa 000f | 8429 0000 

  0x000001e99a3b1170: ;   {metadata('jdk/internal/reflect/ByteVectorImpl')}
  0x000001e99a3b1170: 0048 b8a0 | cd07 a1e9 | 0100 008b | 5a08 49ba | 0000 00a0 | e901 0000 | 4903 da48 | 3b43 380f 
  0x000001e99a3b1190: 85ea 4300 | 00e9 0000 | 0000 4c8b | c248 3b02 | 8bbc 2470 | 0200 00c1 | ff08 81e7 | ff00 0000 
  0x000001e99a3b11b0: 400f beff 

  0x000001e99a3b11b4: ;   {optimized virtual_call}
  0x000001e99a3b11b4: 4c8b c7e8 

  0x000001e99a3b11b8: ; ImmutableOopMap {[120]=Oop [616]=Oop }
                      ;*invokeinterface add {reexecute=0 rethrow=0 return_oop=0}
                      ; - jdk.internal.reflect.ClassFileAssembler::emitByte@5 (line 74)
                      ; - jdk.internal.reflect.ClassFileAssembler::emitShort@10 (line 63)
                      ; - jdk.internal.reflect.ClassFileAssembler::emitConstantPoolMethodref@13 (line 139)
                      ; - jdk.internal.reflect.AccessorGenerator::emitBoxingContantPoolEntries@1165 (line 353)
  0x000001e99a3b11b8: 849a cafe | 488b b424 | 6802 0000 | 8b56 1c48 | 83fa 000f | 8429 0000 

  0x000001e99a3b11d0: ;   {metadata('jdk/internal/reflect/ByteVectorImpl')}
  0x000001e99a3b11d0: 0048 b8a0 | cd07 a1e9 | 0100 008b | 5a08 49ba | 0000 00a0 | e901 0000 | 4903 da48 | 3b43 380f 
  0x000001e99a3b11f0: 8594 4300 | 00e9 0000 | 0000 4c8b | c248 3b02 | 8bbc 2470 | 0200 0081 | e7ff 0000 | 0040 0fbe 
  0x000001e99a3b1210: ff4c 8bc7 

  0x000001e99a3b1214: ;   {optimized virtual_call}
  0x000001e99a3b1214: 6666 90e8 

  0x000001e99a3b1218: ; ImmutableOopMap {[120]=Oop [616]=Oop }
                      ;*invokeinterface add {reexecute=0 rethrow=0 return_oop=0}
                      ; - jdk.internal.reflect.ClassFileAssembler::emitByte@5 (line 74)
                      ; - jdk.internal.reflect.ClassFileAssembler::emitShort@20 (line 64)
                      ; - jdk.internal.reflect.ClassFileAssembler::emitConstantPoolMethodref@13 (line 139)
                      ; - jdk.internal.reflect.AccessorGenerator::emitBoxingContantPoolEntries@1165 (line 353)
  0x000001e99a3b1218: 249a cafe | 488b b424 | 6802 0000 | 440f bf46 | 1841 ffc0 | 6644 8946 | 1848 8b54 | 2478 8b72 
  0x000001e99a3b1238: 7044 0fbf | 4618 4183 | f800 0f84 | b917 0000 | 41c1 e010 | 41c1 f810 | 6644 8942 

  0x000001e99a3b1254: ;   {oop("longValue"{0x00000000d467fbf8})}
  0x000001e99a3b1254: 6049 b8f8 | fb67 d400 | 0000 0048 | 8bd6 0f1f 

  0x000001e99a3b1264: ;   {optimized virtual_call}
  0x000001e99a3b1264: 4400 00e8 

  0x000001e99a3b1268: ; ImmutableOopMap {[120]=Oop }
                      ;*invokevirtual emitConstantPoolUTF8 {reexecute=0 rethrow=0 return_oop=0}
                      ; - jdk.internal.reflect.AccessorGenerator::emitBoxingContantPoolEntries@1185 (line 355)
  0x000001e99a3b1268: 3491 cffe | 488b 5424 | 788b 7270 

  0x000001e99a3b1274: ; implicit exception: dispatches to 0x000001e99a3b5598
                      ;   {oop("()J"{0x00000000d467fbc8})}
  0x000001e99a3b1274: 483b 0649 | b8c8 fb67 | d400 0000 | 0048 8bd6 

  0x000001e99a3b1284: ;   {optimized virtual_call}
  0x000001e99a3b1284: 6666 90e8 

  0x000001e99a3b1288: ; ImmutableOopMap {[120]=Oop }
                      ;*invokevirtual emitConstantPoolUTF8 {reexecute=0 rethrow=0 return_oop=0}
                      ; - jdk.internal.reflect.AccessorGenerator::emitBoxingContantPoolEntries@1194 (line 356)
  0x000001e99a3b1288: 1491 cffe | 488b 5424 | 788b 7270 | 4889 b424 | 7802 0000 

  0x000001e99a3b129c: ; implicit exception: dispatches to 0x000001e99a3b559d
  0x000001e99a3b129c: 440f bf46 | 1841 83f8 | 000f 84d6 | 1600 0049 | 8bf8 c1e7 | 10c1 ff10 | 488b dfff | cb0f bfdb 
  0x000001e99a3b12bc: c1e3 10c1 | fb10 899c | 2474 0200 | 0041 83f8 | 000f 842e | 1600 0089 | bc24 8002 | 0000 8b46 
  0x000001e99a3b12dc: 1c48 83f8 | 000f 842a 

  0x000001e99a3b12e4: ;   {metadata('jdk/internal/reflect/ByteVectorImpl')}
  0x000001e99a3b12e4: 0000 0049 | bba0 cd07 | a1e9 0100 | 0044 8b48 | 0849 ba00 | 0000 a0e9 | 0100 004d | 03ca 4d3b 
  0x000001e99a3b1304: 5938 0f85 | 9642 0000 | e900 0000 | 004c 8bc0 

  0x000001e99a3b1314: ; implicit exception: dispatches to 0x000001e99a3b55a7
  0x000001e99a3b1314: 483b 0041 | b80c 0000 | 0048 8bd0 | 0f1f 8000 

  0x000001e99a3b1324: ;   {optimized virtual_call}
  0x000001e99a3b1324: 0000 00e8 

  0x000001e99a3b1328: ; ImmutableOopMap {[632]=Oop [120]=Oop }
                      ;*invokeinterface add {reexecute=0 rethrow=0 return_oop=0}
                      ; - jdk.internal.reflect.ClassFileAssembler::emitByte@5 (line 74)
                      ; - jdk.internal.reflect.ClassFileAssembler::emitConstantPoolNameAndType@3 (line 119)
                      ; - jdk.internal.reflect.AccessorGenerator::emitBoxingContantPoolEntries@1219 (line 357)
  0x000001e99a3b1328: 1499 cafe | 488b b424 | 7802 0000 | 8b56 1c48 | 83fa 000f | 8429 0000 

  0x000001e99a3b1340: ;   {metadata('jdk/internal/reflect/ByteVectorImpl')}
  0x000001e99a3b1340: 0048 b8a0 | cd07 a1e9 | 0100 008b | 5a08 49ba | 0000 00a0 | e901 0000 | 4903 da48 | 3b43 380f 
  0x000001e99a3b1360: 8547 4200 | 00e9 0000 | 0000 4c8b | c248 3b02 | 8b9c 2474 | 0200 00c1 | fb08 81e3 | ff00 0000 
  0x000001e99a3b1380: 0fbe db4c 

  0x000001e99a3b1384: ;   {optimized virtual_call}
  0x000001e99a3b1384: 8bc3 90e8 

  0x000001e99a3b1388: ; ImmutableOopMap {[120]=Oop [632]=Oop }
                      ;*invokeinterface add {reexecute=0 rethrow=0 return_oop=0}
                      ; - jdk.internal.reflect.ClassFileAssembler::emitByte@5 (line 74)
                      ; - jdk.internal.reflect.ClassFileAssembler::emitShort@10 (line 63)
                      ; - jdk.internal.reflect.ClassFileAssembler::emitConstantPoolNameAndType@8 (line 120)
                      ; - jdk.internal.reflect.AccessorGenerator::emitBoxingContantPoolEntries@1219 (line 357)
  0x000001e99a3b1388: b498 cafe | 488b b424 | 7802 0000 | 8b56 1c48 | 83fa 000f | 8429 0000 

  0x000001e99a3b13a0: ;   {metadata('jdk/internal/reflect/ByteVectorImpl')}
  0x000001e99a3b13a0: 0048 b8a0 | cd07 a1e9 | 0100 008b | 5a08 49ba | 0000 00a0 | e901 0000 | 4903 da48 | 3b43 380f 
  0x000001e99a3b13c0: 85f1 4100 | 00e9 0000 | 0000 4c8b | c248 3b02 | 8b9c 2474 | 0200 0081 | e3ff 0000 | 000f bedb 
  0x000001e99a3b13e0: 4c8b c30f 

  0x000001e99a3b13e4: ;   {optimized virtual_call}
  0x000001e99a3b13e4: 1f40 00e8 

  0x000001e99a3b13e8: ; ImmutableOopMap {[120]=Oop [632]=Oop }
                      ;*invokeinterface add {reexecute=0 rethrow=0 return_oop=0}
                      ; - jdk.internal.reflect.ClassFileAssembler::emitByte@5 (line 74)
                      ; - jdk.internal.reflect.ClassFileAssembler::emitShort@20 (line 64)
                      ; - jdk.internal.reflect.ClassFileAssembler::emitConstantPoolNameAndType@8 (line 120)
                      ; - jdk.internal.reflect.AccessorGenerator::emitBoxingContantPoolEntries@1219 (line 357)
  0x000001e99a3b13e8: 5498 cafe | 488b b424 | 7802 0000 | 8b56 1c48 | 83fa 000f | 8429 0000 

  0x000001e99a3b1400: ;   {metadata('jdk/internal/reflect/ByteVectorImpl')}
  0x000001e99a3b1400: 0048 b8a0 | cd07 a1e9 | 0100 008b | 5a08 49ba | 0000 00a0 | e901 0000 | 4903 da48 | 3b43 380f 
  0x000001e99a3b1420: 859b 4100 | 00e9 0000 | 0000 4c8b | c248 3b02 | 8bbc 2480 | 0200 00c1 | ff08 81e7 | ff00 0000 
  0x000001e99a3b1440: 400f beff 

  0x000001e99a3b1444: ;   {optimized virtual_call}
  0x000001e99a3b1444: 4c8b c7e8 

  0x000001e99a3b1448: ; ImmutableOopMap {[120]=Oop [632]=Oop }
                      ;*invokeinterface add {reexecute=0 rethrow=0 return_oop=0}
                      ; - jdk.internal.reflect.ClassFileAssembler::emitByte@5 (line 74)
                      ; - jdk.internal.reflect.ClassFileAssembler::emitShort@10 (line 63)
                      ; - jdk.internal.reflect.ClassFileAssembler::emitConstantPoolNameAndType@13 (line 121)
                      ; - jdk.internal.reflect.AccessorGenerator::emitBoxingContantPoolEntries@1219 (line 357)
  0x000001e99a3b1448: f497 cafe | 488b b424 | 7802 0000 | 8b56 1c48 | 83fa 000f | 8429 0000 

  0x000001e99a3b1460: ;   {metadata('jdk/internal/reflect/ByteVectorImpl')}
  0x000001e99a3b1460: 0048 b8a0 | cd07 a1e9 | 0100 008b | 5a08 49ba | 0000 00a0 | e901 0000 | 4903 da48 | 3b43 380f 
  0x000001e99a3b1480: 8545 4100 | 00e9 0000 | 0000 4c8b | c248 3b02 | 8bbc 2480 | 0200 0081 | e7ff 0000 | 0040 0fbe 
  0x000001e99a3b14a0: ff4c 8bc7 

  0x000001e99a3b14a4: ;   {optimized virtual_call}
  0x000001e99a3b14a4: 6666 90e8 

  0x000001e99a3b14a8: ; ImmutableOopMap {[120]=Oop [632]=Oop }
                      ;*invokeinterface add {reexecute=0 rethrow=0 return_oop=0}
                      ; - jdk.internal.reflect.ClassFileAssembler::emitByte@5 (line 74)
                      ; - jdk.internal.reflect.ClassFileAssembler::emitShort@20 (line 64)
                      ; - jdk.internal.reflect.ClassFileAssembler::emitConstantPoolNameAndType@13 (line 121)
                      ; - jdk.internal.reflect.AccessorGenerator::emitBoxingContantPoolEntries@1219 (line 357)
  0x000001e99a3b14a8: 9497 cafe | 488b b424 | 7802 0000 | 440f bf46 | 1841 ffc0 | 6644 8946 | 1848 8b54 | 2478 8b72 
  0x000001e99a3b14c8: 7048 89b4 | 2488 0200 | 0044 0fbf | 4618 4183 | f800 0f84 | a113 0000 | 498b f8c1 | e710 c1ff 
  0x000001e99a3b14e8: 1048 8bdf | 83eb 060f | bfdb c1e3 | 10c1 fb10 | 899c 2484 | 0200 0041 | 83f8 000f | 84f8 1200 
  0x000001e99a3b1508: 0089 bc24 | 9002 0000 | 8b46 1c48 | 83f8 000f | 842a 0000 

  0x000001e99a3b151c: ;   {metadata('jdk/internal/reflect/ByteVectorImpl')}
  0x000001e99a3b151c: 0049 bba0 | cd07 a1e9 | 0100 0044 | 8b48 0849 | ba00 0000 | a0e9 0100 | 004d 03ca | 4d3b 5938 
  0x000001e99a3b153c: 0f85 9740 | 0000 e900 | 0000 004c | 8bc0 483b | 0041 b80a | 0000 0048 

  0x000001e99a3b1554: ;   {optimized virtual_call}
  0x000001e99a3b1554: 8bd0 90e8 

  0x000001e99a3b1558: ; ImmutableOopMap {[120]=Oop [648]=Oop }
                      ;*invokeinterface add {reexecute=0 rethrow=0 return_oop=0}
                      ; - jdk.internal.reflect.ClassFileAssembler::emitByte@5 (line 74)
                      ; - jdk.internal.reflect.ClassFileAssembler::emitConstantPoolMethodref@3 (line 137)
                      ; - jdk.internal.reflect.AccessorGenerator::emitBoxingContantPoolEntries@1245 (line 358)
  0x000001e99a3b1558: e496 cafe | 488b b424 | 8802 0000 | 8b56 1c48 | 83fa 000f | 8429 0000 

  0x000001e99a3b1570: ;   {metadata('jdk/internal/reflect/ByteVectorImpl')}
  0x000001e99a3b1570: 0048 b8a0 | cd07 a1e9 | 0100 008b | 5a08 49ba | 0000 00a0 | e901 0000 | 4903 da48 | 3b43 380f 
  0x000001e99a3b1590: 854e 4000 | 00e9 0000 | 0000 4c8b | c248 3b02 | 8b9c 2484 | 0200 00c1 | fb08 81e3 | ff00 0000 
  0x000001e99a3b15b0: 0fbe db4c 

  0x000001e99a3b15b4: ;   {optimized virtual_call}
  0x000001e99a3b15b4: 8bc3 90e8 

  0x000001e99a3b15b8: ; ImmutableOopMap {[120]=Oop [648]=Oop }
                      ;*invokeinterface add {reexecute=0 rethrow=0 return_oop=0}
                      ; - jdk.internal.reflect.ClassFileAssembler::emitByte@5 (line 74)
                      ; - jdk.internal.reflect.ClassFileAssembler::emitShort@10 (line 63)
                      ; - jdk.internal.reflect.ClassFileAssembler::emitConstantPoolMethodref@8 (line 138)
                      ; - jdk.internal.reflect.AccessorGenerator::emitBoxingContantPoolEntries@1245 (line 358)
  0x000001e99a3b15b8: 8496 cafe | 488b b424 | 8802 0000 | 8b56 1c48 | 83fa 000f | 8429 0000 

  0x000001e99a3b15d0: ;   {metadata('jdk/internal/reflect/ByteVectorImpl')}
  0x000001e99a3b15d0: 0048 b8a0 | cd07 a1e9 | 0100 008b | 5a08 49ba | 0000 00a0 | e901 0000 | 4903 da48 | 3b43 380f 
  0x000001e99a3b15f0: 85f8 3f00 | 00e9 0000 | 0000 4c8b | c248 3b02 | 8b9c 2484 | 0200 0081 | e3ff 0000 | 000f bedb 
  0x000001e99a3b1610: 4c8b c30f 

  0x000001e99a3b1614: ;   {optimized virtual_call}
  0x000001e99a3b1614: 1f40 00e8 

  0x000001e99a3b1618: ; ImmutableOopMap {[120]=Oop [648]=Oop }
                      ;*invokeinterface add {reexecute=0 rethrow=0 return_oop=0}
                      ; - jdk.internal.reflect.ClassFileAssembler::emitByte@5 (line 74)
                      ; - jdk.internal.reflect.ClassFileAssembler::emitShort@20 (line 64)
                      ; - jdk.internal.reflect.ClassFileAssembler::emitConstantPoolMethodref@8 (line 138)
                      ; - jdk.internal.reflect.AccessorGenerator::emitBoxingContantPoolEntries@1245 (line 358)
  0x000001e99a3b1618: 2496 cafe | 488b b424 | 8802 0000 | 8b56 1c48 | 83fa 000f | 8429 0000 

  0x000001e99a3b1630: ;   {metadata('jdk/internal/reflect/ByteVectorImpl')}
  0x000001e99a3b1630: 0048 b8a0 | cd07 a1e9 | 0100 008b | 5a08 49ba | 0000 00a0 | e901 0000 | 4903 da48 | 3b43 380f 
  0x000001e99a3b1650: 85a2 3f00 | 00e9 0000 | 0000 4c8b | c248 3b02 | 8bbc 2490 | 0200 00c1 | ff08 81e7 | ff00 0000 
  0x000001e99a3b1670: 400f beff 

  0x000001e99a3b1674: ;   {optimized virtual_call}
  0x000001e99a3b1674: 4c8b c7e8 

  0x000001e99a3b1678: ; ImmutableOopMap {[120]=Oop [648]=Oop }
                      ;*invokeinterface add {reexecute=0 rethrow=0 return_oop=0}
                      ; - jdk.internal.reflect.ClassFileAssembler::emitByte@5 (line 74)
                      ; - jdk.internal.reflect.ClassFileAssembler::emitShort@10 (line 63)
                      ; - jdk.internal.reflect.ClassFileAssembler::emitConstantPoolMethodref@13 (line 139)
                      ; - jdk.internal.reflect.AccessorGenerator::emitBoxingContantPoolEntries@1245 (line 358)
  0x000001e99a3b1678: c495 cafe | 488b b424 | 8802 0000 | 8b56 1c48 | 83fa 000f | 8429 0000 

  0x000001e99a3b1690: ;   {metadata('jdk/internal/reflect/ByteVectorImpl')}
  0x000001e99a3b1690: 0048 b8a0 | cd07 a1e9 | 0100 008b | 5a08 49ba | 0000 00a0 | e901 0000 | 4903 da48 | 3b43 380f 
  0x000001e99a3b16b0: 854c 3f00 | 00e9 0000 | 0000 4c8b | c248 3b02 | 8bbc 2490 | 0200 0081 | e7ff 0000 | 0040 0fbe 
  0x000001e99a3b16d0: ff4c 8bc7 

  0x000001e99a3b16d4: ;   {optimized virtual_call}
  0x000001e99a3b16d4: 6666 90e8 

  0x000001e99a3b16d8: ; ImmutableOopMap {[120]=Oop [648]=Oop }
                      ;*invokeinterface add {reexecute=0 rethrow=0 return_oop=0}
                      ; - jdk.internal.reflect.ClassFileAssembler::emitByte@5 (line 74)
                      ; - jdk.internal.reflect.ClassFileAssembler::emitShort@20 (line 64)
                      ; - jdk.internal.reflect.ClassFileAssembler::emitConstantPoolMethodref@13 (line 139)
                      ; - jdk.internal.reflect.AccessorGenerator::emitBoxingContantPoolEntries@1245 (line 358)
  0x000001e99a3b16d8: 6495 cafe | 488b b424 | 8802 0000 | 440f bf46 | 1841 ffc0 | 6644 8946 | 1848 8b54 | 2478 8b72 
  0x000001e99a3b16f8: 7044 0fbf | 4618 4183 | f800 0f84 | 7910 0000 | 41c1 e010 | 41c1 f810 | 6644 8942 

  0x000001e99a3b1714: ;   {oop("java/lang/Short"{0x00000000d467fb90})}
  0x000001e99a3b1714: 6249 b890 | fb67 d400 | 0000 0048 | 8bd6 0f1f 

  0x000001e99a3b1724: ;   {optimized virtual_call}
  0x000001e99a3b1724: 4400 00e8 

  0x000001e99a3b1728: ; ImmutableOopMap {[120]=Oop }
                      ;*invokevirtual emitConstantPoolUTF8 {reexecute=0 rethrow=0 return_oop=0}
                      ; - jdk.internal.reflect.AccessorGenerator::emitBoxingContantPoolEntries@1265 (line 362)
  0x000001e99a3b1728: 748c cffe | 488b 5424 | 788b 7270 | 4889 b424 | 9802 0000 

  0x000001e99a3b173c: ; implicit exception: dispatches to 0x000001e99a3b5610
  0x000001e99a3b173c: 440f bf46 | 1841 83f8 | 000f 84b6 | 0f00 008b | 7e1c 41c1 | e010 41c1 | f810 4883 | ff00 0f84 
  0x000001e99a3b175c: 2900 0000 

  0x000001e99a3b1760: ;   {metadata('jdk/internal/reflect/ByteVectorImpl')}
  0x000001e99a3b1760: 49b9 a0cd | 07a1 e901 | 0000 8b4f | 0849 ba00 | 0000 a0e9 | 0100 0049 | 03ca 4c3b | 4938 0f85 
  0x000001e99a3b1780: 913e 0000 | e900 0000 | 0048 8bdf 

  0x000001e99a3b178c: ; implicit exception: dispatches to 0x000001e99a3b561a
  0x000001e99a3b178c: 483b 0744 | 8984 2494 | 0200 0041 | b807 0000 | 0048 8bd7 | 0f1f 8000 

  0x000001e99a3b17a4: ;   {optimized virtual_call}
  0x000001e99a3b17a4: 0000 00e8 

  0x000001e99a3b17a8: ; ImmutableOopMap {[120]=Oop [664]=Oop }
                      ;*invokeinterface add {reexecute=0 rethrow=0 return_oop=0}
                      ; - jdk.internal.reflect.ClassFileAssembler::emitByte@5 (line 74)
                      ; - jdk.internal.reflect.ClassFileAssembler::emitConstantPoolClass@3 (line 113)
                      ; - jdk.internal.reflect.AccessorGenerator::emitBoxingContantPoolEntries@1279 (line 363)
  0x000001e99a3b17a8: 9494 cafe | 488b b424 | 9802 0000 | 8b56 1c48 | 83fa 000f | 8429 0000 

  0x000001e99a3b17c0: ;   {metadata('jdk/internal/reflect/ByteVectorImpl')}
  0x000001e99a3b17c0: 0048 b8a0 | cd07 a1e9 | 0100 008b | 5a08 49ba | 0000 00a0 | e901 0000 | 4903 da48 | 3b43 380f 
  0x000001e99a3b17e0: 853a 3e00 | 00e9 0000 | 0000 4c8b | c248 3b02 | 448b 8424 | 9402 0000 | 41c1 f808 | 4181 e0ff 
  0x000001e99a3b1800: 0000 0045 

  0x000001e99a3b1804: ;   {optimized virtual_call}
  0x000001e99a3b1804: 0fbe c0e8 

  0x000001e99a3b1808: ; ImmutableOopMap {[120]=Oop [664]=Oop }
                      ;*invokeinterface add {reexecute=0 rethrow=0 return_oop=0}
                      ; - jdk.internal.reflect.ClassFileAssembler::emitByte@5 (line 74)
                      ; - jdk.internal.reflect.ClassFileAssembler::emitShort@10 (line 63)
                      ; - jdk.internal.reflect.ClassFileAssembler::emitConstantPoolClass@8 (line 114)
                      ; - jdk.internal.reflect.AccessorGenerator::emitBoxingContantPoolEntries@1279 (line 363)
  0x000001e99a3b1808: 3494 cafe | 488b b424 | 9802 0000 | 8b56 1c48 | 83fa 000f | 8429 0000 

  0x000001e99a3b1820: ;   {metadata('jdk/internal/reflect/ByteVectorImpl')}
  0x000001e99a3b1820: 0048 b8a0 | cd07 a1e9 | 0100 008b | 5a08 49ba | 0000 00a0 | e901 0000 | 4903 da48 | 3b43 380f 
  0x000001e99a3b1840: 85e4 3d00 | 00e9 0000 | 0000 4c8b | c248 3b02 | 448b 8424 | 9402 0000 | 4181 e0ff | 0000 0045 
  0x000001e99a3b1860: 0fbe c00f 

  0x000001e99a3b1864: ;   {optimized virtual_call}
  0x000001e99a3b1864: 1f40 00e8 

  0x000001e99a3b1868: ; ImmutableOopMap {[120]=Oop [664]=Oop }
                      ;*invokeinterface add {reexecute=0 rethrow=0 return_oop=0}
                      ; - jdk.internal.reflect.ClassFileAssembler::emitByte@5 (line 74)
                      ; - jdk.internal.reflect.ClassFileAssembler::emitShort@20 (line 64)
                      ; - jdk.internal.reflect.ClassFileAssembler::emitConstantPoolClass@8 (line 114)
                      ; - jdk.internal.reflect.AccessorGenerator::emitBoxingContantPoolEntries@1279 (line 363)
  0x000001e99a3b1868: d493 cafe | 488b b424 | 9802 0000 | 440f bf46 | 1841 ffc0 | 6644 8946 | 1848 8b54 | 2478 8b72 
  0x000001e99a3b1888: 7044 0fbf | 4618 4183 | f800 0f84 | e90d 0000 | 41c1 e010 | 41c1 f810 | 6644 8942 

  0x000001e99a3b18a4: ;   {oop("(S)Ljava/lang/Short;"{0x00000000d467fb50})}
  0x000001e99a3b18a4: 6449 b850 | fb67 d400 | 0000 0048 | 8bd6 0f1f 

  0x000001e99a3b18b4: ;   {optimized virtual_call}
  0x000001e99a3b18b4: 4400 00e8 

  0x000001e99a3b18b8: ; ImmutableOopMap {[120]=Oop }
                      ;*invokevirtual emitConstantPoolUTF8 {reexecute=0 rethrow=0 return_oop=0}
                      ; - jdk.internal.reflect.AccessorGenerator::emitBoxingContantPoolEntries@1299 (line 365)
  0x000001e99a3b18b8: e48a cffe | 488b 5424 | 788b 7270 | 4889 b424 | a002 0000 | 0fbf 7a38 | 89bc 24a8 | 0200 0044 
  0x000001e99a3b18d8: 0fbf 4618 | 4183 f800 | 0f84 1b0d | 0000 8b5e | 1c41 c1e0 | 1041 c1f8 | 1048 83fb | 000f 842a 
  0x000001e99a3b18f8: ;   {metadata('jdk/internal/reflect/ByteVectorImpl')}
  0x000001e99a3b18f8: 0000 0049 | bba0 cd07 | a1e9 0100 | 0044 8b4b | 0849 ba00 | 0000 a0e9 | 0100 004d | 03ca 4d3b 
  0x000001e99a3b1918: 5938 0f85 | 1d3d 0000 | e900 0000 | 0048 8bc3 

  0x000001e99a3b1928: ; implicit exception: dispatches to 0x000001e99a3b5642
  0x000001e99a3b1928: 483b 0344 | 8984 24ac | 0200 0041 | b80c 0000 | 0048 8bd3 

  0x000001e99a3b193c: ;   {optimized virtual_call}
  0x000001e99a3b193c: 6666 90e8 

  0x000001e99a3b1940: ; ImmutableOopMap {[120]=Oop [672]=Oop }
                      ;*invokeinterface add {reexecute=0 rethrow=0 return_oop=0}
                      ; - jdk.internal.reflect.ClassFileAssembler::emitByte@5 (line 74)
                      ; - jdk.internal.reflect.ClassFileAssembler::emitConstantPoolNameAndType@3 (line 119)
                      ; - jdk.internal.reflect.AccessorGenerator::emitBoxingContantPoolEntries@1317 (line 366)
  0x000001e99a3b1940: fc92 cafe | 488b b424 | a002 0000 | 8b56 1c48 | 83fa 000f | 8429 0000 

  0x000001e99a3b1958: ;   {metadata('jdk/internal/reflect/ByteVectorImpl')}
  0x000001e99a3b1958: 0048 b8a0 | cd07 a1e9 | 0100 008b | 5a08 49ba | 0000 00a0 | e901 0000 | 4903 da48 | 3b43 380f 
  0x000001e99a3b1978: 85ca 3c00 | 00e9 0000 | 0000 4c8b | c248 3b02 | 8bbc 24a8 | 0200 00c1 | ff08 81e7 | ff00 0000 
  0x000001e99a3b1998: 400f beff 

  0x000001e99a3b199c: ;   {optimized virtual_call}
  0x000001e99a3b199c: 4c8b c7e8 

  0x000001e99a3b19a0: ; ImmutableOopMap {[120]=Oop [672]=Oop }
                      ;*invokeinterface add {reexecute=0 rethrow=0 return_oop=0}
                      ; - jdk.internal.reflect.ClassFileAssembler::emitByte@5 (line 74)
                      ; - jdk.internal.reflect.ClassFileAssembler::emitShort@10 (line 63)
                      ; - jdk.internal.reflect.ClassFileAssembler::emitConstantPoolNameAndType@8 (line 120)
                      ; - jdk.internal.reflect.AccessorGenerator::emitBoxingContantPoolEntries@1317 (line 366)
  0x000001e99a3b19a0: 9c92 cafe | 488b b424 | a002 0000 | 8b56 1c48 | 83fa 000f | 8429 0000 

  0x000001e99a3b19b8: ;   {metadata('jdk/internal/reflect/ByteVectorImpl')}
  0x000001e99a3b19b8: 0048 b8a0 | cd07 a1e9 | 0100 008b | 5a08 49ba | 0000 00a0 | e901 0000 | 4903 da48 | 3b43 380f 
  0x000001e99a3b19d8: 8574 3c00 | 00e9 0000 | 0000 4c8b | c248 3b02 | 8bbc 24a8 | 0200 0081 | e7ff 0000 | 0040 0fbe 
  0x000001e99a3b19f8: ff4c 8bc7 

  0x000001e99a3b19fc: ;   {optimized virtual_call}
  0x000001e99a3b19fc: 6666 90e8 

  0x000001e99a3b1a00: ; ImmutableOopMap {[120]=Oop [672]=Oop }
                      ;*invokeinterface add {reexecute=0 rethrow=0 return_oop=0}
                      ; - jdk.internal.reflect.ClassFileAssembler::emitByte@5 (line 74)
                      ; - jdk.internal.reflect.ClassFileAssembler::emitShort@20 (line 64)
                      ; - jdk.internal.reflect.ClassFileAssembler::emitConstantPoolNameAndType@8 (line 120)
                      ; - jdk.internal.reflect.AccessorGenerator::emitBoxingContantPoolEntries@1317 (line 366)
  0x000001e99a3b1a00: 3c92 cafe | 488b b424 | a002 0000 | 8b56 1c48 | 83fa 000f | 8429 0000 

  0x000001e99a3b1a18: ;   {metadata('jdk/internal/reflect/ByteVectorImpl')}
  0x000001e99a3b1a18: 0048 b8a0 | cd07 a1e9 | 0100 008b | 5a08 49ba | 0000 00a0 | e901 0000 | 4903 da48 | 3b43 380f 
  0x000001e99a3b1a38: 851e 3c00 | 00e9 0000 | 0000 4c8b | c248 3b02 | 448b 8424 | ac02 0000 | 41c1 f808 | 4181 e0ff 
  0x000001e99a3b1a58: 0000 0045 

  0x000001e99a3b1a5c: ;   {optimized virtual_call}
  0x000001e99a3b1a5c: 0fbe c0e8 

  0x000001e99a3b1a60: ; ImmutableOopMap {[120]=Oop [672]=Oop }
                      ;*invokeinterface add {reexecute=0 rethrow=0 return_oop=0}
                      ; - jdk.internal.reflect.ClassFileAssembler::emitByte@5 (line 74)
                      ; - jdk.internal.reflect.ClassFileAssembler::emitShort@10 (line 63)
                      ; - jdk.internal.reflect.ClassFileAssembler::emitConstantPoolNameAndType@13 (line 121)
                      ; - jdk.internal.reflect.AccessorGenerator::emitBoxingContantPoolEntries@1317 (line 366)
  0x000001e99a3b1a60: dc91 cafe | 488b b424 | a002 0000 | 8b56 1c48 | 83fa 000f | 8429 0000 

  0x000001e99a3b1a78: ;   {metadata('jdk/internal/reflect/ByteVectorImpl')}
  0x000001e99a3b1a78: 0048 b8a0 | cd07 a1e9 | 0100 008b | 5a08 49ba | 0000 00a0 | e901 0000 | 4903 da48 | 3b43 380f 
  0x000001e99a3b1a98: 85c8 3b00 | 00e9 0000 | 0000 4c8b | c248 3b02 | 448b 8424 | ac02 0000 | 4181 e0ff | 0000 0045 
  0x000001e99a3b1ab8: 0fbe c00f 

  0x000001e99a3b1abc: ;   {optimized virtual_call}
  0x000001e99a3b1abc: 1f40 00e8 

  0x000001e99a3b1ac0: ; ImmutableOopMap {[120]=Oop [672]=Oop }
                      ;*invokeinterface add {reexecute=0 rethrow=0 return_oop=0}
                      ; - jdk.internal.reflect.ClassFileAssembler::emitByte@5 (line 74)
                      ; - jdk.internal.reflect.ClassFileAssembler::emitShort@20 (line 64)
                      ; - jdk.internal.reflect.ClassFileAssembler::emitConstantPoolNameAndType@13 (line 121)
                      ; - jdk.internal.reflect.AccessorGenerator::emitBoxingContantPoolEntries@1317 (line 366)
  0x000001e99a3b1ac0: 7c91 cafe | 488b b424 | a002 0000 | 440f bf46 | 1841 ffc0 | 6644 8946 | 1848 8b54 | 2478 8b72 
  0x000001e99a3b1ae0: 7048 89b4 | 24b0 0200 | 0044 0fbf | 4618 4183 | f800 0f84 | 890a 0000 | 498b f8c1 | e710 c1ff 
  0x000001e99a3b1b00: 1048 8bdf | 83eb 020f | bfdb c1e3 | 10c1 fb10 | 899c 24b8 | 0200 0041 | 83f8 000f | 84e0 0900 
  0x000001e99a3b1b20: 0089 bc24 | bc02 0000 | 8b46 1c48 | 83f8 000f | 842a 0000 

  0x000001e99a3b1b34: ;   {metadata('jdk/internal/reflect/ByteVectorImpl')}
  0x000001e99a3b1b34: 0049 bba0 | cd07 a1e9 | 0100 0044 | 8b48 0849 | ba00 0000 | a0e9 0100 | 004d 03ca | 4d3b 5938 
  0x000001e99a3b1b54: 0f85 1a3b | 0000 e900 | 0000 004c | 8bc0 483b | 0041 b80a | 0000 0048 

  0x000001e99a3b1b6c: ;   {optimized virtual_call}
  0x000001e99a3b1b6c: 8bd0 90e8 

  0x000001e99a3b1b70: ; ImmutableOopMap {[120]=Oop [688]=Oop }
                      ;*invokeinterface add {reexecute=0 rethrow=0 return_oop=0}
                      ; - jdk.internal.reflect.ClassFileAssembler::emitByte@5 (line 74)
                      ; - jdk.internal.reflect.ClassFileAssembler::emitConstantPoolMethodref@3 (line 137)
                      ; - jdk.internal.reflect.AccessorGenerator::emitBoxingContantPoolEntries@1342 (line 367)
  0x000001e99a3b1b70: cc90 cafe | 488b b424 | b002 0000 | 8b56 1c48 | 83fa 000f | 8429 0000 

  0x000001e99a3b1b88: ;   {metadata('jdk/internal/reflect/ByteVectorImpl')}
  0x000001e99a3b1b88: 0048 b8a0 | cd07 a1e9 | 0100 008b | 5a08 49ba | 0000 00a0 | e901 0000 | 4903 da48 | 3b43 380f 
  0x000001e99a3b1ba8: 85d1 3a00 | 00e9 0000 | 0000 4c8b | c248 3b02 | 8b9c 24b8 | 0200 00c1 | fb08 81e3 | ff00 0000 
  0x000001e99a3b1bc8: 0fbe db4c 

  0x000001e99a3b1bcc: ;   {optimized virtual_call}
  0x000001e99a3b1bcc: 8bc3 90e8 

  0x000001e99a3b1bd0: ; ImmutableOopMap {[120]=Oop [688]=Oop }
                      ;*invokeinterface add {reexecute=0 rethrow=0 return_oop=0}
                      ; - jdk.internal.reflect.ClassFileAssembler::emitByte@5 (line 74)
                      ; - jdk.internal.reflect.ClassFileAssembler::emitShort@10 (line 63)
                      ; - jdk.internal.reflect.ClassFileAssembler::emitConstantPoolMethodref@8 (line 138)
                      ; - jdk.internal.reflect.AccessorGenerator::emitBoxingContantPoolEntries@1342 (line 367)
  0x000001e99a3b1bd0: 6c90 cafe | 488b b424 | b002 0000 | 8b56 1c48 | 83fa 000f | 8429 0000 

  0x000001e99a3b1be8: ;   {metadata('jdk/internal/reflect/ByteVectorImpl')}
  0x000001e99a3b1be8: 0048 b8a0 | cd07 a1e9 | 0100 008b | 5a08 49ba | 0000 00a0 | e901 0000 | 4903 da48 | 3b43 380f 
  0x000001e99a3b1c08: 857b 3a00 | 00e9 0000 | 0000 4c8b | c248 3b02 | 8b9c 24b8 | 0200 0081 | e3ff 0000 | 000f bedb 
  0x000001e99a3b1c28: 4c8b c30f 

  0x000001e99a3b1c2c: ;   {optimized virtual_call}
  0x000001e99a3b1c2c: 1f40 00e8 

  0x000001e99a3b1c30: ; ImmutableOopMap {[120]=Oop [688]=Oop }
                      ;*invokeinterface add {reexecute=0 rethrow=0 return_oop=0}
                      ; - jdk.internal.reflect.ClassFileAssembler::emitByte@5 (line 74)
                      ; - jdk.internal.reflect.ClassFileAssembler::emitShort@20 (line 64)
                      ; - jdk.internal.reflect.ClassFileAssembler::emitConstantPoolMethodref@8 (line 138)
                      ; - jdk.internal.reflect.AccessorGenerator::emitBoxingContantPoolEntries@1342 (line 367)
  0x000001e99a3b1c30: 0c90 cafe | 488b b424 | b002 0000 | 8b56 1c48 | 83fa 000f | 8429 0000 

  0x000001e99a3b1c48: ;   {metadata('jdk/internal/reflect/ByteVectorImpl')}
  0x000001e99a3b1c48: 0048 b8a0 | cd07 a1e9 | 0100 008b | 5a08 49ba | 0000 00a0 | e901 0000 | 4903 da48 | 3b43 380f 
  0x000001e99a3b1c68: 8525 3a00 | 00e9 0000 | 0000 4c8b | c248 3b02 | 8bbc 24bc | 0200 00c1 | ff08 81e7 | ff00 0000 
  0x000001e99a3b1c88: 400f beff 

  0x000001e99a3b1c8c: ;   {optimized virtual_call}
  0x000001e99a3b1c8c: 4c8b c7e8 

  0x000001e99a3b1c90: ; ImmutableOopMap {[120]=Oop [688]=Oop }
                      ;*invokeinterface add {reexecute=0 rethrow=0 return_oop=0}
                      ; - jdk.internal.reflect.ClassFileAssembler::emitByte@5 (line 74)
                      ; - jdk.internal.reflect.ClassFileAssembler::emitShort@10 (line 63)
                      ; - jdk.internal.reflect.ClassFileAssembler::emitConstantPoolMethodref@13 (line 139)
                      ; - jdk.internal.reflect.AccessorGenerator::emitBoxingContantPoolEntries@1342 (line 367)
  0x000001e99a3b1c90: ac8f cafe | 488b b424 | b002 0000 | 8b56 1c48 | 83fa 000f | 8429 0000 

  0x000001e99a3b1ca8: ;   {metadata('jdk/internal/reflect/ByteVectorImpl')}
  0x000001e99a3b1ca8: 0048 b8a0 | cd07 a1e9 | 0100 008b | 5a08 49ba | 0000 00a0 | e901 0000 | 4903 da48 | 3b43 380f 
  0x000001e99a3b1cc8: 85cf 3900 | 00e9 0000 | 0000 4c8b | c248 3b02 | 8bbc 24bc | 0200 0081 | e7ff 0000 | 0040 0fbe 
  0x000001e99a3b1ce8: ff4c 8bc7 

  0x000001e99a3b1cec: ;   {optimized virtual_call}
  0x000001e99a3b1cec: 6666 90e8 

  0x000001e99a3b1cf0: ; ImmutableOopMap {[120]=Oop [688]=Oop }
                      ;*invokeinterface add {reexecute=0 rethrow=0 return_oop=0}
                      ; - jdk.internal.reflect.ClassFileAssembler::emitByte@5 (line 74)
                      ; - jdk.internal.reflect.ClassFileAssembler::emitShort@20 (line 64)
                      ; - jdk.internal.reflect.ClassFileAssembler::emitConstantPoolMethodref@13 (line 139)
                      ; - jdk.internal.reflect.AccessorGenerator::emitBoxingContantPoolEntries@1342 (line 367)
  0x000001e99a3b1cf0: 4c8f cafe | 488b b424 | b002 0000 | 440f bf46 | 1841 ffc0 | 6644 8946 | 1848 8b54 | 2478 8b72 
  0x000001e99a3b1d10: 7044 0fbf | 4618 4183 | f800 0f84 | 6107 0000 | 41c1 e010 | 41c1 f810 | 6644 8942 

  0x000001e99a3b1d2c: ;   {oop("shortValue"{0x00000000d467fb18})}
  0x000001e99a3b1d2c: 6649 b818 | fb67 d400 | 0000 0048 | 8bd6 0f1f 

  0x000001e99a3b1d3c: ;   {optimized virtual_call}
  0x000001e99a3b1d3c: 4400 00e8 

  0x000001e99a3b1d40: ; ImmutableOopMap {[120]=Oop }
                      ;*invokevirtual emitConstantPoolUTF8 {reexecute=0 rethrow=0 return_oop=0}
                      ; - jdk.internal.reflect.AccessorGenerator::emitBoxingContantPoolEntries@1363 (line 369)
  0x000001e99a3b1d40: 5c86 cffe | 488b 5424 | 788b 7270 

  0x000001e99a3b1d4c: ; implicit exception: dispatches to 0x000001e99a3b56ab
                      ;   {oop("()S"{0x00000000d467fae8})}
  0x000001e99a3b1d4c: 483b 0649 | b8e8 fa67 | d400 0000 | 0048 8bd6 

  0x000001e99a3b1d5c: ;   {optimized virtual_call}
  0x000001e99a3b1d5c: 6666 90e8 

  0x000001e99a3b1d60: ; ImmutableOopMap {[120]=Oop }
                      ;*invokevirtual emitConstantPoolUTF8 {reexecute=0 rethrow=0 return_oop=0}
                      ; - jdk.internal.reflect.AccessorGenerator::emitBoxingContantPoolEntries@1373 (line 370)
  0x000001e99a3b1d60: 3c86 cffe | 488b 5424 | 788b 7270 | 4889 b424 | c002 0000 

  0x000001e99a3b1d74: ; implicit exception: dispatches to 0x000001e99a3b56b0
  0x000001e99a3b1d74: 440f bf46 | 1841 83f8 | 000f 847e | 0600 0049 | 8bf8 c1e7 | 10c1 ff10 | 488b dfff | cb0f bfdb 
  0x000001e99a3b1d94: c1e3 10c1 | fb10 899c | 24c8 0200 | 0041 83f8 | 000f 84d6 | 0500 0089 | bc24 cc02 | 0000 8b46 
  0x000001e99a3b1db4: 1c48 83f8 | 000f 842a 

  0x000001e99a3b1dbc: ;   {metadata('jdk/internal/reflect/ByteVectorImpl')}
  0x000001e99a3b1dbc: 0000 0049 | bba0 cd07 | a1e9 0100 | 0044 8b48 | 0849 ba00 | 0000 a0e9 | 0100 004d | 03ca 4d3b 
  0x000001e99a3b1ddc: 5938 0f85 | d138 0000 | e900 0000 | 004c 8bc0 

  0x000001e99a3b1dec: ; implicit exception: dispatches to 0x000001e99a3b56ba
  0x000001e99a3b1dec: 483b 0041 | b80c 0000 | 0048 8bd0 | 0f1f 8000 

  0x000001e99a3b1dfc: ;   {optimized virtual_call}
  0x000001e99a3b1dfc: 0000 00e8 

  0x000001e99a3b1e00: ; ImmutableOopMap {[120]=Oop [704]=Oop }
                      ;*invokeinterface add {reexecute=0 rethrow=0 return_oop=0}
                      ; - jdk.internal.reflect.ClassFileAssembler::emitByte@5 (line 74)
                      ; - jdk.internal.reflect.ClassFileAssembler::emitConstantPoolNameAndType@3 (line 119)
                      ; - jdk.internal.reflect.AccessorGenerator::emitBoxingContantPoolEntries@1398 (line 371)
  0x000001e99a3b1e00: 3c8e cafe | 488b b424 | c002 0000 | 8b56 1c48 | 83fa 000f | 8429 0000 

  0x000001e99a3b1e18: ;   {metadata('jdk/internal/reflect/ByteVectorImpl')}
  0x000001e99a3b1e18: 0048 b8a0 | cd07 a1e9 | 0100 008b | 5a08 49ba | 0000 00a0 | e901 0000 | 4903 da48 | 3b43 380f 
  0x000001e99a3b1e38: 8582 3800 | 00e9 0000 | 0000 4c8b | c248 3b02 | 8b9c 24c8 | 0200 00c1 | fb08 81e3 | ff00 0000 
  0x000001e99a3b1e58: 0fbe db4c 

  0x000001e99a3b1e5c: ;   {optimized virtual_call}
  0x000001e99a3b1e5c: 8bc3 90e8 

  0x000001e99a3b1e60: ; ImmutableOopMap {[120]=Oop [704]=Oop }
                      ;*invokeinterface add {reexecute=0 rethrow=0 return_oop=0}
                      ; - jdk.internal.reflect.ClassFileAssembler::emitByte@5 (line 74)
                      ; - jdk.internal.reflect.ClassFileAssembler::emitShort@10 (line 63)
                      ; - jdk.internal.reflect.ClassFileAssembler::emitConstantPoolNameAndType@8 (line 120)
                      ; - jdk.internal.reflect.AccessorGenerator::emitBoxingContantPoolEntries@1398 (line 371)
  0x000001e99a3b1e60: dc8d cafe | 488b b424 | c002 0000 | 8b56 1c48 | 83fa 000f | 8429 0000 

  0x000001e99a3b1e78: ;   {metadata('jdk/internal/reflect/ByteVectorImpl')}
  0x000001e99a3b1e78: 0048 b8a0 | cd07 a1e9 | 0100 008b | 5a08 49ba | 0000 00a0 | e901 0000 | 4903 da48 | 3b43 380f 
  0x000001e99a3b1e98: 852c 3800 | 00e9 0000 | 0000 4c8b | c248 3b02 | 8b9c 24c8 | 0200 0081 | e3ff 0000 | 000f bedb 
  0x000001e99a3b1eb8: 4c8b c30f 

  0x000001e99a3b1ebc: ;   {optimized virtual_call}
  0x000001e99a3b1ebc: 1f40 00e8 

  0x000001e99a3b1ec0: ; ImmutableOopMap {[120]=Oop [704]=Oop }
                      ;*invokeinterface add {reexecute=0 rethrow=0 return_oop=0}
                      ; - jdk.internal.reflect.ClassFileAssembler::emitByte@5 (line 74)
                      ; - jdk.internal.reflect.ClassFileAssembler::emitShort@20 (line 64)
                      ; - jdk.internal.reflect.ClassFileAssembler::emitConstantPoolNameAndType@8 (line 120)
                      ; - jdk.internal.reflect.AccessorGenerator::emitBoxingContantPoolEntries@1398 (line 371)
  0x000001e99a3b1ec0: 7c8d cafe | 488b b424 | c002 0000 | 8b56 1c48 | 83fa 000f | 8429 0000 

  0x000001e99a3b1ed8: ;   {metadata('jdk/internal/reflect/ByteVectorImpl')}
  0x000001e99a3b1ed8: 0048 b8a0 | cd07 a1e9 | 0100 008b | 5a08 49ba | 0000 00a0 | e901 0000 | 4903 da48 | 3b43 380f 
  0x000001e99a3b1ef8: 85d6 3700 | 00e9 0000 | 0000 4c8b | c248 3b02 | 8bbc 24cc | 0200 00c1 | ff08 81e7 | ff00 0000 
  0x000001e99a3b1f18: 400f beff 

  0x000001e99a3b1f1c: ;   {optimized virtual_call}
  0x000001e99a3b1f1c: 4c8b c7e8 

  0x000001e99a3b1f20: ; ImmutableOopMap {[120]=Oop [704]=Oop }
                      ;*invokeinterface add {reexecute=0 rethrow=0 return_oop=0}
                      ; - jdk.internal.reflect.ClassFileAssembler::emitByte@5 (line 74)
                      ; - jdk.internal.reflect.ClassFileAssembler::emitShort@10 (line 63)
                      ; - jdk.internal.reflect.ClassFileAssembler::emitConstantPoolNameAndType@13 (line 121)
                      ; - jdk.internal.reflect.AccessorGenerator::emitBoxingContantPoolEntries@1398 (line 371)
  0x000001e99a3b1f20: 1c8d cafe | 488b b424 | c002 0000 | 8b56 1c48 | 83fa 000f | 8429 0000 

  0x000001e99a3b1f38: ;   {metadata('jdk/internal/reflect/ByteVectorImpl')}
  0x000001e99a3b1f38: 0048 b8a0 | cd07 a1e9 | 0100 008b | 5a08 49ba | 0000 00a0 | e901 0000 | 4903 da48 | 3b43 380f 
  0x000001e99a3b1f58: 8580 3700 | 00e9 0000 | 0000 4c8b | c248 3b02 | 8bbc 24cc | 0200 0081 | e7ff 0000 | 0040 0fbe 
  0x000001e99a3b1f78: ff4c 8bc7 

  0x000001e99a3b1f7c: ;   {optimized virtual_call}
  0x000001e99a3b1f7c: 6666 90e8 

  0x000001e99a3b1f80: ; ImmutableOopMap {[120]=Oop [704]=Oop }
                      ;*invokeinterface add {reexecute=0 rethrow=0 return_oop=0}
                      ; - jdk.internal.reflect.ClassFileAssembler::emitByte@5 (line 74)
                      ; - jdk.internal.reflect.ClassFileAssembler::emitShort@20 (line 64)
                      ; - jdk.internal.reflect.ClassFileAssembler::emitConstantPoolNameAndType@13 (line 121)
                      ; - jdk.internal.reflect.AccessorGenerator::emitBoxingContantPoolEntries@1398 (line 371)
  0x000001e99a3b1f80: bc8c cafe | 488b b424 | c002 0000 | 440f bf46 | 1841 ffc0 | 6644 8946 | 1848 8b54 | 2478 8b72 
  0x000001e99a3b1fa0: 7048 89b4 | 24d0 0200 | 0044 0fbf | 4618 4183 | f800 0f84 | 4903 0000 | 498b f8c1 | e710 c1ff 
  0x000001e99a3b1fc0: 1048 8bdf | 83eb 060f | bfdb c1e3 | 10c1 fb10 | 899c 24d8 | 0200 0041 | 83f8 000f | 84a0 0200 
  0x000001e99a3b1fe0: 0089 bc24 | dc02 0000 | 8b46 1c48 | 83f8 000f | 842a 0000 

  0x000001e99a3b1ff4: ;   {metadata('jdk/internal/reflect/ByteVectorImpl')}
  0x000001e99a3b1ff4: 0049 bba0 | cd07 a1e9 | 0100 0044 | 8b48 0849 | ba00 0000 | a0e9 0100 | 004d 03ca | 4d3b 5938 
  0x000001e99a3b2014: 0f85 d236 | 0000 e900 | 0000 004c | 8bc0 483b | 0041 b80a | 0000 0048 

  0x000001e99a3b202c: ;   {optimized virtual_call}
  0x000001e99a3b202c: 8bd0 90e8 

  0x000001e99a3b2030: ; ImmutableOopMap {[720]=Oop [120]=Oop }
                      ;*invokeinterface add {reexecute=0 rethrow=0 return_oop=0}
                      ; - jdk.internal.reflect.ClassFileAssembler::emitByte@5 (line 74)
                      ; - jdk.internal.reflect.ClassFileAssembler::emitConstantPoolMethodref@3 (line 137)
                      ; - jdk.internal.reflect.AccessorGenerator::emitBoxingContantPoolEntries@1424 (line 372)
  0x000001e99a3b2030: 0c8c cafe | 488b b424 | d002 0000 | 8b56 1c48 | 83fa 000f | 8429 0000 

  0x000001e99a3b2048: ;   {metadata('jdk/internal/reflect/ByteVectorImpl')}
  0x000001e99a3b2048: 0048 b8a0 | cd07 a1e9 | 0100 008b | 5a08 49ba | 0000 00a0 | e901 0000 | 4903 da48 | 3b43 380f 
  0x000001e99a3b2068: 8589 3600 | 00e9 0000 | 0000 4c8b | c248 3b02 | 8b9c 24d8 | 0200 00c1 | fb08 81e3 | ff00 0000 
  0x000001e99a3b2088: 0fbe db4c 

  0x000001e99a3b208c: ;   {optimized virtual_call}
  0x000001e99a3b208c: 8bc3 90e8 

  0x000001e99a3b2090: ; ImmutableOopMap {[120]=Oop [720]=Oop }
                      ;*invokeinterface add {reexecute=0 rethrow=0 return_oop=0}
                      ; - jdk.internal.reflect.ClassFileAssembler::emitByte@5 (line 74)
                      ; - jdk.internal.reflect.ClassFileAssembler::emitShort@10 (line 63)
                      ; - jdk.internal.reflect.ClassFileAssembler::emitConstantPoolMethodref@8 (line 138)
                      ; - jdk.internal.reflect.AccessorGenerator::emitBoxingContantPoolEntries@1424 (line 372)
  0x000001e99a3b2090: ac8b cafe | 488b b424 | d002 0000 | 8b56 1c48 | 83fa 000f | 8429 0000 

  0x000001e99a3b20a8: ;   {metadata('jdk/internal/reflect/ByteVectorImpl')}
  0x000001e99a3b20a8: 0048 b8a0 | cd07 a1e9 | 0100 008b | 5a08 49ba | 0000 00a0 | e901 0000 | 4903 da48 | 3b43 380f 
  0x000001e99a3b20c8: 8533 3600 | 00e9 0000 | 0000 4c8b | c248 3b02 | 8b9c 24d8 | 0200 0081 | e3ff 0000 | 000f bedb 
  0x000001e99a3b20e8: 4c8b c30f 

  0x000001e99a3b20ec: ;   {optimized virtual_call}
  0x000001e99a3b20ec: 1f40 00e8 

  0x000001e99a3b20f0: ; ImmutableOopMap {[120]=Oop [720]=Oop }
                      ;*invokeinterface add {reexecute=0 rethrow=0 return_oop=0}
                      ; - jdk.internal.reflect.ClassFileAssembler::emitByte@5 (line 74)
                      ; - jdk.internal.reflect.ClassFileAssembler::emitShort@20 (line 64)
                      ; - jdk.internal.reflect.ClassFileAssembler::emitConstantPoolMethodref@8 (line 138)
                      ; - jdk.internal.reflect.AccessorGenerator::emitBoxingContantPoolEntries@1424 (line 372)
  0x000001e99a3b20f0: 4c8b cafe | 488b b424 | d002 0000 | 8b56 1c48 | 83fa 000f | 8429 0000 

  0x000001e99a3b2108: ;   {metadata('jdk/internal/reflect/ByteVectorImpl')}
  0x000001e99a3b2108: 0048 b8a0 | cd07 a1e9 | 0100 008b | 5a08 49ba | 0000 00a0 | e901 0000 | 4903 da48 | 3b43 380f 
  0x000001e99a3b2128: 85dd 3500 | 00e9 0000 | 0000 4c8b | c248 3b02 | 8bbc 24dc | 0200 00c1 | ff08 81e7 | ff00 0000 
  0x000001e99a3b2148: 400f beff 

  0x000001e99a3b214c: ;   {optimized virtual_call}
  0x000001e99a3b214c: 4c8b c7e8 

  0x000001e99a3b2150: ; ImmutableOopMap {[120]=Oop [720]=Oop }
                      ;*invokeinterface add {reexecute=0 rethrow=0 return_oop=0}
                      ; - jdk.internal.reflect.ClassFileAssembler::emitByte@5 (line 74)
                      ; - jdk.internal.reflect.ClassFileAssembler::emitShort@10 (line 63)
                      ; - jdk.internal.reflect.ClassFileAssembler::emitConstantPoolMethodref@13 (line 139)
                      ; - jdk.internal.reflect.AccessorGenerator::emitBoxingContantPoolEntries@1424 (line 372)
  0x000001e99a3b2150: ec8a cafe | 488b b424 | d002 0000 | 8b56 1c48 | 83fa 000f | 8429 0000 

  0x000001e99a3b2168: ;   {metadata('jdk/internal/reflect/ByteVectorImpl')}
  0x000001e99a3b2168: 0048 b8a0 | cd07 a1e9 | 0100 008b | 5a08 49ba | 0000 00a0 | e901 0000 | 4903 da48 | 3b43 380f 
  0x000001e99a3b2188: 8587 3500 | 00e9 0000 | 0000 4c8b | c248 3b02 | 8bbc 24dc | 0200 0081 | e7ff 0000 | 0040 0fbe 
  0x000001e99a3b21a8: ff4c 8bc7 

  0x000001e99a3b21ac: ;   {optimized virtual_call}
  0x000001e99a3b21ac: 6666 90e8 

  0x000001e99a3b21b0: ; ImmutableOopMap {[120]=Oop [720]=Oop }
                      ;*invokeinterface add {reexecute=0 rethrow=0 return_oop=0}
                      ; - jdk.internal.reflect.ClassFileAssembler::emitByte@5 (line 74)
                      ; - jdk.internal.reflect.ClassFileAssembler::emitShort@20 (line 64)
                      ; - jdk.internal.reflect.ClassFileAssembler::emitConstantPoolMethodref@13 (line 139)
                      ; - jdk.internal.reflect.AccessorGenerator::emitBoxingContantPoolEntries@1424 (line 372)
  0x000001e99a3b21b0: 8c8a cafe | 488b b424 | d002 0000 | 0fbf 5618 | ffc2 6689 | 5618 488b | 5424 788b | 7270 0fbf 
  0x000001e99a3b21d0: 7618 83fe | 000f 8420 | 0000 00c1 | e610 c1fe | 1066 8972 | 6848 81c4 | b005 0000 

  0x000001e99a3b21ec: ;   {poll_return}
  0x000001e99a3b21ec: 5d49 3ba7 | 4803 0000 | 0f87 2935 

  0x000001e99a3b21f8: ;   {metadata('java/lang/RuntimeException')}
  0x000001e99a3b21f8: 0000 c348 | ba18 ec02 | a0e9 0100 | 0049 8b87 | 0801 0000 | 488d 7828 | 493b bf18 | 0100 000f 
  0x000001e99a3b2218: 871c 3500 | 0049 89bf | 0801 0000 | 48c7 0001 | 0000 0048 | 8bca 49ba | 0000 00a0 | e901 0000 
  0x000001e99a3b2238: 492b ca89 | 4808 4833 | c989 480c | 4833 c948 | 8948 1048 | 8948 1848 

  0x000001e99a3b2250: ;   {oop("Illegal use of ClassFileAssembler"{0x00000000d44b9f30})}
  0x000001e99a3b2250: 8948 2049 | b830 9f4b | d400 0000 | 0048 8bd0 | 4889 8424 | e002 0000 | 0f1f 8000 

  0x000001e99a3b226c: ;   {optimized virtual_call}
  0x000001e99a3b226c: 0000 00e8 

  0x000001e99a3b2270: ; ImmutableOopMap {[120]=Oop [736]=Oop }
                      ;*invokespecial <init> {reexecute=0 rethrow=0 return_oop=0}
                      ; - jdk.internal.reflect.ClassFileAssembler::cpi@13 (line 95)
                      ; - jdk.internal.reflect.AccessorGenerator::emitBoxingContantPoolEntries@1432 (line 373)
  0x000001e99a3b2270: 0cab a8fe | 488b 8424 | e002 0000 | e95c 3900 

  0x000001e99a3b2280: ;   {metadata('java/lang/RuntimeException')}
  0x000001e99a3b2280: 0048 ba18 | ec02 a0e9 | 0100 0049 | 8b87 0801 | 0000 488d | 7828 493b | bf18 0100 | 000f 87a3 
  0x000001e99a3b22a0: 3400 0049 | 89bf 0801 | 0000 48c7 | 0001 0000 | 0048 8bca | 49ba 0000 | 00a0 e901 | 0000 492b 
  0x000001e99a3b22c0: ca89 4808 | 4833 c989 | 480c 4833 | c948 8948 | 1048 8948 | 1848 8948 

  0x000001e99a3b22d8: ;   {oop("Illegal use of ClassFileAssembler"{0x00000000d44b9f30})}
  0x000001e99a3b22d8: 2049 b830 | 9f4b d400 | 0000 0048 | 8bd0 4889 | 8424 e802 

  0x000001e99a3b22ec: ;   {optimized virtual_call}
  0x000001e99a3b22ec: 0000 90e8 

  0x000001e99a3b22f0: ; ImmutableOopMap {[120]=Oop [744]=Oop [720]=Oop }
                      ;*invokespecial <init> {reexecute=0 rethrow=0 return_oop=0}
                      ; - jdk.internal.reflect.ClassFileAssembler::cpi@13 (line 95)
                      ; - jdk.internal.reflect.AccessorGenerator::emitBoxingContantPoolEntries@1421 (line 372)
  0x000001e99a3b22f0: 8caa a8fe | 488b 8424 | e802 0000 | e9dc 3800 

  0x000001e99a3b2300: ;   {metadata('java/lang/RuntimeException')}
  0x000001e99a3b2300: 0048 ba18 | ec02 a0e9 | 0100 0049 | 8b87 0801 | 0000 488d | 7828 493b | bf18 0100 | 000f 8730 
  0x000001e99a3b2320: 3400 0049 | 89bf 0801 | 0000 48c7 | 0001 0000 | 0048 8bca | 49ba 0000 | 00a0 e901 | 0000 492b 
  0x000001e99a3b2340: ca89 4808 | 4833 c989 | 480c 4833 | c948 8948 | 1048 8948 | 1848 8948 

  0x000001e99a3b2358: ;   {oop("Illegal use of ClassFileAssembler"{0x00000000d44b9f30})}
  0x000001e99a3b2358: 2049 b830 | 9f4b d400 | 0000 0048 | 8bd0 4889 | 8424 f002 

  0x000001e99a3b236c: ;   {optimized virtual_call}
  0x000001e99a3b236c: 0000 90e8 

  0x000001e99a3b2370: ; ImmutableOopMap {[120]=Oop [752]=Oop [720]=Oop }
                      ;*invokespecial <init> {reexecute=0 rethrow=0 return_oop=0}
                      ; - jdk.internal.reflect.ClassFileAssembler::cpi@13 (line 95)
                      ; - jdk.internal.reflect.AccessorGenerator::emitBoxingContantPoolEntries@1409 (line 372)
  0x000001e99a3b2370: 0caa a8fe | 488b 8424 | f002 0000 | e95c 3800 

  0x000001e99a3b2380: ;   {metadata('java/lang/RuntimeException')}
  0x000001e99a3b2380: 0048 ba18 | ec02 a0e9 | 0100 0049 | 8b87 0801 | 0000 488d | 7828 493b | bf18 0100 | 000f 87bd 
  0x000001e99a3b23a0: 3300 0049 | 89bf 0801 | 0000 48c7 | 0001 0000 | 0048 8bca | 49ba 0000 | 00a0 e901 | 0000 492b 
  0x000001e99a3b23c0: ca89 4808 | 4833 c989 | 480c 4833 | c948 8948 | 1048 8948 | 1848 8948 

  0x000001e99a3b23d8: ;   {oop("Illegal use of ClassFileAssembler"{0x00000000d44b9f30})}
  0x000001e99a3b23d8: 2049 b830 | 9f4b d400 | 0000 0048 | 8bd0 4889 | 8424 f802 

  0x000001e99a3b23ec: ;   {optimized virtual_call}
  0x000001e99a3b23ec: 0000 90e8 

  0x000001e99a3b23f0: ; ImmutableOopMap {[120]=Oop [760]=Oop [704]=Oop }
                      ;*invokespecial <init> {reexecute=0 rethrow=0 return_oop=0}
                      ; - jdk.internal.reflect.ClassFileAssembler::cpi@13 (line 95)
                      ; - jdk.internal.reflect.AccessorGenerator::emitBoxingContantPoolEntries@1395 (line 371)
  0x000001e99a3b23f0: 8ca9 a8fe | 488b 8424 | f802 0000 | e9dc 3700 

  0x000001e99a3b2400: ;   {metadata('java/lang/RuntimeException')}
  0x000001e99a3b2400: 0048 ba18 | ec02 a0e9 | 0100 0049 | 8b87 0801 | 0000 488d | 7828 493b | bf18 0100 | 000f 874a 
  0x000001e99a3b2420: 3300 0049 | 89bf 0801 | 0000 48c7 | 0001 0000 | 0048 8bca | 49ba 0000 | 00a0 e901 | 0000 492b 
  0x000001e99a3b2440: ca89 4808 | 4833 c989 | 480c 4833 | c948 8948 | 1048 8948 | 1848 8948 

  0x000001e99a3b2458: ;   {oop("Illegal use of ClassFileAssembler"{0x00000000d44b9f30})}
  0x000001e99a3b2458: 2049 b830 | 9f4b d400 | 0000 0048 | 8bd0 4889 | 8424 0003 

  0x000001e99a3b246c: ;   {optimized virtual_call}
  0x000001e99a3b246c: 0000 90e8 

  0x000001e99a3b2470: ; ImmutableOopMap {[120]=Oop [768]=Oop [704]=Oop }
                      ;*invokespecial <init> {reexecute=0 rethrow=0 return_oop=0}
                      ; - jdk.internal.reflect.ClassFileAssembler::cpi@13 (line 95)
                      ; - jdk.internal.reflect.AccessorGenerator::emitBoxingContantPoolEntries@1384 (line 371)
  0x000001e99a3b2470: 0ca9 a8fe | 488b 8424 | 0003 0000 | e95c 3700 

  0x000001e99a3b2480: ;   {metadata('java/lang/RuntimeException')}
  0x000001e99a3b2480: 0048 ba18 | ec02 a0e9 | 0100 0049 | 8b87 0801 | 0000 488d | 7828 493b | bf18 0100 | 000f 87d7 
  0x000001e99a3b24a0: 3200 0049 | 89bf 0801 | 0000 48c7 | 0001 0000 | 0048 8bca | 49ba 0000 | 00a0 e901 | 0000 492b 
  0x000001e99a3b24c0: ca89 4808 | 4833 c989 | 480c 4833 | c948 8948 | 1048 8948 | 1848 8948 

  0x000001e99a3b24d8: ;   {oop("Illegal use of ClassFileAssembler"{0x00000000d44b9f30})}
  0x000001e99a3b24d8: 2049 b830 | 9f4b d400 | 0000 0048 | 8bd0 4889 | 8424 0803 

  0x000001e99a3b24ec: ;   {optimized virtual_call}
  0x000001e99a3b24ec: 0000 90e8 

  0x000001e99a3b24f0: ; ImmutableOopMap {[120]=Oop [776]=Oop }
                      ;*invokespecial <init> {reexecute=0 rethrow=0 return_oop=0}
                      ; - jdk.internal.reflect.ClassFileAssembler::cpi@13 (line 95)
                      ; - jdk.internal.reflect.AccessorGenerator::emitBoxingContantPoolEntries@1350 (line 368)
  0x000001e99a3b24f0: 8ca8 a8fe | 488b 8424 | 0803 0000 | e9dc 3600 

  0x000001e99a3b2500: ;   {metadata('java/lang/RuntimeException')}
  0x000001e99a3b2500: 0048 ba18 | ec02 a0e9 | 0100 0049 | 8b87 0801 | 0000 488d | 7828 493b | bf18 0100 | 000f 8764 
  0x000001e99a3b2520: 3200 0049 | 89bf 0801 | 0000 48c7 | 0001 0000 | 0048 8bca | 49ba 0000 | 00a0 e901 | 0000 492b 
  0x000001e99a3b2540: ca89 4808 | 4833 c989 | 480c 4833 | c948 8948 | 1048 8948 | 1848 8948 

  0x000001e99a3b2558: ;   {oop("Illegal use of ClassFileAssembler"{0x00000000d44b9f30})}
  0x000001e99a3b2558: 2049 b830 | 9f4b d400 | 0000 0048 | 8bd0 4889 | 8424 1003 

  0x000001e99a3b256c: ;   {optimized virtual_call}
  0x000001e99a3b256c: 0000 90e8 

  0x000001e99a3b2570: ; ImmutableOopMap {[120]=Oop [784]=Oop [688]=Oop }
                      ;*invokespecial <init> {reexecute=0 rethrow=0 return_oop=0}
                      ; - jdk.internal.reflect.ClassFileAssembler::cpi@13 (line 95)
                      ; - jdk.internal.reflect.AccessorGenerator::emitBoxingContantPoolEntries@1339 (line 367)
  0x000001e99a3b2570: 0ca8 a8fe | 488b 8424 | 1003 0000 | e95c 3600 

  0x000001e99a3b2580: ;   {metadata('java/lang/RuntimeException')}
  0x000001e99a3b2580: 0048 ba18 | ec02 a0e9 | 0100 0049 | 8b87 0801 | 0000 488d | 7828 493b | bf18 0100 | 000f 87f1 
  0x000001e99a3b25a0: 3100 0049 | 89bf 0801 | 0000 48c7 | 0001 0000 | 0048 8bca | 49ba 0000 | 00a0 e901 | 0000 492b 
  0x000001e99a3b25c0: ca89 4808 | 4833 c989 | 480c 4833 | c948 8948 | 1048 8948 | 1848 8948 

  0x000001e99a3b25d8: ;   {oop("Illegal use of ClassFileAssembler"{0x00000000d44b9f30})}
  0x000001e99a3b25d8: 2049 b830 | 9f4b d400 | 0000 0048 | 8bd0 4889 | 8424 1803 

  0x000001e99a3b25ec: ;   {optimized virtual_call}
  0x000001e99a3b25ec: 0000 90e8 

  0x000001e99a3b25f0: ; ImmutableOopMap {[120]=Oop [688]=Oop [792]=Oop }
                      ;*invokespecial <init> {reexecute=0 rethrow=0 return_oop=0}
                      ; - jdk.internal.reflect.ClassFileAssembler::cpi@13 (line 95)
                      ; - jdk.internal.reflect.AccessorGenerator::emitBoxingContantPoolEntries@1328 (line 367)
  0x000001e99a3b25f0: 8ca7 a8fe | 488b 8424 | 1803 0000 | e9dc 3500 

  0x000001e99a3b2600: ;   {metadata('java/lang/RuntimeException')}
  0x000001e99a3b2600: 0048 ba18 | ec02 a0e9 | 0100 0049 | 8b87 0801 | 0000 488d | 7828 493b | bf18 0100 | 000f 877e 
  0x000001e99a3b2620: 3100 0049 | 89bf 0801 | 0000 48c7 | 0001 0000 | 0048 8bca | 49ba 0000 | 00a0 e901 | 0000 492b 
  0x000001e99a3b2640: ca89 4808 | 4833 c989 | 480c 4833 | c948 8948 | 1048 8948 | 1848 8948 

  0x000001e99a3b2658: ;   {oop("Illegal use of ClassFileAssembler"{0x00000000d44b9f30})}
  0x000001e99a3b2658: 2049 b830 | 9f4b d400 | 0000 0048 | 8bd0 4889 | 8424 2003 

  0x000001e99a3b266c: ;   {optimized virtual_call}
  0x000001e99a3b266c: 0000 90e8 

  0x000001e99a3b2670: ; ImmutableOopMap {[120]=Oop [672]=Oop [800]=Oop }
                      ;*invokespecial <init> {reexecute=0 rethrow=0 return_oop=0}
                      ; - jdk.internal.reflect.ClassFileAssembler::cpi@13 (line 95)
                      ; - jdk.internal.reflect.AccessorGenerator::emitBoxingContantPoolEntries@1314 (line 366)
  0x000001e99a3b2670: 0ca7 a8fe | 488b 8424 | 2003 0000 | e95c 3500 

  0x000001e99a3b2680: ;   {metadata('java/lang/RuntimeException')}
  0x000001e99a3b2680: 0048 ba18 | ec02 a0e9 | 0100 0049 | 8b87 0801 | 0000 488d | 7828 493b | bf18 0100 | 000f 870b 
  0x000001e99a3b26a0: 3100 0049 | 89bf 0801 | 0000 48c7 | 0001 0000 | 0048 8bca | 49ba 0000 | 00a0 e901 | 0000 492b 
  0x000001e99a3b26c0: ca89 4808 | 4833 c989 | 480c 4833 | c948 8948 | 1048 8948 | 1848 8948 

  0x000001e99a3b26d8: ;   {oop("Illegal use of ClassFileAssembler"{0x00000000d44b9f30})}
  0x000001e99a3b26d8: 2049 b830 | 9f4b d400 | 0000 0048 | 8bd0 4889 | 8424 2803 

  0x000001e99a3b26ec: ;   {optimized virtual_call}
  0x000001e99a3b26ec: 0000 90e8 

  0x000001e99a3b26f0: ; ImmutableOopMap {[120]=Oop [808]=Oop }
                      ;*invokespecial <init> {reexecute=0 rethrow=0 return_oop=0}
                      ; - jdk.internal.reflect.ClassFileAssembler::cpi@13 (line 95)
                      ; - jdk.internal.reflect.AccessorGenerator::emitBoxingContantPoolEntries@1287 (line 364)
  0x000001e99a3b26f0: 8ca6 a8fe | 488b 8424 | 2803 0000 | e9dc 3400 

  0x000001e99a3b2700: ;   {metadata('java/lang/RuntimeException')}
  0x000001e99a3b2700: 0048 ba18 | ec02 a0e9 | 0100 0049 | 8b87 0801 | 0000 488d | 7828 493b | bf18 0100 | 000f 8798 
  0x000001e99a3b2720: 3000 0049 | 89bf 0801 | 0000 48c7 | 0001 0000 | 0048 8bca | 49ba 0000 | 00a0 e901 | 0000 492b 
  0x000001e99a3b2740: ca89 4808 | 4833 c989 | 480c 4833 | c948 8948 | 1048 8948 | 1848 8948 

  0x000001e99a3b2758: ;   {oop("Illegal use of ClassFileAssembler"{0x00000000d44b9f30})}
  0x000001e99a3b2758: 2049 b830 | 9f4b d400 | 0000 0048 | 8bd0 4889 | 8424 3003 

  0x000001e99a3b276c: ;   {optimized virtual_call}
  0x000001e99a3b276c: 0000 90e8 

  0x000001e99a3b2770: ; ImmutableOopMap {[120]=Oop [816]=Oop [664]=Oop }
                      ;*invokespecial <init> {reexecute=0 rethrow=0 return_oop=0}
                      ; - jdk.internal.reflect.ClassFileAssembler::cpi@13 (line 95)
                      ; - jdk.internal.reflect.AccessorGenerator::emitBoxingContantPoolEntries@1276 (line 363)
  0x000001e99a3b2770: 0ca6 a8fe | 488b 8424 | 3003 0000 | e95c 3400 

  0x000001e99a3b2780: ;   {metadata('java/lang/RuntimeException')}
  0x000001e99a3b2780: 0048 ba18 | ec02 a0e9 | 0100 0049 | 8b87 0801 | 0000 488d | 7828 493b | bf18 0100 | 000f 8725 
  0x000001e99a3b27a0: 3000 0049 | 89bf 0801 | 0000 48c7 | 0001 0000 | 0048 8bca | 49ba 0000 | 00a0 e901 | 0000 492b 
  0x000001e99a3b27c0: ca89 4808 | 4833 c989 | 480c 4833 | c948 8948 | 1048 8948 | 1848 8948 

  0x000001e99a3b27d8: ;   {oop("Illegal use of ClassFileAssembler"{0x00000000d44b9f30})}
  0x000001e99a3b27d8: 2049 b830 | 9f4b d400 | 0000 0048 | 8bd0 4889 | 8424 3803 

  0x000001e99a3b27ec: ;   {optimized virtual_call}
  0x000001e99a3b27ec: 0000 90e8 

  0x000001e99a3b27f0: ; ImmutableOopMap {[120]=Oop [824]=Oop }
                      ;*invokespecial <init> {reexecute=0 rethrow=0 return_oop=0}
                      ; - jdk.internal.reflect.ClassFileAssembler::cpi@13 (line 95)
                      ; - jdk.internal.reflect.AccessorGenerator::emitBoxingContantPoolEntries@1253 (line 359)
  0x000001e99a3b27f0: 8ca5 a8fe | 488b 8424 | 3803 0000 | e9dc 3300 

  0x000001e99a3b2800: ;   {metadata('java/lang/RuntimeException')}
  0x000001e99a3b2800: 0048 ba18 | ec02 a0e9 | 0100 0049 | 8b87 0801 | 0000 488d | 7828 493b | bf18 0100 | 000f 87b2 
  0x000001e99a3b2820: 2f00 0049 | 89bf 0801 | 0000 48c7 | 0001 0000 | 0048 8bca | 49ba 0000 | 00a0 e901 | 0000 492b 
  0x000001e99a3b2840: ca89 4808 | 4833 c989 | 480c 4833 | c948 8948 | 1048 8948 | 1848 8948 

  0x000001e99a3b2858: ;   {oop("Illegal use of ClassFileAssembler"{0x00000000d44b9f30})}
  0x000001e99a3b2858: 2049 b830 | 9f4b d400 | 0000 0048 | 8bd0 4889 | 8424 4003 

  0x000001e99a3b286c: ;   {optimized virtual_call}
  0x000001e99a3b286c: 0000 90e8 

  0x000001e99a3b2870: ; ImmutableOopMap {[120]=Oop [832]=Oop [648]=Oop }
                      ;*invokespecial <init> {reexecute=0 rethrow=0 return_oop=0}
                      ; - jdk.internal.reflect.ClassFileAssembler::cpi@13 (line 95)
                      ; - jdk.internal.reflect.AccessorGenerator::emitBoxingContantPoolEntries@1242 (line 358)
  0x000001e99a3b2870: 0ca5 a8fe | 488b 8424 | 4003 0000 | e95c 3300 

  0x000001e99a3b2880: ;   {metadata('java/lang/RuntimeException')}
  0x000001e99a3b2880: 0048 ba18 | ec02 a0e9 | 0100 0049 | 8b87 0801 | 0000 488d | 7828 493b | bf18 0100 | 000f 873f 
  0x000001e99a3b28a0: 2f00 0049 | 89bf 0801 | 0000 48c7 | 0001 0000 | 0048 8bca | 49ba 0000 | 00a0 e901 | 0000 492b 
  0x000001e99a3b28c0: ca89 4808 | 4833 c989 | 480c 4833 | c948 8948 | 1048 8948 | 1848 8948 

  0x000001e99a3b28d8: ;   {oop("Illegal use of ClassFileAssembler"{0x00000000d44b9f30})}
  0x000001e99a3b28d8: 2049 b830 | 9f4b d400 | 0000 0048 | 8bd0 4889 | 8424 4803 

  0x000001e99a3b28ec: ;   {optimized virtual_call}
  0x000001e99a3b28ec: 0000 90e8 

  0x000001e99a3b28f0: ; ImmutableOopMap {[120]=Oop [840]=Oop [648]=Oop }
                      ;*invokespecial <init> {reexecute=0 rethrow=0 return_oop=0}
                      ; - jdk.internal.reflect.ClassFileAssembler::cpi@13 (line 95)
                      ; - jdk.internal.reflect.AccessorGenerator::emitBoxingContantPoolEntries@1230 (line 358)
  0x000001e99a3b28f0: 8ca4 a8fe | 488b 8424 | 4803 0000 | e9dc 3200 

  0x000001e99a3b2900: ;   {metadata('java/lang/RuntimeException')}
  0x000001e99a3b2900: 0048 ba18 | ec02 a0e9 | 0100 0049 | 8b87 0801 | 0000 488d | 7828 493b | bf18 0100 | 000f 87cc 
  0x000001e99a3b2920: 2e00 0049 | 89bf 0801 | 0000 48c7 | 0001 0000 | 0048 8bca | 49ba 0000 | 00a0 e901 | 0000 492b 
  0x000001e99a3b2940: ca89 4808 | 4833 c989 | 480c 4833 | c948 8948 | 1048 8948 | 1848 8948 

  0x000001e99a3b2958: ;   {oop("Illegal use of ClassFileAssembler"{0x00000000d44b9f30})}
  0x000001e99a3b2958: 2049 b830 | 9f4b d400 | 0000 0048 | 8bd0 4889 | 8424 5003 

  0x000001e99a3b296c: ;   {optimized virtual_call}
  0x000001e99a3b296c: 0000 90e8 

  0x000001e99a3b2970: ; ImmutableOopMap {[120]=Oop [848]=Oop [632]=Oop }
                      ;*invokespecial <init> {reexecute=0 rethrow=0 return_oop=0}
                      ; - jdk.internal.reflect.ClassFileAssembler::cpi@13 (line 95)
                      ; - jdk.internal.reflect.AccessorGenerator::emitBoxingContantPoolEntries@1216 (line 357)
  0x000001e99a3b2970: 0ca4 a8fe | 488b 8424 | 5003 0000 | e95c 3200 

  0x000001e99a3b2980: ;   {metadata('java/lang/RuntimeException')}
  0x000001e99a3b2980: 0048 ba18 | ec02 a0e9 | 0100 0049 | 8b87 0801 | 0000 488d | 7828 493b | bf18 0100 | 000f 8759 
  0x000001e99a3b29a0: 2e00 0049 | 89bf 0801 | 0000 48c7 | 0001 0000 | 0048 8bca | 49ba 0000 | 00a0 e901 | 0000 492b 
  0x000001e99a3b29c0: ca89 4808 | 4833 c989 | 480c 4833 | c948 8948 | 1048 8948 | 1848 8948 

  0x000001e99a3b29d8: ;   {oop("Illegal use of ClassFileAssembler"{0x00000000d44b9f30})}
  0x000001e99a3b29d8: 2049 b830 | 9f4b d400 | 0000 0048 | 8bd0 4889 | 8424 5803 

  0x000001e99a3b29ec: ;   {optimized virtual_call}
  0x000001e99a3b29ec: 0000 90e8 

  0x000001e99a3b29f0: ; ImmutableOopMap {[120]=Oop [632]=Oop [856]=Oop }
                      ;*invokespecial <init> {reexecute=0 rethrow=0 return_oop=0}
                      ; - jdk.internal.reflect.ClassFileAssembler::cpi@13 (line 95)
                      ; - jdk.internal.reflect.AccessorGenerator::emitBoxingContantPoolEntries@1205 (line 357)
  0x000001e99a3b29f0: 8ca3 a8fe | 488b 8424 | 5803 0000 | e9dc 3100 

  0x000001e99a3b2a00: ;   {metadata('java/lang/RuntimeException')}
  0x000001e99a3b2a00: 0048 ba18 | ec02 a0e9 | 0100 0049 | 8b87 0801 | 0000 488d | 7828 493b | bf18 0100 | 000f 87e6 
  0x000001e99a3b2a20: 2d00 0049 | 89bf 0801 | 0000 48c7 | 0001 0000 | 0048 8bca | 49ba 0000 | 00a0 e901 | 0000 492b 
  0x000001e99a3b2a40: ca89 4808 | 4833 c989 | 480c 4833 | c948 8948 | 1048 8948 | 1848 8948 

  0x000001e99a3b2a58: ;   {oop("Illegal use of ClassFileAssembler"{0x00000000d44b9f30})}
  0x000001e99a3b2a58: 2049 b830 | 9f4b d400 | 0000 0048 | 8bd0 4889 | 8424 6003 

  0x000001e99a3b2a6c: ;   {optimized virtual_call}
  0x000001e99a3b2a6c: 0000 90e8 

  0x000001e99a3b2a70: ; ImmutableOopMap {[120]=Oop [864]=Oop }
                      ;*invokespecial <init> {reexecute=0 rethrow=0 return_oop=0}
                      ; - jdk.internal.reflect.ClassFileAssembler::cpi@13 (line 95)
                      ; - jdk.internal.reflect.AccessorGenerator::emitBoxingContantPoolEntries@1173 (line 354)
  0x000001e99a3b2a70: 0ca3 a8fe | 488b 8424 | 6003 0000 | e95c 3100 

  0x000001e99a3b2a80: ;   {metadata('java/lang/RuntimeException')}
  0x000001e99a3b2a80: 0048 ba18 | ec02 a0e9 | 0100 0049 | 8b87 0801 | 0000 488d | 7828 493b | bf18 0100 | 000f 8773 
  0x000001e99a3b2aa0: 2d00 0049 | 89bf 0801 | 0000 48c7 | 0001 0000 | 0048 8bca | 49ba 0000 | 00a0 e901 | 0000 492b 
  0x000001e99a3b2ac0: ca89 4808 | 4833 c989 | 480c 4833 | c948 8948 | 1048 8948 | 1848 8948 

  0x000001e99a3b2ad8: ;   {oop("Illegal use of ClassFileAssembler"{0x00000000d44b9f30})}
  0x000001e99a3b2ad8: 2049 b830 | 9f4b d400 | 0000 0048 | 8bd0 4889 | 8424 6803 

  0x000001e99a3b2aec: ;   {optimized virtual_call}
  0x000001e99a3b2aec: 0000 90e8 

  0x000001e99a3b2af0: ; ImmutableOopMap {[120]=Oop [616]=Oop [872]=Oop }
                      ;*invokespecial <init> {reexecute=0 rethrow=0 return_oop=0}
                      ; - jdk.internal.reflect.ClassFileAssembler::cpi@13 (line 95)
                      ; - jdk.internal.reflect.AccessorGenerator::emitBoxingContantPoolEntries@1162 (line 353)
  0x000001e99a3b2af0: 8ca2 a8fe | 488b 8424 | 6803 0000 | e9dc 3000 

  0x000001e99a3b2b00: ;   {metadata('java/lang/RuntimeException')}
  0x000001e99a3b2b00: 0048 ba18 | ec02 a0e9 | 0100 0049 | 8b87 0801 | 0000 488d | 7828 493b | bf18 0100 | 000f 8700 
  0x000001e99a3b2b20: 2d00 0049 | 89bf 0801 | 0000 48c7 | 0001 0000 | 0048 8bca | 49ba 0000 | 00a0 e901 | 0000 492b 
  0x000001e99a3b2b40: ca89 4808 | 4833 c989 | 480c 4833 | c948 8948 | 1048 8948 | 1848 8948 

  0x000001e99a3b2b58: ;   {oop("Illegal use of ClassFileAssembler"{0x00000000d44b9f30})}
  0x000001e99a3b2b58: 2049 b830 | 9f4b d400 | 0000 0048 | 8bd0 4889 | 8424 7003 

  0x000001e99a3b2b6c: ;   {optimized virtual_call}
  0x000001e99a3b2b6c: 0000 90e8 

  0x000001e99a3b2b70: ; ImmutableOopMap {[120]=Oop [880]=Oop [616]=Oop }
                      ;*invokespecial <init> {reexecute=0 rethrow=0 return_oop=0}
                      ; - jdk.internal.reflect.ClassFileAssembler::cpi@13 (line 95)
                      ; - jdk.internal.reflect.AccessorGenerator::emitBoxingContantPoolEntries@1151 (line 353)
  0x000001e99a3b2b70: 0ca2 a8fe | 488b 8424 | 7003 0000 | e95c 3000 

  0x000001e99a3b2b80: ;   {metadata('java/lang/RuntimeException')}
  0x000001e99a3b2b80: 0048 ba18 | ec02 a0e9 | 0100 0049 | 8b87 0801 | 0000 488d | 7828 493b | bf18 0100 | 000f 878d 
  0x000001e99a3b2ba0: 2c00 0049 | 89bf 0801 | 0000 48c7 | 0001 0000 | 0048 8bca | 49ba 0000 | 00a0 e901 | 0000 492b 
  0x000001e99a3b2bc0: ca89 4808 | 4833 c989 | 480c 4833 | c948 8948 | 1048 8948 | 1848 8948 

  0x000001e99a3b2bd8: ;   {oop("Illegal use of ClassFileAssembler"{0x00000000d44b9f30})}
  0x000001e99a3b2bd8: 2049 b830 | 9f4b d400 | 0000 0048 | 8bd0 4889 | 8424 7803 

  0x000001e99a3b2bec: ;   {optimized virtual_call}
  0x000001e99a3b2bec: 0000 90e8 

  0x000001e99a3b2bf0: ; ImmutableOopMap {[120]=Oop [888]=Oop [600]=Oop }
                      ;*invokespecial <init> {reexecute=0 rethrow=0 return_oop=0}
                      ; - jdk.internal.reflect.ClassFileAssembler::cpi@13 (line 95)
                      ; - jdk.internal.reflect.AccessorGenerator::emitBoxingContantPoolEntries@1137 (line 352)
  0x000001e99a3b2bf0: 8ca1 a8fe | 488b 8424 | 7803 0000 | e9dc 2f00 

  0x000001e99a3b2c00: ;   {metadata('java/lang/RuntimeException')}
  0x000001e99a3b2c00: 0048 ba18 | ec02 a0e9 | 0100 0049 | 8b87 0801 | 0000 488d | 7828 493b | bf18 0100 | 000f 871a 
  0x000001e99a3b2c20: 2c00 0049 | 89bf 0801 | 0000 48c7 | 0001 0000 | 0048 8bca | 49ba 0000 | 00a0 e901 | 0000 492b 
  0x000001e99a3b2c40: ca89 4808 | 4833 c989 | 480c 4833 | c948 8948 | 1048 8948 | 1848 8948 

  0x000001e99a3b2c58: ;   {oop("Illegal use of ClassFileAssembler"{0x00000000d44b9f30})}
  0x000001e99a3b2c58: 2049 b830 | 9f4b d400 | 0000 0048 | 8bd0 4889 | 8424 8003 

  0x000001e99a3b2c6c: ;   {optimized virtual_call}
  0x000001e99a3b2c6c: 0000 90e8 

  0x000001e99a3b2c70: ; ImmutableOopMap {[120]=Oop [896]=Oop }
                      ;*invokespecial <init> {reexecute=0 rethrow=0 return_oop=0}
                      ; - jdk.internal.reflect.ClassFileAssembler::cpi@13 (line 95)
                      ; - jdk.internal.reflect.AccessorGenerator::emitBoxingContantPoolEntries@1110 (line 350)
  0x000001e99a3b2c70: 0ca1 a8fe | 488b 8424 | 8003 0000 | e95c 2f00 

  0x000001e99a3b2c80: ;   {metadata('java/lang/RuntimeException')}
  0x000001e99a3b2c80: 0048 ba18 | ec02 a0e9 | 0100 0049 | 8b87 0801 | 0000 488d | 7828 493b | bf18 0100 | 000f 87a7 
  0x000001e99a3b2ca0: 2b00 0049 | 89bf 0801 | 0000 48c7 | 0001 0000 | 0048 8bca | 49ba 0000 | 00a0 e901 | 0000 492b 
  0x000001e99a3b2cc0: ca89 4808 | 4833 c989 | 480c 4833 | c948 8948 | 1048 8948 | 1848 8948 

  0x000001e99a3b2cd8: ;   {oop("Illegal use of ClassFileAssembler"{0x00000000d44b9f30})}
  0x000001e99a3b2cd8: 2049 b830 | 9f4b d400 | 0000 0048 | 8bd0 4889 | 8424 8803 

  0x000001e99a3b2cec: ;   {optimized virtual_call}
  0x000001e99a3b2cec: 0000 90e8 

  0x000001e99a3b2cf0: ; ImmutableOopMap {[120]=Oop [584]=Oop [904]=Oop }
                      ;*invokespecial <init> {reexecute=0 rethrow=0 return_oop=0}
                      ; - jdk.internal.reflect.ClassFileAssembler::cpi@13 (line 95)
                      ; - jdk.internal.reflect.AccessorGenerator::emitBoxingContantPoolEntries@1099 (line 349)
  0x000001e99a3b2cf0: 8ca0 a8fe | 488b 8424 | 8803 0000 | e9dc 2e00 

  0x000001e99a3b2d00: ;   {metadata('java/lang/RuntimeException')}
  0x000001e99a3b2d00: 0048 ba18 | ec02 a0e9 | 0100 0049 | 8b87 0801 | 0000 488d | 7828 493b | bf18 0100 | 000f 8734 
  0x000001e99a3b2d20: 2b00 0049 | 89bf 0801 | 0000 48c7 | 0001 0000 | 0048 8bca | 49ba 0000 | 00a0 e901 | 0000 492b 
  0x000001e99a3b2d40: ca89 4808 | 4833 c989 | 480c 4833 | c948 8948 | 1048 8948 | 1848 8948 

  0x000001e99a3b2d58: ;   {oop("Illegal use of ClassFileAssembler"{0x00000000d44b9f30})}
  0x000001e99a3b2d58: 2049 b830 | 9f4b d400 | 0000 0048 | 8bd0 4889 | 8424 9003 

  0x000001e99a3b2d6c: ;   {optimized virtual_call}
  0x000001e99a3b2d6c: 0000 90e8 

  0x000001e99a3b2d70: ; ImmutableOopMap {[120]=Oop [912]=Oop }
                      ;*invokespecial <init> {reexecute=0 rethrow=0 return_oop=0}
                      ; - jdk.internal.reflect.ClassFileAssembler::cpi@13 (line 95)
                      ; - jdk.internal.reflect.AccessorGenerator::emitBoxingContantPoolEntries@1076 (line 345)
  0x000001e99a3b2d70: 0ca0 a8fe | 488b 8424 | 9003 0000 | e95c 2e00 

  0x000001e99a3b2d80: ;   {metadata('java/lang/RuntimeException')}
  0x000001e99a3b2d80: 0048 ba18 | ec02 a0e9 | 0100 0049 | 8b87 0801 | 0000 488d | 7828 493b | bf18 0100 | 000f 87c1 
  0x000001e99a3b2da0: 2a00 0049 | 89bf 0801 | 0000 48c7 | 0001 0000 | 0048 8bca | 49ba 0000 | 00a0 e901 | 0000 492b 
  0x000001e99a3b2dc0: ca89 4808 | 4833 c989 | 480c 4833 | c948 8948 | 1048 8948 | 1848 8948 

  0x000001e99a3b2dd8: ;   {oop("Illegal use of ClassFileAssembler"{0x00000000d44b9f30})}
  0x000001e99a3b2dd8: 2049 b830 | 9f4b d400 | 0000 0048 | 8bd0 4889 | 8424 9803 

  0x000001e99a3b2dec: ;   {optimized virtual_call}
  0x000001e99a3b2dec: 0000 90e8 

  0x000001e99a3b2df0: ; ImmutableOopMap {[120]=Oop [568]=Oop [920]=Oop }
                      ;*invokespecial <init> {reexecute=0 rethrow=0 return_oop=0}
                      ; - jdk.internal.reflect.ClassFileAssembler::cpi@13 (line 95)
                      ; - jdk.internal.reflect.AccessorGenerator::emitBoxingContantPoolEntries@1065 (line 344)
  0x000001e99a3b2df0: 8c9f a8fe | 488b 8424 | 9803 0000 | e9dc 2d00 

  0x000001e99a3b2e00: ;   {metadata('java/lang/RuntimeException')}
  0x000001e99a3b2e00: 0048 ba18 | ec02 a0e9 | 0100 0049 | 8b87 0801 | 0000 488d | 7828 493b | bf18 0100 | 000f 874e 
  0x000001e99a3b2e20: 2a00 0049 | 89bf 0801 | 0000 48c7 | 0001 0000 | 0048 8bca | 49ba 0000 | 00a0 e901 | 0000 492b 
  0x000001e99a3b2e40: ca89 4808 | 4833 c989 | 480c 4833 | c948 8948 | 1048 8948 | 1848 8948 

  0x000001e99a3b2e58: ;   {oop("Illegal use of ClassFileAssembler"{0x00000000d44b9f30})}
  0x000001e99a3b2e58: 2049 b830 | 9f4b d400 | 0000 0048 | 8bd0 4889 | 8424 a003 

  0x000001e99a3b2e6c: ;   {optimized virtual_call}
  0x000001e99a3b2e6c: 0000 90e8 

  0x000001e99a3b2e70: ; ImmutableOopMap {[120]=Oop [928]=Oop [568]=Oop }
                      ;*invokespecial <init> {reexecute=0 rethrow=0 return_oop=0}
                      ; - jdk.internal.reflect.ClassFileAssembler::cpi@13 (line 95)
                      ; - jdk.internal.reflect.AccessorGenerator::emitBoxingContantPoolEntries@1053 (line 344)
  0x000001e99a3b2e70: 0c9f a8fe | 488b 8424 | a003 0000 | e95c 2d00 

  0x000001e99a3b2e80: ;   {metadata('java/lang/RuntimeException')}
  0x000001e99a3b2e80: 0048 ba18 | ec02 a0e9 | 0100 0049 | 8b87 0801 | 0000 488d | 7828 493b | bf18 0100 | 000f 87db 
  0x000001e99a3b2ea0: 2900 0049 | 89bf 0801 | 0000 48c7 | 0001 0000 | 0048 8bca | 49ba 0000 | 00a0 e901 | 0000 492b 
  0x000001e99a3b2ec0: ca89 4808 | 4833 c989 | 480c 4833 | c948 8948 | 1048 8948 | 1848 8948 

  0x000001e99a3b2ed8: ;   {oop("Illegal use of ClassFileAssembler"{0x00000000d44b9f30})}
  0x000001e99a3b2ed8: 2049 b830 | 9f4b d400 | 0000 0048 | 8bd0 4889 | 8424 a803 

  0x000001e99a3b2eec: ;   {optimized virtual_call}
  0x000001e99a3b2eec: 0000 90e8 

  0x000001e99a3b2ef0: ; ImmutableOopMap {[120]=Oop [552]=Oop [936]=Oop }
                      ;*invokespecial <init> {reexecute=0 rethrow=0 return_oop=0}
                      ; - jdk.internal.reflect.ClassFileAssembler::cpi@13 (line 95)
                      ; - jdk.internal.reflect.AccessorGenerator::emitBoxingContantPoolEntries@1039 (line 343)
  0x000001e99a3b2ef0: 8c9e a8fe | 488b 8424 | a803 0000 | e9dc 2c00 

  0x000001e99a3b2f00: ;   {metadata('java/lang/RuntimeException')}
  0x000001e99a3b2f00: 0048 ba18 | ec02 a0e9 | 0100 0049 | 8b87 0801 | 0000 488d | 7828 493b | bf18 0100 | 000f 8768 
  0x000001e99a3b2f20: 2900 0049 | 89bf 0801 | 0000 48c7 | 0001 0000 | 0048 8bca | 49ba 0000 | 00a0 e901 | 0000 492b 
  0x000001e99a3b2f40: ca89 4808 | 4833 c989 | 480c 4833 | c948 8948 | 1048 8948 | 1848 8948 

  0x000001e99a3b2f58: ;   {oop("Illegal use of ClassFileAssembler"{0x00000000d44b9f30})}
  0x000001e99a3b2f58: 2049 b830 | 9f4b d400 | 0000 0048 | 8bd0 4889 | 8424 b003 

  0x000001e99a3b2f6c: ;   {optimized virtual_call}
  0x000001e99a3b2f6c: 0000 90e8 

  0x000001e99a3b2f70: ; ImmutableOopMap {[120]=Oop [552]=Oop [944]=Oop }
                      ;*invokespecial <init> {reexecute=0 rethrow=0 return_oop=0}
                      ; - jdk.internal.reflect.ClassFileAssembler::cpi@13 (line 95)
                      ; - jdk.internal.reflect.AccessorGenerator::emitBoxingContantPoolEntries@1028 (line 343)
  0x000001e99a3b2f70: 0c9e a8fe | 488b 8424 | b003 0000 | e95c 2c00 

  0x000001e99a3b2f80: ;   {metadata('java/lang/RuntimeException')}
  0x000001e99a3b2f80: 0048 ba18 | ec02 a0e9 | 0100 0049 | 8b87 0801 | 0000 488d | 7828 493b | bf18 0100 | 000f 87f5 
  0x000001e99a3b2fa0: 2800 0049 | 89bf 0801 | 0000 48c7 | 0001 0000 | 0048 8bca | 49ba 0000 | 00a0 e901 | 0000 492b 
  0x000001e99a3b2fc0: ca89 4808 | 4833 c989 | 480c 4833 | c948 8948 | 1048 8948 | 1848 8948 

  0x000001e99a3b2fd8: ;   {oop("Illegal use of ClassFileAssembler"{0x00000000d44b9f30})}
  0x000001e99a3b2fd8: 2049 b830 | 9f4b d400 | 0000 0048 | 8bd0 4889 | 8424 b803 

  0x000001e99a3b2fec: ;   {optimized virtual_call}
  0x000001e99a3b2fec: 0000 90e8 

  0x000001e99a3b2ff0: ; ImmutableOopMap {[120]=Oop [952]=Oop }
                      ;*invokespecial <init> {reexecute=0 rethrow=0 return_oop=0}
                      ; - jdk.internal.reflect.ClassFileAssembler::cpi@13 (line 95)
                      ; - jdk.internal.reflect.AccessorGenerator::emitBoxingContantPoolEntries@996 (line 340)
  0x000001e99a3b2ff0: 8c9d a8fe | 488b 8424 | b803 0000 | e9dc 2b00 

  0x000001e99a3b3000: ;   {metadata('java/lang/RuntimeException')}
  0x000001e99a3b3000: 0048 ba18 | ec02 a0e9 | 0100 0049 | 8b87 0801 | 0000 488d | 7828 493b | bf18 0100 | 000f 8782 
  0x000001e99a3b3020: 2800 0049 | 89bf 0801 | 0000 48c7 | 0001 0000 | 0048 8bca | 49ba 0000 | 00a0 e901 | 0000 492b 
  0x000001e99a3b3040: ca89 4808 | 4833 c989 | 480c 4833 | c948 8948 | 1048 8948 | 1848 8948 

  0x000001e99a3b3058: ;   {oop("Illegal use of ClassFileAssembler"{0x00000000d44b9f30})}
  0x000001e99a3b3058: 2049 b830 | 9f4b d400 | 0000 0048 | 8bd0 4889 | 8424 c003 

  0x000001e99a3b306c: ;   {optimized virtual_call}
  0x000001e99a3b306c: 0000 90e8 

  0x000001e99a3b3070: ; ImmutableOopMap {[120]=Oop [960]=Oop [536]=Oop }
                      ;*invokespecial <init> {reexecute=0 rethrow=0 return_oop=0}
                      ; - jdk.internal.reflect.ClassFileAssembler::cpi@13 (line 95)
                      ; - jdk.internal.reflect.AccessorGenerator::emitBoxingContantPoolEntries@985 (line 339)
  0x000001e99a3b3070: 0c9d a8fe | 488b 8424 | c003 0000 | e95c 2b00 

  0x000001e99a3b3080: ;   {metadata('java/lang/RuntimeException')}
  0x000001e99a3b3080: 0048 ba18 | ec02 a0e9 | 0100 0049 | 8b87 0801 | 0000 488d | 7828 493b | bf18 0100 | 000f 870f 
  0x000001e99a3b30a0: 2800 0049 | 89bf 0801 | 0000 48c7 | 0001 0000 | 0048 8bca | 49ba 0000 | 00a0 e901 | 0000 492b 
  0x000001e99a3b30c0: ca89 4808 | 4833 c989 | 480c 4833 | c948 8948 | 1048 8948 | 1848 8948 

  0x000001e99a3b30d8: ;   {oop("Illegal use of ClassFileAssembler"{0x00000000d44b9f30})}
  0x000001e99a3b30d8: 2049 b830 | 9f4b d400 | 0000 0048 | 8bd0 4889 | 8424 c803 

  0x000001e99a3b30ec: ;   {optimized virtual_call}
  0x000001e99a3b30ec: 0000 90e8 

  0x000001e99a3b30f0: ; ImmutableOopMap {[120]=Oop [968]=Oop [536]=Oop }
                      ;*invokespecial <init> {reexecute=0 rethrow=0 return_oop=0}
                      ; - jdk.internal.reflect.ClassFileAssembler::cpi@13 (line 95)
                      ; - jdk.internal.reflect.AccessorGenerator::emitBoxingContantPoolEntries@974 (line 339)
  0x000001e99a3b30f0: 8c9c a8fe | 488b 8424 | c803 0000 | e9dc 2a00 

  0x000001e99a3b3100: ;   {metadata('java/lang/RuntimeException')}
  0x000001e99a3b3100: 0048 ba18 | ec02 a0e9 | 0100 0049 | 8b87 0801 | 0000 488d | 7828 493b | bf18 0100 | 000f 879c 
  0x000001e99a3b3120: 2700 0049 | 89bf 0801 | 0000 48c7 | 0001 0000 | 0048 8bca | 49ba 0000 | 00a0 e901 | 0000 492b 
  0x000001e99a3b3140: ca89 4808 | 4833 c989 | 480c 4833 | c948 8948 | 1048 8948 | 1848 8948 

  0x000001e99a3b3158: ;   {oop("Illegal use of ClassFileAssembler"{0x00000000d44b9f30})}
  0x000001e99a3b3158: 2049 b830 | 9f4b d400 | 0000 0048 | 8bd0 4889 | 8424 d003 

  0x000001e99a3b316c: ;   {optimized virtual_call}
  0x000001e99a3b316c: 0000 90e8 

  0x000001e99a3b3170: ; ImmutableOopMap {[120]=Oop [520]=Oop [976]=Oop }
                      ;*invokespecial <init> {reexecute=0 rethrow=0 return_oop=0}
                      ; - jdk.internal.reflect.ClassFileAssembler::cpi@13 (line 95)
                      ; - jdk.internal.reflect.AccessorGenerator::emitBoxingContantPoolEntries@960 (line 338)
  0x000001e99a3b3170: 0c9c a8fe | 488b 8424 | d003 0000 | e95c 2a00 

  0x000001e99a3b3180: ;   {metadata('java/lang/RuntimeException')}
  0x000001e99a3b3180: 0048 ba18 | ec02 a0e9 | 0100 0049 | 8b87 0801 | 0000 488d | 7828 493b | bf18 0100 | 000f 8729 
  0x000001e99a3b31a0: 2700 0049 | 89bf 0801 | 0000 48c7 | 0001 0000 | 0048 8bca | 49ba 0000 | 00a0 e901 | 0000 492b 
  0x000001e99a3b31c0: ca89 4808 | 4833 c989 | 480c 4833 | c948 8948 | 1048 8948 | 1848 8948 

  0x000001e99a3b31d8: ;   {oop("Illegal use of ClassFileAssembler"{0x00000000d44b9f30})}
  0x000001e99a3b31d8: 2049 b830 | 9f4b d400 | 0000 0048 | 8bd0 4889 | 8424 d803 

  0x000001e99a3b31ec: ;   {optimized virtual_call}
  0x000001e99a3b31ec: 0000 90e8 

  0x000001e99a3b31f0: ; ImmutableOopMap {[120]=Oop [984]=Oop }
                      ;*invokespecial <init> {reexecute=0 rethrow=0 return_oop=0}
                      ; - jdk.internal.reflect.ClassFileAssembler::cpi@13 (line 95)
                      ; - jdk.internal.reflect.AccessorGenerator::emitBoxingContantPoolEntries@933 (line 336)
  0x000001e99a3b31f0: 8c9b a8fe | 488b 8424 | d803 0000 | e9dc 2900 

  0x000001e99a3b3200: ;   {metadata('java/lang/RuntimeException')}
  0x000001e99a3b3200: 0048 ba18 | ec02 a0e9 | 0100 0049 | 8b87 0801 | 0000 488d | 7828 493b | bf18 0100 | 000f 87b6 
  0x000001e99a3b3220: 2600 0049 | 89bf 0801 | 0000 48c7 | 0001 0000 | 0048 8bca | 49ba 0000 | 00a0 e901 | 0000 492b 
  0x000001e99a3b3240: ca89 4808 | 4833 c989 | 480c 4833 | c948 8948 | 1048 8948 | 1848 8948 

  0x000001e99a3b3258: ;   {oop("Illegal use of ClassFileAssembler"{0x00000000d44b9f30})}
  0x000001e99a3b3258: 2049 b830 | 9f4b d400 | 0000 0048 | 8bd0 4889 | 8424 e003 

  0x000001e99a3b326c: ;   {optimized virtual_call}
  0x000001e99a3b326c: 0000 90e8 

  0x000001e99a3b3270: ; ImmutableOopMap {[120]=Oop [992]=Oop [512]=Oop }
                      ;*invokespecial <init> {reexecute=0 rethrow=0 return_oop=0}
                      ; - jdk.internal.reflect.ClassFileAssembler::cpi@13 (line 95)
                      ; - jdk.internal.reflect.AccessorGenerator::emitBoxingContantPoolEntries@922 (line 335)
  0x000001e99a3b3270: 0c9b a8fe | 488b 8424 | e003 0000 | e95c 2900 

  0x000001e99a3b3280: ;   {metadata('java/lang/RuntimeException')}
  0x000001e99a3b3280: 0048 ba18 | ec02 a0e9 | 0100 0049 | 8b87 0801 | 0000 488d | 7828 493b | bf18 0100 | 000f 8743 
  0x000001e99a3b32a0: 2600 0049 | 89bf 0801 | 0000 48c7 | 0001 0000 | 0048 8bca | 49ba 0000 | 00a0 e901 | 0000 492b 
  0x000001e99a3b32c0: ca89 4808 | 4833 c989 | 480c 4833 | c948 8948 | 1048 8948 | 1848 8948 

  0x000001e99a3b32d8: ;   {oop("Illegal use of ClassFileAssembler"{0x00000000d44b9f30})}
  0x000001e99a3b32d8: 2049 b830 | 9f4b d400 | 0000 0048 | 8bd0 4889 | 8424 e803 

  0x000001e99a3b32ec: ;   {optimized virtual_call}
  0x000001e99a3b32ec: 0000 90e8 

  0x000001e99a3b32f0: ; ImmutableOopMap {[120]=Oop [1000]=Oop }
                      ;*invokespecial <init> {reexecute=0 rethrow=0 return_oop=0}
                      ; - jdk.internal.reflect.ClassFileAssembler::cpi@13 (line 95)
                      ; - jdk.internal.reflect.AccessorGenerator::emitBoxingContantPoolEntries@899 (line 331)
  0x000001e99a3b32f0: 8c9a a8fe | 488b 8424 | e803 0000 | e9dc 2800 

  0x000001e99a3b3300: ;   {metadata('java/lang/RuntimeException')}
  0x000001e99a3b3300: 0048 ba18 | ec02 a0e9 | 0100 0049 | 8b87 0801 | 0000 488d | 7828 493b | bf18 0100 | 000f 87d0 
  0x000001e99a3b3320: 2500 0049 | 89bf 0801 | 0000 48c7 | 0001 0000 | 0048 8bca | 49ba 0000 | 00a0 e901 | 0000 492b 
  0x000001e99a3b3340: ca89 4808 | 4833 c989 | 480c 4833 | c948 8948 | 1048 8948 | 1848 8948 

  0x000001e99a3b3358: ;   {oop("Illegal use of ClassFileAssembler"{0x00000000d44b9f30})}
  0x000001e99a3b3358: 2049 b830 | 9f4b d400 | 0000 0048 | 8bd0 4889 | 8424 f003 

  0x000001e99a3b336c: ;   {optimized virtual_call}
  0x000001e99a3b336c: 0000 90e8 

  0x000001e99a3b3370: ; ImmutableOopMap {[120]=Oop [1008]=Oop [496]=Oop }
                      ;*invokespecial <init> {reexecute=0 rethrow=0 return_oop=0}
                      ; - jdk.internal.reflect.ClassFileAssembler::cpi@13 (line 95)
                      ; - jdk.internal.reflect.AccessorGenerator::emitBoxingContantPoolEntries@888 (line 330)
  0x000001e99a3b3370: 0c9a a8fe | 488b 8424 | f003 0000 | e95c 2800 

  0x000001e99a3b3380: ;   {metadata('java/lang/RuntimeException')}
  0x000001e99a3b3380: 0048 ba18 | ec02 a0e9 | 0100 0049 | 8b87 0801 | 0000 488d | 7828 493b | bf18 0100 | 000f 875d 
  0x000001e99a3b33a0: 2500 0049 | 89bf 0801 | 0000 48c7 | 0001 0000 | 0048 8bca | 49ba 0000 | 00a0 e901 | 0000 492b 
  0x000001e99a3b33c0: ca89 4808 | 4833 c989 | 480c 4833 | c948 8948 | 1048 8948 | 1848 8948 

  0x000001e99a3b33d8: ;   {oop("Illegal use of ClassFileAssembler"{0x00000000d44b9f30})}
  0x000001e99a3b33d8: 2049 b830 | 9f4b d400 | 0000 0048 | 8bd0 4889 | 8424 f803 

  0x000001e99a3b33ec: ;   {optimized virtual_call}
  0x000001e99a3b33ec: 0000 90e8 

  0x000001e99a3b33f0: ; ImmutableOopMap {[120]=Oop [1016]=Oop [496]=Oop }
                      ;*invokespecial <init> {reexecute=0 rethrow=0 return_oop=0}
                      ; - jdk.internal.reflect.ClassFileAssembler::cpi@13 (line 95)
                      ; - jdk.internal.reflect.AccessorGenerator::emitBoxingContantPoolEntries@876 (line 330)
  0x000001e99a3b33f0: 8c99 a8fe | 488b 8424 | f803 0000 | e9dc 2700 

  0x000001e99a3b3400: ;   {metadata('java/lang/RuntimeException')}
  0x000001e99a3b3400: 0048 ba18 | ec02 a0e9 | 0100 0049 | 8b87 0801 | 0000 488d | 7828 493b | bf18 0100 | 000f 87ea 
  0x000001e99a3b3420: 2400 0049 | 89bf 0801 | 0000 48c7 | 0001 0000 | 0048 8bca | 49ba 0000 | 00a0 e901 | 0000 492b 
  0x000001e99a3b3440: ca89 4808 | 4833 c989 | 480c 4833 | c948 8948 | 1048 8948 | 1848 8948 

  0x000001e99a3b3458: ;   {oop("Illegal use of ClassFileAssembler"{0x00000000d44b9f30})}
  0x000001e99a3b3458: 2049 b830 | 9f4b d400 | 0000 0048 | 8bd0 4889 | 8424 0004 

  0x000001e99a3b346c: ;   {optimized virtual_call}
  0x000001e99a3b346c: 0000 90e8 

  0x000001e99a3b3470: ; ImmutableOopMap {[120]=Oop [1024]=Oop [480]=Oop }
                      ;*invokespecial <init> {reexecute=0 rethrow=0 return_oop=0}
                      ; - jdk.internal.reflect.ClassFileAssembler::cpi@13 (line 95)
                      ; - jdk.internal.reflect.AccessorGenerator::emitBoxingContantPoolEntries@862 (line 329)
  0x000001e99a3b3470: 0c99 a8fe | 488b 8424 | 0004 0000 | e95c 2700 

  0x000001e99a3b3480: ;   {metadata('java/lang/RuntimeException')}
  0x000001e99a3b3480: 0048 ba18 | ec02 a0e9 | 0100 0049 | 8b87 0801 | 0000 488d | 7828 493b | bf18 0100 | 000f 8777 
  0x000001e99a3b34a0: 2400 0049 | 89bf 0801 | 0000 48c7 | 0001 0000 | 0048 8bca | 49ba 0000 | 00a0 e901 | 0000 492b 
  0x000001e99a3b34c0: ca89 4808 | 4833 c989 | 480c 4833 | c948 8948 | 1048 8948 | 1848 8948 

  0x000001e99a3b34d8: ;   {oop("Illegal use of ClassFileAssembler"{0x00000000d44b9f30})}
  0x000001e99a3b34d8: 2049 b830 | 9f4b d400 | 0000 0048 | 8bd0 4889 | 8424 0804 

  0x000001e99a3b34ec: ;   {optimized virtual_call}
  0x000001e99a3b34ec: 0000 90e8 

  0x000001e99a3b34f0: ; ImmutableOopMap {[120]=Oop [1032]=Oop [480]=Oop }
                      ;*invokespecial <init> {reexecute=0 rethrow=0 return_oop=0}
                      ; - jdk.internal.reflect.ClassFileAssembler::cpi@13 (line 95)
                      ; - jdk.internal.reflect.AccessorGenerator::emitBoxingContantPoolEntries@851 (line 329)
  0x000001e99a3b34f0: 8c98 a8fe | 488b 8424 | 0804 0000 | e9dc 2600 

  0x000001e99a3b3500: ;   {metadata('java/lang/RuntimeException')}
  0x000001e99a3b3500: 0048 ba18 | ec02 a0e9 | 0100 0049 | 8b87 0801 | 0000 488d | 7828 493b | bf18 0100 | 000f 8704 
  0x000001e99a3b3520: 2400 0049 | 89bf 0801 | 0000 48c7 | 0001 0000 | 0048 8bca | 49ba 0000 | 00a0 e901 | 0000 492b 
  0x000001e99a3b3540: ca89 4808 | 4833 c989 | 480c 4833 | c948 8948 | 1048 8948 | 1848 8948 

  0x000001e99a3b3558: ;   {oop("Illegal use of ClassFileAssembler"{0x00000000d44b9f30})}
  0x000001e99a3b3558: 2049 b830 | 9f4b d400 | 0000 0048 | 8bd0 4889 | 8424 1004 

  0x000001e99a3b356c: ;   {optimized virtual_call}
  0x000001e99a3b356c: 0000 90e8 

  0x000001e99a3b3570: ; ImmutableOopMap {[120]=Oop [1040]=Oop }
                      ;*invokespecial <init> {reexecute=0 rethrow=0 return_oop=0}
                      ; - jdk.internal.reflect.ClassFileAssembler::cpi@13 (line 95)
                      ; - jdk.internal.reflect.AccessorGenerator::emitBoxingContantPoolEntries@819 (line 326)
  0x000001e99a3b3570: 0c98 a8fe | 488b 8424 | 1004 0000 | e95c 2600 

  0x000001e99a3b3580: ;   {metadata('java/lang/RuntimeException')}
  0x000001e99a3b3580: 0048 ba18 | ec02 a0e9 | 0100 0049 | 8b87 0801 | 0000 488d | 7828 493b | bf18 0100 | 000f 8791 
  0x000001e99a3b35a0: 2300 0049 | 89bf 0801 | 0000 48c7 | 0001 0000 | 0048 8bca | 49ba 0000 | 00a0 e901 | 0000 492b 
  0x000001e99a3b35c0: ca89 4808 | 4833 c989 | 480c 4833 | c948 8948 | 1048 8948 | 1848 8948 

  0x000001e99a3b35d8: ;   {oop("Illegal use of ClassFileAssembler"{0x00000000d44b9f30})}
  0x000001e99a3b35d8: 2049 b830 | 9f4b d400 | 0000 0048 | 8bd0 4889 | 8424 1804 

  0x000001e99a3b35ec: ;   {optimized virtual_call}
  0x000001e99a3b35ec: 0000 90e8 

  0x000001e99a3b35f0: ; ImmutableOopMap {[120]=Oop [1048]=Oop [464]=Oop }
                      ;*invokespecial <init> {reexecute=0 rethrow=0 return_oop=0}
                      ; - jdk.internal.reflect.ClassFileAssembler::cpi@13 (line 95)
                      ; - jdk.internal.reflect.AccessorGenerator::emitBoxingContantPoolEntries@808 (line 325)
  0x000001e99a3b35f0: 8c97 a8fe | 488b 8424 | 1804 0000 | e9dc 2500 

  0x000001e99a3b3600: ;   {metadata('java/lang/RuntimeException')}
  0x000001e99a3b3600: 0048 ba18 | ec02 a0e9 | 0100 0049 | 8b87 0801 | 0000 488d | 7828 493b | bf18 0100 | 000f 871e 
  0x000001e99a3b3620: 2300 0049 | 89bf 0801 | 0000 48c7 | 0001 0000 | 0048 8bca | 49ba 0000 | 00a0 e901 | 0000 492b 
  0x000001e99a3b3640: ca89 4808 | 4833 c989 | 480c 4833 | c948 8948 | 1048 8948 | 1848 8948 

  0x000001e99a3b3658: ;   {oop("Illegal use of ClassFileAssembler"{0x00000000d44b9f30})}
  0x000001e99a3b3658: 2049 b830 | 9f4b d400 | 0000 0048 | 8bd0 4889 | 8424 2004 

  0x000001e99a3b366c: ;   {optimized virtual_call}
  0x000001e99a3b366c: 0000 90e8 

  0x000001e99a3b3670: ; ImmutableOopMap {[120]=Oop [464]=Oop [1056]=Oop }
                      ;*invokespecial <init> {reexecute=0 rethrow=0 return_oop=0}
                      ; - jdk.internal.reflect.ClassFileAssembler::cpi@13 (line 95)
                      ; - jdk.internal.reflect.AccessorGenerator::emitBoxingContantPoolEntries@797 (line 325)
  0x000001e99a3b3670: 0c97 a8fe | 488b 8424 | 2004 0000 | e95c 2500 

  0x000001e99a3b3680: ;   {metadata('java/lang/RuntimeException')}
  0x000001e99a3b3680: 0048 ba18 | ec02 a0e9 | 0100 0049 | 8b87 0801 | 0000 488d | 7828 493b | bf18 0100 | 000f 87ab 
  0x000001e99a3b36a0: 2200 0049 | 89bf 0801 | 0000 48c7 | 0001 0000 | 0048 8bca | 49ba 0000 | 00a0 e901 | 0000 492b 
  0x000001e99a3b36c0: ca89 4808 | 4833 c989 | 480c 4833 | c948 8948 | 1048 8948 | 1848 8948 

  0x000001e99a3b36d8: ;   {oop("Illegal use of ClassFileAssembler"{0x00000000d44b9f30})}
  0x000001e99a3b36d8: 2049 b830 | 9f4b d400 | 0000 0048 | 8bd0 4889 | 8424 2804 

  0x000001e99a3b36ec: ;   {optimized virtual_call}
  0x000001e99a3b36ec: 0000 90e8 

  0x000001e99a3b36f0: ; ImmutableOopMap {[120]=Oop [1064]=Oop [448]=Oop }
                      ;*invokespecial <init> {reexecute=0 rethrow=0 return_oop=0}
                      ; - jdk.internal.reflect.ClassFileAssembler::cpi@13 (line 95)
                      ; - jdk.internal.reflect.AccessorGenerator::emitBoxingContantPoolEntries@783 (line 324)
  0x000001e99a3b36f0: 8c96 a8fe | 488b 8424 | 2804 0000 | e9dc 2400 

  0x000001e99a3b3700: ;   {metadata('java/lang/RuntimeException')}
  0x000001e99a3b3700: 0048 ba18 | ec02 a0e9 | 0100 0049 | 8b87 0801 | 0000 488d | 7828 493b | bf18 0100 | 000f 8738 
  0x000001e99a3b3720: 2200 0049 | 89bf 0801 | 0000 48c7 | 0001 0000 | 0048 8bca | 49ba 0000 | 00a0 e901 | 0000 492b 
  0x000001e99a3b3740: ca89 4808 | 4833 c989 | 480c 4833 | c948 8948 | 1048 8948 | 1848 8948 

  0x000001e99a3b3758: ;   {oop("Illegal use of ClassFileAssembler"{0x00000000d44b9f30})}
  0x000001e99a3b3758: 2049 b830 | 9f4b d400 | 0000 0048 | 8bd0 4889 | 8424 3004 

  0x000001e99a3b376c: ;   {optimized virtual_call}
  0x000001e99a3b376c: 0000 90e8 

  0x000001e99a3b3770: ; ImmutableOopMap {[120]=Oop [1072]=Oop }
                      ;*invokespecial <init> {reexecute=0 rethrow=0 return_oop=0}
                      ; - jdk.internal.reflect.ClassFileAssembler::cpi@13 (line 95)
                      ; - jdk.internal.reflect.AccessorGenerator::emitBoxingContantPoolEntries@756 (line 322)
  0x000001e99a3b3770: 0c96 a8fe | 488b 8424 | 3004 0000 | e95c 2400 

  0x000001e99a3b3780: ;   {metadata('java/lang/RuntimeException')}
  0x000001e99a3b3780: 0048 ba18 | ec02 a0e9 | 0100 0049 | 8b87 0801 | 0000 488d | 7828 493b | bf18 0100 | 000f 87c5 
  0x000001e99a3b37a0: 2100 0049 | 89bf 0801 | 0000 48c7 | 0001 0000 | 0048 8bca | 49ba 0000 | 00a0 e901 | 0000 492b 
  0x000001e99a3b37c0: ca89 4808 | 4833 c989 | 480c 4833 | c948 8948 | 1048 8948 | 1848 8948 

  0x000001e99a3b37d8: ;   {oop("Illegal use of ClassFileAssembler"{0x00000000d44b9f30})}
  0x000001e99a3b37d8: 2049 b830 | 9f4b d400 | 0000 0048 | 8bd0 4889 | 8424 3804 

  0x000001e99a3b37ec: ;   {optimized virtual_call}
  0x000001e99a3b37ec: 0000 90e8 

  0x000001e99a3b37f0: ; ImmutableOopMap {[120]=Oop [1080]=Oop [432]=Oop }
                      ;*invokespecial <init> {reexecute=0 rethrow=0 return_oop=0}
                      ; - jdk.internal.reflect.ClassFileAssembler::cpi@13 (line 95)
                      ; - jdk.internal.reflect.AccessorGenerator::emitBoxingContantPoolEntries@745 (line 321)
  0x000001e99a3b37f0: 8c95 a8fe | 488b 8424 | 3804 0000 | e9dc 2300 

  0x000001e99a3b3800: ;   {metadata('java/lang/RuntimeException')}
  0x000001e99a3b3800: 0048 ba18 | ec02 a0e9 | 0100 0049 | 8b87 0801 | 0000 488d | 7828 493b | bf18 0100 | 000f 8752 
  0x000001e99a3b3820: 2100 0049 | 89bf 0801 | 0000 48c7 | 0001 0000 | 0048 8bca | 49ba 0000 | 00a0 e901 | 0000 492b 
  0x000001e99a3b3840: ca89 4808 | 4833 c989 | 480c 4833 | c948 8948 | 1048 8948 | 1848 8948 

  0x000001e99a3b3858: ;   {oop("Illegal use of ClassFileAssembler"{0x00000000d44b9f30})}
  0x000001e99a3b3858: 2049 b830 | 9f4b d400 | 0000 0048 | 8bd0 4889 | 8424 4004 

  0x000001e99a3b386c: ;   {optimized virtual_call}
  0x000001e99a3b386c: 0000 90e8 

  0x000001e99a3b3870: ; ImmutableOopMap {[120]=Oop [1088]=Oop }
                      ;*invokespecial <init> {reexecute=0 rethrow=0 return_oop=0}
                      ; - jdk.internal.reflect.ClassFileAssembler::cpi@13 (line 95)
                      ; - jdk.internal.reflect.AccessorGenerator::emitBoxingContantPoolEntries@722 (line 317)
  0x000001e99a3b3870: 0c95 a8fe | 488b 8424 | 4004 0000 | e95c 2300 

  0x000001e99a3b3880: ;   {metadata('java/lang/RuntimeException')}
  0x000001e99a3b3880: 0048 ba18 | ec02 a0e9 | 0100 0049 | 8b87 0801 | 0000 488d | 7828 493b | bf18 0100 | 000f 87df 
  0x000001e99a3b38a0: 2000 0049 | 89bf 0801 | 0000 48c7 | 0001 0000 | 0048 8bca | 49ba 0000 | 00a0 e901 | 0000 492b 
  0x000001e99a3b38c0: ca89 4808 | 4833 c989 | 480c 4833 | c948 8948 | 1048 8948 | 1848 8948 

  0x000001e99a3b38d8: ;   {oop("Illegal use of ClassFileAssembler"{0x00000000d44b9f30})}
  0x000001e99a3b38d8: 2049 b830 | 9f4b d400 | 0000 0048 | 8bd0 4889 | 8424 4804 

  0x000001e99a3b38ec: ;   {optimized virtual_call}
  0x000001e99a3b38ec: 0000 90e8 

  0x000001e99a3b38f0: ; ImmutableOopMap {[120]=Oop [1096]=Oop [416]=Oop }
                      ;*invokespecial <init> {reexecute=0 rethrow=0 return_oop=0}
                      ; - jdk.internal.reflect.ClassFileAssembler::cpi@13 (line 95)
                      ; - jdk.internal.reflect.AccessorGenerator::emitBoxingContantPoolEntries@711 (line 316)
  0x000001e99a3b38f0: 8c94 a8fe | 488b 8424 | 4804 0000 | e9dc 2200 

  0x000001e99a3b3900: ;   {metadata('java/lang/RuntimeException')}
  0x000001e99a3b3900: 0048 ba18 | ec02 a0e9 | 0100 0049 | 8b87 0801 | 0000 488d | 7828 493b | bf18 0100 | 000f 876c 
  0x000001e99a3b3920: 2000 0049 | 89bf 0801 | 0000 48c7 | 0001 0000 | 0048 8bca | 49ba 0000 | 00a0 e901 | 0000 492b 
  0x000001e99a3b3940: ca89 4808 | 4833 c989 | 480c 4833 | c948 8948 | 1048 8948 | 1848 8948 

  0x000001e99a3b3958: ;   {oop("Illegal use of ClassFileAssembler"{0x00000000d44b9f30})}
  0x000001e99a3b3958: 2049 b830 | 9f4b d400 | 0000 0048 | 8bd0 4889 | 8424 5004 

  0x000001e99a3b396c: ;   {optimized virtual_call}
  0x000001e99a3b396c: 0000 90e8 

  0x000001e99a3b3970: ; ImmutableOopMap {[120]=Oop [1104]=Oop [416]=Oop }
                      ;*invokespecial <init> {reexecute=0 rethrow=0 return_oop=0}
                      ; - jdk.internal.reflect.ClassFileAssembler::cpi@13 (line 95)
                      ; - jdk.internal.reflect.AccessorGenerator::emitBoxingContantPoolEntries@699 (line 316)
  0x000001e99a3b3970: 0c94 a8fe | 488b 8424 | 5004 0000 | e95c 2200 

  0x000001e99a3b3980: ;   {metadata('java/lang/RuntimeException')}
  0x000001e99a3b3980: 0048 ba18 | ec02 a0e9 | 0100 0049 | 8b87 0801 | 0000 488d | 7828 493b | bf18 0100 | 000f 87f9 
  0x000001e99a3b39a0: 1f00 0049 | 89bf 0801 | 0000 48c7 | 0001 0000 | 0048 8bca | 49ba 0000 | 00a0 e901 | 0000 492b 
  0x000001e99a3b39c0: ca89 4808 | 4833 c989 | 480c 4833 | c948 8948 | 1048 8948 | 1848 8948 

  0x000001e99a3b39d8: ;   {oop("Illegal use of ClassFileAssembler"{0x00000000d44b9f30})}
  0x000001e99a3b39d8: 2049 b830 | 9f4b d400 | 0000 0048 | 8bd0 4889 | 8424 5804 

  0x000001e99a3b39ec: ;   {optimized virtual_call}
  0x000001e99a3b39ec: 0000 90e8 

  0x000001e99a3b39f0: ; ImmutableOopMap {[120]=Oop [1112]=Oop [400]=Oop }
                      ;*invokespecial <init> {reexecute=0 rethrow=0 return_oop=0}
                      ; - jdk.internal.reflect.ClassFileAssembler::cpi@13 (line 95)
                      ; - jdk.internal.reflect.AccessorGenerator::emitBoxingContantPoolEntries@685 (line 315)
  0x000001e99a3b39f0: 8c93 a8fe | 488b 8424 | 5804 0000 | e9dc 2100 

  0x000001e99a3b3a00: ;   {metadata('java/lang/RuntimeException')}
  0x000001e99a3b3a00: 0048 ba18 | ec02 a0e9 | 0100 0049 | 8b87 0801 | 0000 488d | 7828 493b | bf18 0100 | 000f 8786 
  0x000001e99a3b3a20: 1f00 0049 | 89bf 0801 | 0000 48c7 | 0001 0000 | 0048 8bca | 49ba 0000 | 00a0 e901 | 0000 492b 
  0x000001e99a3b3a40: ca89 4808 | 4833 c989 | 480c 4833 | c948 8948 | 1048 8948 | 1848 8948 

  0x000001e99a3b3a58: ;   {oop("Illegal use of ClassFileAssembler"{0x00000000d44b9f30})}
  0x000001e99a3b3a58: 2049 b830 | 9f4b d400 | 0000 0048 | 8bd0 4889 | 8424 6004 

  0x000001e99a3b3a6c: ;   {optimized virtual_call}
  0x000001e99a3b3a6c: 0000 90e8 

  0x000001e99a3b3a70: ; ImmutableOopMap {[120]=Oop [400]=Oop [1120]=Oop }
                      ;*invokespecial <init> {reexecute=0 rethrow=0 return_oop=0}
                      ; - jdk.internal.reflect.ClassFileAssembler::cpi@13 (line 95)
                      ; - jdk.internal.reflect.AccessorGenerator::emitBoxingContantPoolEntries@674 (line 315)
  0x000001e99a3b3a70: 0c93 a8fe | 488b 8424 | 6004 0000 | e95c 2100 

  0x000001e99a3b3a80: ;   {metadata('java/lang/RuntimeException')}
  0x000001e99a3b3a80: 0048 ba18 | ec02 a0e9 | 0100 0049 | 8b87 0801 | 0000 488d | 7828 493b | bf18 0100 | 000f 8713 
  0x000001e99a3b3aa0: 1f00 0049 | 89bf 0801 | 0000 48c7 | 0001 0000 | 0048 8bca | 49ba 0000 | 00a0 e901 | 0000 492b 
  0x000001e99a3b3ac0: ca89 4808 | 4833 c989 | 480c 4833 | c948 8948 | 1048 8948 | 1848 8948 

  0x000001e99a3b3ad8: ;   {oop("Illegal use of ClassFileAssembler"{0x00000000d44b9f30})}
  0x000001e99a3b3ad8: 2049 b830 | 9f4b d400 | 0000 0048 | 8bd0 4889 | 8424 6804 

  0x000001e99a3b3aec: ;   {optimized virtual_call}
  0x000001e99a3b3aec: 0000 90e8 

  0x000001e99a3b3af0: ; ImmutableOopMap {[120]=Oop [1128]=Oop }
                      ;*invokespecial <init> {reexecute=0 rethrow=0 return_oop=0}
                      ; - jdk.internal.reflect.ClassFileAssembler::cpi@13 (line 95)
                      ; - jdk.internal.reflect.AccessorGenerator::emitBoxingContantPoolEntries@642 (line 312)
  0x000001e99a3b3af0: 8c92 a8fe | 488b 8424 | 6804 0000 | e9dc 2000 

  0x000001e99a3b3b00: ;   {metadata('java/lang/RuntimeException')}
  0x000001e99a3b3b00: 0048 ba18 | ec02 a0e9 | 0100 0049 | 8b87 0801 | 0000 488d | 7828 493b | bf18 0100 | 000f 87a0 
  0x000001e99a3b3b20: 1e00 0049 | 89bf 0801 | 0000 48c7 | 0001 0000 | 0048 8bca | 49ba 0000 | 00a0 e901 | 0000 492b 
  0x000001e99a3b3b40: ca89 4808 | 4833 c989 | 480c 4833 | c948 8948 | 1048 8948 | 1848 8948 

  0x000001e99a3b3b58: ;   {oop("Illegal use of ClassFileAssembler"{0x00000000d44b9f30})}
  0x000001e99a3b3b58: 2049 b830 | 9f4b d400 | 0000 0048 | 8bd0 4889 | 8424 7004 

  0x000001e99a3b3b6c: ;   {optimized virtual_call}
  0x000001e99a3b3b6c: 0000 90e8 

  0x000001e99a3b3b70: ; ImmutableOopMap {[120]=Oop [1136]=Oop [384]=Oop }
                      ;*invokespecial <init> {reexecute=0 rethrow=0 return_oop=0}
                      ; - jdk.internal.reflect.ClassFileAssembler::cpi@13 (line 95)
                      ; - jdk.internal.reflect.AccessorGenerator::emitBoxingContantPoolEntries@631 (line 311)
  0x000001e99a3b3b70: 0c92 a8fe | 488b 8424 | 7004 0000 | e95c 2000 

  0x000001e99a3b3b80: ;   {metadata('java/lang/RuntimeException')}
  0x000001e99a3b3b80: 0048 ba18 | ec02 a0e9 | 0100 0049 | 8b87 0801 | 0000 488d | 7828 493b | bf18 0100 | 000f 872d 
  0x000001e99a3b3ba0: 1e00 0049 | 89bf 0801 | 0000 48c7 | 0001 0000 | 0048 8bca | 49ba 0000 | 00a0 e901 | 0000 492b 
  0x000001e99a3b3bc0: ca89 4808 | 4833 c989 | 480c 4833 | c948 8948 | 1048 8948 | 1848 8948 

  0x000001e99a3b3bd8: ;   {oop("Illegal use of ClassFileAssembler"{0x00000000d44b9f30})}
  0x000001e99a3b3bd8: 2049 b830 | 9f4b d400 | 0000 0048 | 8bd0 4889 | 8424 7804 

  0x000001e99a3b3bec: ;   {optimized virtual_call}
  0x000001e99a3b3bec: 0000 90e8 

  0x000001e99a3b3bf0: ; ImmutableOopMap {[120]=Oop [1144]=Oop [384]=Oop }
                      ;*invokespecial <init> {reexecute=0 rethrow=0 return_oop=0}
                      ; - jdk.internal.reflect.ClassFileAssembler::cpi@13 (line 95)
                      ; - jdk.internal.reflect.AccessorGenerator::emitBoxingContantPoolEntries@620 (line 311)
  0x000001e99a3b3bf0: 8c91 a8fe | 488b 8424 | 7804 0000 | e9dc 1f00 

  0x000001e99a3b3c00: ;   {metadata('java/lang/RuntimeException')}
  0x000001e99a3b3c00: 0048 ba18 | ec02 a0e9 | 0100 0049 | 8b87 0801 | 0000 488d | 7828 493b | bf18 0100 | 000f 87ba 
  0x000001e99a3b3c20: 1d00 0049 | 89bf 0801 | 0000 48c7 | 0001 0000 | 0048 8bca | 49ba 0000 | 00a0 e901 | 0000 492b 
  0x000001e99a3b3c40: ca89 4808 | 4833 c989 | 480c 4833 | c948 8948 | 1048 8948 | 1848 8948 

  0x000001e99a3b3c58: ;   {oop("Illegal use of ClassFileAssembler"{0x00000000d44b9f30})}
  0x000001e99a3b3c58: 2049 b830 | 9f4b d400 | 0000 0048 | 8bd0 4889 | 8424 8004 

  0x000001e99a3b3c6c: ;   {optimized virtual_call}
  0x000001e99a3b3c6c: 0000 90e8 

  0x000001e99a3b3c70: ; ImmutableOopMap {[120]=Oop [1152]=Oop [368]=Oop }
                      ;*invokespecial <init> {reexecute=0 rethrow=0 return_oop=0}
                      ; - jdk.internal.reflect.ClassFileAssembler::cpi@13 (line 95)
                      ; - jdk.internal.reflect.AccessorGenerator::emitBoxingContantPoolEntries@606 (line 310)
  0x000001e99a3b3c70: 0c91 a8fe | 488b 8424 | 8004 0000 | e95c 1f00 

  0x000001e99a3b3c80: ;   {metadata('java/lang/RuntimeException')}
  0x000001e99a3b3c80: 0048 ba18 | ec02 a0e9 | 0100 0049 | 8b87 0801 | 0000 488d | 7828 493b | bf18 0100 | 000f 8747 
  0x000001e99a3b3ca0: 1d00 0049 | 89bf 0801 | 0000 48c7 | 0001 0000 | 0048 8bca | 49ba 0000 | 00a0 e901 | 0000 492b 
  0x000001e99a3b3cc0: ca89 4808 | 4833 c989 | 480c 4833 | c948 8948 | 1048 8948 | 1848 8948 

  0x000001e99a3b3cd8: ;   {oop("Illegal use of ClassFileAssembler"{0x00000000d44b9f30})}
  0x000001e99a3b3cd8: 2049 b830 | 9f4b d400 | 0000 0048 | 8bd0 4889 | 8424 8804 

  0x000001e99a3b3cec: ;   {optimized virtual_call}
  0x000001e99a3b3cec: 0000 90e8 

  0x000001e99a3b3cf0: ; ImmutableOopMap {[120]=Oop [1160]=Oop }
                      ;*invokespecial <init> {reexecute=0 rethrow=0 return_oop=0}
                      ; - jdk.internal.reflect.ClassFileAssembler::cpi@13 (line 95)
                      ; - jdk.internal.reflect.AccessorGenerator::emitBoxingContantPoolEntries@579 (line 308)
  0x000001e99a3b3cf0: 8c90 a8fe | 488b 8424 | 8804 0000 | e9dc 1e00 

  0x000001e99a3b3d00: ;   {metadata('java/lang/RuntimeException')}
  0x000001e99a3b3d00: 0048 ba18 | ec02 a0e9 | 0100 0049 | 8b87 0801 | 0000 488d | 7828 493b | bf18 0100 | 000f 87d4 
  0x000001e99a3b3d20: 1c00 0049 | 89bf 0801 | 0000 48c7 | 0001 0000 | 0048 8bca | 49ba 0000 | 00a0 e901 | 0000 492b 
  0x000001e99a3b3d40: ca89 4808 | 4833 c989 | 480c 4833 | c948 8948 | 1048 8948 | 1848 8948 

  0x000001e99a3b3d58: ;   {oop("Illegal use of ClassFileAssembler"{0x00000000d44b9f30})}
  0x000001e99a3b3d58: 2049 b830 | 9f4b d400 | 0000 0048 | 8bd0 4889 | 8424 9004 

  0x000001e99a3b3d6c: ;   {optimized virtual_call}
  0x000001e99a3b3d6c: 0000 90e8 

  0x000001e99a3b3d70: ; ImmutableOopMap {[120]=Oop [1168]=Oop [360]=Oop }
                      ;*invokespecial <init> {reexecute=0 rethrow=0 return_oop=0}
                      ; - jdk.internal.reflect.ClassFileAssembler::cpi@13 (line 95)
                      ; - jdk.internal.reflect.AccessorGenerator::emitBoxingContantPoolEntries@568 (line 307)
  0x000001e99a3b3d70: 0c90 a8fe | 488b 8424 | 9004 0000 | e95c 1e00 

  0x000001e99a3b3d80: ;   {metadata('java/lang/RuntimeException')}
  0x000001e99a3b3d80: 0048 ba18 | ec02 a0e9 | 0100 0049 | 8b87 0801 | 0000 488d | 7828 493b | bf18 0100 | 000f 8761 
  0x000001e99a3b3da0: 1c00 0049 | 89bf 0801 | 0000 48c7 | 0001 0000 | 0048 8bca | 49ba 0000 | 00a0 e901 | 0000 492b 
  0x000001e99a3b3dc0: ca89 4808 | 4833 c989 | 480c 4833 | c948 8948 | 1048 8948 | 1848 8948 

  0x000001e99a3b3dd8: ;   {oop("Illegal use of ClassFileAssembler"{0x00000000d44b9f30})}
  0x000001e99a3b3dd8: 2049 b830 | 9f4b d400 | 0000 0048 | 8bd0 4889 | 8424 9804 

  0x000001e99a3b3dec: ;   {optimized virtual_call}
  0x000001e99a3b3dec: 0000 90e8 

  0x000001e99a3b3df0: ; ImmutableOopMap {[120]=Oop [1176]=Oop }
                      ;*invokespecial <init> {reexecute=0 rethrow=0 return_oop=0}
                      ; - jdk.internal.reflect.ClassFileAssembler::cpi@13 (line 95)
                      ; - jdk.internal.reflect.AccessorGenerator::emitBoxingContantPoolEntries@545 (line 303)
  0x000001e99a3b3df0: 8c8f a8fe | 488b 8424 | 9804 0000 | e9dc 1d00 

  0x000001e99a3b3e00: ;   {metadata('java/lang/RuntimeException')}
  0x000001e99a3b3e00: 0048 ba18 | ec02 a0e9 | 0100 0049 | 8b87 0801 | 0000 488d | 7828 493b | bf18 0100 | 000f 87ee 
  0x000001e99a3b3e20: 1b00 0049 | 89bf 0801 | 0000 48c7 | 0001 0000 | 0048 8bca | 49ba 0000 | 00a0 e901 | 0000 492b 
  0x000001e99a3b3e40: ca89 4808 | 4833 c989 | 480c 4833 | c948 8948 | 1048 8948 | 1848 8948 

  0x000001e99a3b3e58: ;   {oop("Illegal use of ClassFileAssembler"{0x00000000d44b9f30})}
  0x000001e99a3b3e58: 2049 b830 | 9f4b d400 | 0000 0048 | 8bd0 4889 | 8424 a004 

  0x000001e99a3b3e6c: ;   {optimized virtual_call}
  0x000001e99a3b3e6c: 0000 90e8 

  0x000001e99a3b3e70: ; ImmutableOopMap {[120]=Oop [344]=Oop [1184]=Oop }
                      ;*invokespecial <init> {reexecute=0 rethrow=0 return_oop=0}
                      ; - jdk.internal.reflect.ClassFileAssembler::cpi@13 (line 95)
                      ; - jdk.internal.reflect.AccessorGenerator::emitBoxingContantPoolEntries@534 (line 302)
  0x000001e99a3b3e70: 0c8f a8fe | 488b 8424 | a004 0000 | e95c 1d00 

  0x000001e99a3b3e80: ;   {metadata('java/lang/RuntimeException')}
  0x000001e99a3b3e80: 0048 ba18 | ec02 a0e9 | 0100 0049 | 8b87 0801 | 0000 488d | 7828 493b | bf18 0100 | 000f 877b 
  0x000001e99a3b3ea0: 1b00 0049 | 89bf 0801 | 0000 48c7 | 0001 0000 | 0048 8bca | 49ba 0000 | 00a0 e901 | 0000 492b 
  0x000001e99a3b3ec0: ca89 4808 | 4833 c989 | 480c 4833 | c948 8948 | 1048 8948 | 1848 8948 

  0x000001e99a3b3ed8: ;   {oop("Illegal use of ClassFileAssembler"{0x00000000d44b9f30})}
  0x000001e99a3b3ed8: 2049 b830 | 9f4b d400 | 0000 0048 | 8bd0 4889 | 8424 a804 

  0x000001e99a3b3eec: ;   {optimized virtual_call}
  0x000001e99a3b3eec: 0000 90e8 

  0x000001e99a3b3ef0: ; ImmutableOopMap {[120]=Oop [344]=Oop [1192]=Oop }
                      ;*invokespecial <init> {reexecute=0 rethrow=0 return_oop=0}
                      ; - jdk.internal.reflect.ClassFileAssembler::cpi@13 (line 95)
                      ; - jdk.internal.reflect.AccessorGenerator::emitBoxingContantPoolEntries@522 (line 302)
  0x000001e99a3b3ef0: 8c8e a8fe | 488b 8424 | a804 0000 | e9dc 1c00 

  0x000001e99a3b3f00: ;   {metadata('java/lang/RuntimeException')}
  0x000001e99a3b3f00: 0048 ba18 | ec02 a0e9 | 0100 0049 | 8b87 0801 | 0000 488d | 7828 493b | bf18 0100 | 000f 8708 
  0x000001e99a3b3f20: 1b00 0049 | 89bf 0801 | 0000 48c7 | 0001 0000 | 0048 8bca | 49ba 0000 | 00a0 e901 | 0000 492b 
  0x000001e99a3b3f40: ca89 4808 | 4833 c989 | 480c 4833 | c948 8948 | 1048 8948 | 1848 8948 

  0x000001e99a3b3f58: ;   {oop("Illegal use of ClassFileAssembler"{0x00000000d44b9f30})}
  0x000001e99a3b3f58: 2049 b830 | 9f4b d400 | 0000 0048 | 8bd0 4889 | 8424 b004 

  0x000001e99a3b3f6c: ;   {optimized virtual_call}
  0x000001e99a3b3f6c: 0000 90e8 

  0x000001e99a3b3f70: ; ImmutableOopMap {[120]=Oop [1200]=Oop [328]=Oop }
                      ;*invokespecial <init> {reexecute=0 rethrow=0 return_oop=0}
                      ; - jdk.internal.reflect.ClassFileAssembler::cpi@13 (line 95)
                      ; - jdk.internal.reflect.AccessorGenerator::emitBoxingContantPoolEntries@508 (line 301)
  0x000001e99a3b3f70: 0c8e a8fe | 488b 8424 | b004 0000 | e95c 1c00 

  0x000001e99a3b3f80: ;   {metadata('java/lang/RuntimeException')}
  0x000001e99a3b3f80: 0048 ba18 | ec02 a0e9 | 0100 0049 | 8b87 0801 | 0000 488d | 7828 493b | bf18 0100 | 000f 8795 
  0x000001e99a3b3fa0: 1a00 0049 | 89bf 0801 | 0000 48c7 | 0001 0000 | 0048 8bca | 49ba 0000 | 00a0 e901 | 0000 492b 
  0x000001e99a3b3fc0: ca89 4808 | 4833 c989 | 480c 4833 | c948 8948 | 1048 8948 | 1848 8948 

  0x000001e99a3b3fd8: ;   {oop("Illegal use of ClassFileAssembler"{0x00000000d44b9f30})}
  0x000001e99a3b3fd8: 2049 b830 | 9f4b d400 | 0000 0048 | 8bd0 4889 | 8424 b804 

  0x000001e99a3b3fec: ;   {optimized virtual_call}
  0x000001e99a3b3fec: 0000 90e8 

  0x000001e99a3b3ff0: ; ImmutableOopMap {[120]=Oop [1208]=Oop [328]=Oop }
                      ;*invokespecial <init> {reexecute=0 rethrow=0 return_oop=0}
                      ; - jdk.internal.reflect.ClassFileAssembler::cpi@13 (line 95)
                      ; - jdk.internal.reflect.AccessorGenerator::emitBoxingContantPoolEntries@497 (line 301)
  0x000001e99a3b3ff0: 8c8d a8fe | 488b 8424 | b804 0000 | e9dc 1b00 

  0x000001e99a3b4000: ;   {metadata('java/lang/RuntimeException')}
  0x000001e99a3b4000: 0048 ba18 | ec02 a0e9 | 0100 0049 | 8b87 0801 | 0000 488d | 7828 493b | bf18 0100 | 000f 8722 
  0x000001e99a3b4020: 1a00 0049 | 89bf 0801 | 0000 48c7 | 0001 0000 | 0048 8bca | 49ba 0000 | 00a0 e901 | 0000 492b 
  0x000001e99a3b4040: ca89 4808 | 4833 c989 | 480c 4833 | c948 8948 | 1048 8948 | 1848 8948 

  0x000001e99a3b4058: ;   {oop("Illegal use of ClassFileAssembler"{0x00000000d44b9f30})}
  0x000001e99a3b4058: 2049 b830 | 9f4b d400 | 0000 0048 | 8bd0 4889 | 8424 c004 

  0x000001e99a3b406c: ;   {optimized virtual_call}
  0x000001e99a3b406c: 0000 90e8 

  0x000001e99a3b4070: ; ImmutableOopMap {[120]=Oop [1216]=Oop }
                      ;*invokespecial <init> {reexecute=0 rethrow=0 return_oop=0}
                      ; - jdk.internal.reflect.ClassFileAssembler::cpi@13 (line 95)
                      ; - jdk.internal.reflect.AccessorGenerator::emitBoxingContantPoolEntries@465 (line 298)
  0x000001e99a3b4070: 0c8d a8fe | 488b 8424 | c004 0000 | e95c 1b00 

  0x000001e99a3b4080: ;   {metadata('java/lang/RuntimeException')}
  0x000001e99a3b4080: 0048 ba18 | ec02 a0e9 | 0100 0049 | 8b87 0801 | 0000 488d | 7828 493b | bf18 0100 | 000f 87af 
  0x000001e99a3b40a0: 1900 0049 | 89bf 0801 | 0000 48c7 | 0001 0000 | 0048 8bca | 49ba 0000 | 00a0 e901 | 0000 492b 
  0x000001e99a3b40c0: ca89 4808 | 4833 c989 | 480c 4833 | c948 8948 | 1048 8948 | 1848 8948 

  0x000001e99a3b40d8: ;   {oop("Illegal use of ClassFileAssembler"{0x00000000d44b9f30})}
  0x000001e99a3b40d8: 2049 b830 | 9f4b d400 | 0000 0048 | 8bd0 4889 | 8424 c804 

  0x000001e99a3b40ec: ;   {optimized virtual_call}
  0x000001e99a3b40ec: 0000 90e8 

  0x000001e99a3b40f0: ; ImmutableOopMap {[120]=Oop [1224]=Oop [312]=Oop }
                      ;*invokespecial <init> {reexecute=0 rethrow=0 return_oop=0}
                      ; - jdk.internal.reflect.ClassFileAssembler::cpi@13 (line 95)
                      ; - jdk.internal.reflect.AccessorGenerator::emitBoxingContantPoolEntries@454 (line 297)
  0x000001e99a3b40f0: 8c8c a8fe | 488b 8424 | c804 0000 | e9dc 1a00 

  0x000001e99a3b4100: ;   {metadata('java/lang/RuntimeException')}
  0x000001e99a3b4100: 0048 ba18 | ec02 a0e9 | 0100 0049 | 8b87 0801 | 0000 488d | 7828 493b | bf18 0100 | 000f 873c 
  0x000001e99a3b4120: 1900 0049 | 89bf 0801 | 0000 48c7 | 0001 0000 | 0048 8bca | 49ba 0000 | 00a0 e901 | 0000 492b 
  0x000001e99a3b4140: ca89 4808 | 4833 c989 | 480c 4833 | c948 8948 | 1048 8948 | 1848 8948 

  0x000001e99a3b4158: ;   {oop("Illegal use of ClassFileAssembler"{0x00000000d44b9f30})}
  0x000001e99a3b4158: 2049 b830 | 9f4b d400 | 0000 0048 | 8bd0 4889 | 8424 d004 

  0x000001e99a3b416c: ;   {optimized virtual_call}
  0x000001e99a3b416c: 0000 90e8 

  0x000001e99a3b4170: ; ImmutableOopMap {[120]=Oop [312]=Oop [1232]=Oop }
                      ;*invokespecial <init> {reexecute=0 rethrow=0 return_oop=0}
                      ; - jdk.internal.reflect.ClassFileAssembler::cpi@13 (line 95)
                      ; - jdk.internal.reflect.AccessorGenerator::emitBoxingContantPoolEntries@443 (line 297)
  0x000001e99a3b4170: 0c8c a8fe | 488b 8424 | d004 0000 | e95c 1a00 

  0x000001e99a3b4180: ;   {metadata('java/lang/RuntimeException')}
  0x000001e99a3b4180: 0048 ba18 | ec02 a0e9 | 0100 0049 | 8b87 0801 | 0000 488d | 7828 493b | bf18 0100 | 000f 87c9 
  0x000001e99a3b41a0: 1800 0049 | 89bf 0801 | 0000 48c7 | 0001 0000 | 0048 8bca | 49ba 0000 | 00a0 e901 | 0000 492b 
  0x000001e99a3b41c0: ca89 4808 | 4833 c989 | 480c 4833 | c948 8948 | 1048 8948 | 1848 8948 

  0x000001e99a3b41d8: ;   {oop("Illegal use of ClassFileAssembler"{0x00000000d44b9f30})}
  0x000001e99a3b41d8: 2049 b830 | 9f4b d400 | 0000 0048 | 8bd0 4889 | 8424 d804 

  0x000001e99a3b41ec: ;   {optimized virtual_call}
  0x000001e99a3b41ec: 0000 90e8 

  0x000001e99a3b41f0: ; ImmutableOopMap {[120]=Oop [1240]=Oop [296]=Oop }
                      ;*invokespecial <init> {reexecute=0 rethrow=0 return_oop=0}
                      ; - jdk.internal.reflect.ClassFileAssembler::cpi@13 (line 95)
                      ; - jdk.internal.reflect.AccessorGenerator::emitBoxingContantPoolEntries@429 (line 296)
  0x000001e99a3b41f0: 8c8b a8fe | 488b 8424 | d804 0000 | e9dc 1900 

  0x000001e99a3b4200: ;   {metadata('java/lang/RuntimeException')}
  0x000001e99a3b4200: 0048 ba18 | ec02 a0e9 | 0100 0049 | 8b87 0801 | 0000 488d | 7828 493b | bf18 0100 | 000f 8756 
  0x000001e99a3b4220: 1800 0049 | 89bf 0801 | 0000 48c7 | 0001 0000 | 0048 8bca | 49ba 0000 | 00a0 e901 | 0000 492b 
  0x000001e99a3b4240: ca89 4808 | 4833 c989 | 480c 4833 | c948 8948 | 1048 8948 | 1848 8948 

  0x000001e99a3b4258: ;   {oop("Illegal use of ClassFileAssembler"{0x00000000d44b9f30})}
  0x000001e99a3b4258: 2049 b830 | 9f4b d400 | 0000 0048 | 8bd0 4889 | 8424 e004 

  0x000001e99a3b426c: ;   {optimized virtual_call}
  0x000001e99a3b426c: 0000 90e8 

  0x000001e99a3b4270: ; ImmutableOopMap {[120]=Oop [1248]=Oop }
                      ;*invokespecial <init> {reexecute=0 rethrow=0 return_oop=0}
                      ; - jdk.internal.reflect.ClassFileAssembler::cpi@13 (line 95)
                      ; - jdk.internal.reflect.AccessorGenerator::emitBoxingContantPoolEntries@402 (line 294)
  0x000001e99a3b4270: 0c8b a8fe | 488b 8424 | e004 0000 | e95c 1900 

  0x000001e99a3b4280: ;   {metadata('java/lang/RuntimeException')}
  0x000001e99a3b4280: 0048 ba18 | ec02 a0e9 | 0100 0049 | 8b87 0801 | 0000 488d | 7828 493b | bf18 0100 | 000f 87e3 
  0x000001e99a3b42a0: 1700 0049 | 89bf 0801 | 0000 48c7 | 0001 0000 | 0048 8bca | 49ba 0000 | 00a0 e901 | 0000 492b 
  0x000001e99a3b42c0: ca89 4808 | 4833 c989 | 480c 4833 | c948 8948 | 1048 8948 | 1848 8948 

  0x000001e99a3b42d8: ;   {oop("Illegal use of ClassFileAssembler"{0x00000000d44b9f30})}
  0x000001e99a3b42d8: 2049 b830 | 9f4b d400 | 0000 0048 | 8bd0 4889 | 8424 e804 

  0x000001e99a3b42ec: ;   {optimized virtual_call}
  0x000001e99a3b42ec: 0000 90e8 

  0x000001e99a3b42f0: ; ImmutableOopMap {[120]=Oop [280]=Oop [1256]=Oop }
                      ;*invokespecial <init> {reexecute=0 rethrow=0 return_oop=0}
                      ; - jdk.internal.reflect.ClassFileAssembler::cpi@13 (line 95)
                      ; - jdk.internal.reflect.AccessorGenerator::emitBoxingContantPoolEntries@391 (line 293)
  0x000001e99a3b42f0: 8c8a a8fe | 488b 8424 | e804 0000 | e9dc 1800 

  0x000001e99a3b4300: ;   {metadata('java/lang/RuntimeException')}
  0x000001e99a3b4300: 0048 ba18 | ec02 a0e9 | 0100 0049 | 8b87 0801 | 0000 488d | 7828 493b | bf18 0100 | 000f 8770 
  0x000001e99a3b4320: 1700 0049 | 89bf 0801 | 0000 48c7 | 0001 0000 | 0048 8bca | 49ba 0000 | 00a0 e901 | 0000 492b 
  0x000001e99a3b4340: ca89 4808 | 4833 c989 | 480c 4833 | c948 8948 | 1048 8948 | 1848 8948 

  0x000001e99a3b4358: ;   {oop("Illegal use of ClassFileAssembler"{0x00000000d44b9f30})}
  0x000001e99a3b4358: 2049 b830 | 9f4b d400 | 0000 0048 | 8bd0 4889 | 8424 f004 

  0x000001e99a3b436c: ;   {optimized virtual_call}
  0x000001e99a3b436c: 0000 90e8 

  0x000001e99a3b4370: ; ImmutableOopMap {[120]=Oop [1264]=Oop }
                      ;*invokespecial <init> {reexecute=0 rethrow=0 return_oop=0}
                      ; - jdk.internal.reflect.ClassFileAssembler::cpi@13 (line 95)
                      ; - jdk.internal.reflect.AccessorGenerator::emitBoxingContantPoolEntries@368 (line 289)
  0x000001e99a3b4370: 0c8a a8fe | 488b 8424 | f004 0000 | e95c 1800 

  0x000001e99a3b4380: ;   {metadata('java/lang/RuntimeException')}
  0x000001e99a3b4380: 0048 ba18 | ec02 a0e9 | 0100 0049 | 8b87 0801 | 0000 488d | 7828 493b | bf18 0100 | 000f 87fd 
  0x000001e99a3b43a0: 1600 0049 | 89bf 0801 | 0000 48c7 | 0001 0000 | 0048 8bca | 49ba 0000 | 00a0 e901 | 0000 492b 
  0x000001e99a3b43c0: ca89 4808 | 4833 c989 | 480c 4833 | c948 8948 | 1048 8948 | 1848 8948 

  0x000001e99a3b43d8: ;   {oop("Illegal use of ClassFileAssembler"{0x00000000d44b9f30})}
  0x000001e99a3b43d8: 2049 b830 | 9f4b d400 | 0000 0048 | 8bd0 4889 | 8424 f804 

  0x000001e99a3b43ec: ;   {optimized virtual_call}
  0x000001e99a3b43ec: 0000 90e8 

  0x000001e99a3b43f0: ; ImmutableOopMap {[120]=Oop [1272]=Oop [264]=Oop }
                      ;*invokespecial <init> {reexecute=0 rethrow=0 return_oop=0}
                      ; - jdk.internal.reflect.ClassFileAssembler::cpi@13 (line 95)
                      ; - jdk.internal.reflect.AccessorGenerator::emitBoxingContantPoolEntries@357 (line 288)
  0x000001e99a3b43f0: 8c89 a8fe | 488b 8424 | f804 0000 | e9dc 1700 

  0x000001e99a3b4400: ;   {metadata('java/lang/RuntimeException')}
  0x000001e99a3b4400: 0048 ba18 | ec02 a0e9 | 0100 0049 | 8b87 0801 | 0000 488d | 7828 493b | bf18 0100 | 000f 878a 
  0x000001e99a3b4420: 1600 0049 | 89bf 0801 | 0000 48c7 | 0001 0000 | 0048 8bca | 49ba 0000 | 00a0 e901 | 0000 492b 
  0x000001e99a3b4440: ca89 4808 | 4833 c989 | 480c 4833 | c948 8948 | 1048 8948 | 1848 8948 

  0x000001e99a3b4458: ;   {oop("Illegal use of ClassFileAssembler"{0x00000000d44b9f30})}
  0x000001e99a3b4458: 2049 b830 | 9f4b d400 | 0000 0048 | 8bd0 4889 | 8424 0005 

  0x000001e99a3b446c: ;   {optimized virtual_call}
  0x000001e99a3b446c: 0000 90e8 

  0x000001e99a3b4470: ; ImmutableOopMap {[120]=Oop [1280]=Oop [264]=Oop }
                      ;*invokespecial <init> {reexecute=0 rethrow=0 return_oop=0}
                      ; - jdk.internal.reflect.ClassFileAssembler::cpi@13 (line 95)
                      ; - jdk.internal.reflect.AccessorGenerator::emitBoxingContantPoolEntries@345 (line 288)
  0x000001e99a3b4470: 0c89 a8fe | 488b 8424 | 0005 0000 | e95c 1700 

  0x000001e99a3b4480: ;   {metadata('java/lang/RuntimeException')}
  0x000001e99a3b4480: 0048 ba18 | ec02 a0e9 | 0100 0049 | 8b87 0801 | 0000 488d | 7828 493b | bf18 0100 | 000f 8717 
  0x000001e99a3b44a0: 1600 0049 | 89bf 0801 | 0000 48c7 | 0001 0000 | 0048 8bca | 49ba 0000 | 00a0 e901 | 0000 492b 
  0x000001e99a3b44c0: ca89 4808 | 4833 c989 | 480c 4833 | c948 8948 | 1048 8948 | 1848 8948 

  0x000001e99a3b44d8: ;   {oop("Illegal use of ClassFileAssembler"{0x00000000d44b9f30})}
  0x000001e99a3b44d8: 2049 b830 | 9f4b d400 | 0000 0048 | 8bd0 4889 | 8424 0805 

  0x000001e99a3b44ec: ;   {optimized virtual_call}
  0x000001e99a3b44ec: 0000 90e8 

  0x000001e99a3b44f0: ; ImmutableOopMap {[120]=Oop [1288]=Oop [248]=Oop }
                      ;*invokespecial <init> {reexecute=0 rethrow=0 return_oop=0}
                      ; - jdk.internal.reflect.ClassFileAssembler::cpi@13 (line 95)
                      ; - jdk.internal.reflect.AccessorGenerator::emitBoxingContantPoolEntries@331 (line 287)
  0x000001e99a3b44f0: 8c88 a8fe | 488b 8424 | 0805 0000 | e9dc 1600 

  0x000001e99a3b4500: ;   {metadata('java/lang/RuntimeException')}
  0x000001e99a3b4500: 0048 ba18 | ec02 a0e9 | 0100 0049 | 8b87 0801 | 0000 488d | 7828 493b | bf18 0100 | 000f 87a4 
  0x000001e99a3b4520: 1500 0049 | 89bf 0801 | 0000 48c7 | 0001 0000 | 0048 8bca | 49ba 0000 | 00a0 e901 | 0000 492b 
  0x000001e99a3b4540: ca89 4808 | 4833 c989 | 480c 4833 | c948 8948 | 1048 8948 | 1848 8948 

  0x000001e99a3b4558: ;   {oop("Illegal use of ClassFileAssembler"{0x00000000d44b9f30})}
  0x000001e99a3b4558: 2049 b830 | 9f4b d400 | 0000 0048 | 8bd0 4889 | 8424 1005 

  0x000001e99a3b456c: ;   {optimized virtual_call}
  0x000001e99a3b456c: 0000 90e8 

  0x000001e99a3b4570: ; ImmutableOopMap {[120]=Oop [248]=Oop [1296]=Oop }
                      ;*invokespecial <init> {reexecute=0 rethrow=0 return_oop=0}
                      ; - jdk.internal.reflect.ClassFileAssembler::cpi@13 (line 95)
                      ; - jdk.internal.reflect.AccessorGenerator::emitBoxingContantPoolEntries@320 (line 287)
  0x000001e99a3b4570: 0c88 a8fe | 488b 8424 | 1005 0000 | e95c 1600 

  0x000001e99a3b4580: ;   {metadata('java/lang/RuntimeException')}
  0x000001e99a3b4580: 0048 ba18 | ec02 a0e9 | 0100 0049 | 8b87 0801 | 0000 488d | 7828 493b | bf18 0100 | 000f 8731 
  0x000001e99a3b45a0: 1500 0049 | 89bf 0801 | 0000 48c7 | 0001 0000 | 0048 8bca | 49ba 0000 | 00a0 e901 | 0000 492b 
  0x000001e99a3b45c0: ca89 4808 | 4833 c989 | 480c 4833 | c948 8948 | 1048 8948 | 1848 8948 

  0x000001e99a3b45d8: ;   {oop("Illegal use of ClassFileAssembler"{0x00000000d44b9f30})}
  0x000001e99a3b45d8: 2049 b830 | 9f4b d400 | 0000 0048 | 8bd0 4889 | 8424 1805 

  0x000001e99a3b45ec: ;   {optimized virtual_call}
  0x000001e99a3b45ec: 0000 90e8 

  0x000001e99a3b45f0: ; ImmutableOopMap {[120]=Oop [1304]=Oop }
                      ;*invokespecial <init> {reexecute=0 rethrow=0 return_oop=0}
                      ; - jdk.internal.reflect.ClassFileAssembler::cpi@13 (line 95)
                      ; - jdk.internal.reflect.AccessorGenerator::emitBoxingContantPoolEntries@288 (line 284)
  0x000001e99a3b45f0: 8c87 a8fe | 488b 8424 | 1805 0000 | e9dc 1500 

  0x000001e99a3b4600: ;   {metadata('java/lang/RuntimeException')}
  0x000001e99a3b4600: 0048 ba18 | ec02 a0e9 | 0100 0049 | 8b87 0801 | 0000 488d | 7828 493b | bf18 0100 | 000f 87be 
  0x000001e99a3b4620: 1400 0049 | 89bf 0801 | 0000 48c7 | 0001 0000 | 0048 8bca | 49ba 0000 | 00a0 e901 | 0000 492b 
  0x000001e99a3b4640: ca89 4808 | 4833 c989 | 480c 4833 | c948 8948 | 1048 8948 | 1848 8948 

  0x000001e99a3b4658: ;   {oop("Illegal use of ClassFileAssembler"{0x00000000d44b9f30})}
  0x000001e99a3b4658: 2049 b830 | 9f4b d400 | 0000 0048 | 8bd0 4889 | 8424 2005 

  0x000001e99a3b466c: ;   {optimized virtual_call}
  0x000001e99a3b466c: 0000 90e8 

  0x000001e99a3b4670: ; ImmutableOopMap {[120]=Oop [232]=Oop [1312]=Oop }
                      ;*invokespecial <init> {reexecute=0 rethrow=0 return_oop=0}
                      ; - jdk.internal.reflect.ClassFileAssembler::cpi@13 (line 95)
                      ; - jdk.internal.reflect.AccessorGenerator::emitBoxingContantPoolEntries@277 (line 283)
  0x000001e99a3b4670: 0c87 a8fe | 488b 8424 | 2005 0000 | e95c 1500 

  0x000001e99a3b4680: ;   {metadata('java/lang/RuntimeException')}
  0x000001e99a3b4680: 0048 ba18 | ec02 a0e9 | 0100 0049 | 8b87 0801 | 0000 488d | 7828 493b | bf18 0100 | 000f 874b 
  0x000001e99a3b46a0: 1400 0049 | 89bf 0801 | 0000 48c7 | 0001 0000 | 0048 8bca | 49ba 0000 | 00a0 e901 | 0000 492b 
  0x000001e99a3b46c0: ca89 4808 | 4833 c989 | 480c 4833 | c948 8948 | 1048 8948 | 1848 8948 

  0x000001e99a3b46d8: ;   {oop("Illegal use of ClassFileAssembler"{0x00000000d44b9f30})}
  0x000001e99a3b46d8: 2049 b830 | 9f4b d400 | 0000 0048 | 8bd0 4889 | 8424 2805 

  0x000001e99a3b46ec: ;   {optimized virtual_call}
  0x000001e99a3b46ec: 0000 90e8 

  0x000001e99a3b46f0: ; ImmutableOopMap {[120]=Oop [1320]=Oop [232]=Oop }
                      ;*invokespecial <init> {reexecute=0 rethrow=0 return_oop=0}
                      ; - jdk.internal.reflect.ClassFileAssembler::cpi@13 (line 95)
                      ; - jdk.internal.reflect.AccessorGenerator::emitBoxingContantPoolEntries@266 (line 283)
  0x000001e99a3b46f0: 8c86 a8fe | 488b 8424 | 2805 0000 | e9dc 1400 

  0x000001e99a3b4700: ;   {metadata('java/lang/RuntimeException')}
  0x000001e99a3b4700: 0048 ba18 | ec02 a0e9 | 0100 0049 | 8b87 0801 | 0000 488d | 7828 493b | bf18 0100 | 000f 87d8 
  0x000001e99a3b4720: 1300 0049 | 89bf 0801 | 0000 48c7 | 0001 0000 | 0048 8bca | 49ba 0000 | 00a0 e901 | 0000 492b 
  0x000001e99a3b4740: ca89 4808 | 4833 c989 | 480c 4833 | c948 8948 | 1048 8948 | 1848 8948 

  0x000001e99a3b4758: ;   {oop("Illegal use of ClassFileAssembler"{0x00000000d44b9f30})}
  0x000001e99a3b4758: 2049 b830 | 9f4b d400 | 0000 0048 | 8bd0 4889 | 8424 3005 

  0x000001e99a3b476c: ;   {optimized virtual_call}
  0x000001e99a3b476c: 0000 90e8 

  0x000001e99a3b4770: ; ImmutableOopMap {[120]=Oop [216]=Oop [1328]=Oop }
                      ;*invokespecial <init> {reexecute=0 rethrow=0 return_oop=0}
                      ; - jdk.internal.reflect.ClassFileAssembler::cpi@13 (line 95)
                      ; - jdk.internal.reflect.AccessorGenerator::emitBoxingContantPoolEntries@252 (line 282)
  0x000001e99a3b4770: 0c86 a8fe | 488b 8424 | 3005 0000 | e95c 1400 

  0x000001e99a3b4780: ;   {metadata('java/lang/RuntimeException')}
  0x000001e99a3b4780: 0048 ba18 | ec02 a0e9 | 0100 0049 | 8b87 0801 | 0000 488d | 7828 493b | bf18 0100 | 000f 8765 
  0x000001e99a3b47a0: 1300 0049 | 89bf 0801 | 0000 48c7 | 0001 0000 | 0048 8bca | 49ba 0000 | 00a0 e901 | 0000 492b 
  0x000001e99a3b47c0: ca89 4808 | 4833 c989 | 480c 4833 | c948 8948 | 1048 8948 | 1848 8948 

  0x000001e99a3b47d8: ;   {oop("Illegal use of ClassFileAssembler"{0x00000000d44b9f30})}
  0x000001e99a3b47d8: 2049 b830 | 9f4b d400 | 0000 0048 | 8bd0 4889 | 8424 3805 

  0x000001e99a3b47ec: ;   {optimized virtual_call}
  0x000001e99a3b47ec: 0000 90e8 

  0x000001e99a3b47f0: ; ImmutableOopMap {[120]=Oop [1336]=Oop }
                      ;*invokespecial <init> {reexecute=0 rethrow=0 return_oop=0}
                      ; - jdk.internal.reflect.ClassFileAssembler::cpi@13 (line 95)
                      ; - jdk.internal.reflect.AccessorGenerator::emitBoxingContantPoolEntries@225 (line 280)
  0x000001e99a3b47f0: 8c85 a8fe | 488b 8424 | 3805 0000 | e9dc 1300 

  0x000001e99a3b4800: ;   {metadata('java/lang/RuntimeException')}
  0x000001e99a3b4800: 0048 ba18 | ec02 a0e9 | 0100 0049 | 8b87 0801 | 0000 488d | 7828 493b | bf18 0100 | 000f 87f2 
  0x000001e99a3b4820: 1200 0049 | 89bf 0801 | 0000 48c7 | 0001 0000 | 0048 8bca | 49ba 0000 | 00a0 e901 | 0000 492b 
  0x000001e99a3b4840: ca89 4808 | 4833 c989 | 480c 4833 | c948 8948 | 1048 8948 | 1848 8948 

  0x000001e99a3b4858: ;   {oop("Illegal use of ClassFileAssembler"{0x00000000d44b9f30})}
  0x000001e99a3b4858: 2049 b830 | 9f4b d400 | 0000 0048 | 8bd0 4889 | 8424 4005 

  0x000001e99a3b486c: ;   {optimized virtual_call}
  0x000001e99a3b486c: 0000 90e8 

  0x000001e99a3b4870: ; ImmutableOopMap {[120]=Oop [1344]=Oop [208]=Oop }
                      ;*invokespecial <init> {reexecute=0 rethrow=0 return_oop=0}
                      ; - jdk.internal.reflect.ClassFileAssembler::cpi@13 (line 95)
                      ; - jdk.internal.reflect.AccessorGenerator::emitBoxingContantPoolEntries@214 (line 279)
  0x000001e99a3b4870: 0c85 a8fe | 488b 8424 | 4005 0000 | e95c 1300 

  0x000001e99a3b4880: ;   {metadata('java/lang/RuntimeException')}
  0x000001e99a3b4880: 0048 ba18 | ec02 a0e9 | 0100 0049 | 8b87 0801 | 0000 488d | 7828 493b | bf18 0100 | 000f 877f 
  0x000001e99a3b48a0: 1200 0049 | 89bf 0801 | 0000 48c7 | 0001 0000 | 0048 8bca | 49ba 0000 | 00a0 e901 | 0000 492b 
  0x000001e99a3b48c0: ca89 4808 | 4833 c989 | 480c 4833 | c948 8948 | 1048 8948 | 1848 8948 

  0x000001e99a3b48d8: ;   {oop("Illegal use of ClassFileAssembler"{0x00000000d44b9f30})}
  0x000001e99a3b48d8: 2049 b830 | 9f4b d400 | 0000 0048 | 8bd0 4889 | 8424 4805 

  0x000001e99a3b48ec: ;   {optimized virtual_call}
  0x000001e99a3b48ec: 0000 90e8 

  0x000001e99a3b48f0: ; ImmutableOopMap {[120]=Oop [1352]=Oop }
                      ;*invokespecial <init> {reexecute=0 rethrow=0 return_oop=0}
                      ; - jdk.internal.reflect.ClassFileAssembler::cpi@13 (line 95)
                      ; - jdk.internal.reflect.AccessorGenerator::emitBoxingContantPoolEntries@191 (line 275)
  0x000001e99a3b48f0: 8c84 a8fe | 488b 8424 | 4805 0000 | e9dc 1200 

  0x000001e99a3b4900: ;   {metadata('java/lang/RuntimeException')}
  0x000001e99a3b4900: 0048 ba18 | ec02 a0e9 | 0100 0049 | 8b87 0801 | 0000 488d | 7828 493b | bf18 0100 | 000f 870c 
  0x000001e99a3b4920: 1200 0049 | 89bf 0801 | 0000 48c7 | 0001 0000 | 0048 8bca | 49ba 0000 | 00a0 e901 | 0000 492b 
  0x000001e99a3b4940: ca89 4808 | 4833 c989 | 480c 4833 | c948 8948 | 1048 8948 | 1848 8948 

  0x000001e99a3b4958: ;   {oop("Illegal use of ClassFileAssembler"{0x00000000d44b9f30})}
  0x000001e99a3b4958: 2049 b830 | 9f4b d400 | 0000 0048 | 8bd0 4889 | 8424 5005 

  0x000001e99a3b496c: ;   {optimized virtual_call}
  0x000001e99a3b496c: 0000 90e8 

  0x000001e99a3b4970: ; ImmutableOopMap {[120]=Oop [192]=Oop [1360]=Oop }
                      ;*invokespecial <init> {reexecute=0 rethrow=0 return_oop=0}
                      ; - jdk.internal.reflect.ClassFileAssembler::cpi@13 (line 95)
                      ; - jdk.internal.reflect.AccessorGenerator::emitBoxingContantPoolEntries@180 (line 274)
  0x000001e99a3b4970: 0c84 a8fe | 488b 8424 | 5005 0000 | e95c 1200 

  0x000001e99a3b4980: ;   {metadata('java/lang/RuntimeException')}
  0x000001e99a3b4980: 0048 ba18 | ec02 a0e9 | 0100 0049 | 8b87 0801 | 0000 488d | 7828 493b | bf18 0100 | 000f 8799 
  0x000001e99a3b49a0: 1100 0049 | 89bf 0801 | 0000 48c7 | 0001 0000 | 0048 8bca | 49ba 0000 | 00a0 e901 | 0000 492b 
  0x000001e99a3b49c0: ca89 4808 | 4833 c989 | 480c 4833 | c948 8948 | 1048 8948 | 1848 8948 

  0x000001e99a3b49d8: ;   {oop("Illegal use of ClassFileAssembler"{0x00000000d44b9f30})}
  0x000001e99a3b49d8: 2049 b830 | 9f4b d400 | 0000 0048 | 8bd0 4889 | 8424 5805 

  0x000001e99a3b49ec: ;   {optimized virtual_call}
  0x000001e99a3b49ec: 0000 90e8 

  0x000001e99a3b49f0: ; ImmutableOopMap {[120]=Oop [192]=Oop [1368]=Oop }
                      ;*invokespecial <init> {reexecute=0 rethrow=0 return_oop=0}
                      ; - jdk.internal.reflect.ClassFileAssembler::cpi@13 (line 95)
                      ; - jdk.internal.reflect.AccessorGenerator::emitBoxingContantPoolEntries@168 (line 274)
  0x000001e99a3b49f0: 8c83 a8fe | 488b 8424 | 5805 0000 | e9dc 1100 

  0x000001e99a3b4a00: ;   {metadata('java/lang/RuntimeException')}
  0x000001e99a3b4a00: 0048 ba18 | ec02 a0e9 | 0100 0049 | 8b87 0801 | 0000 488d | 7828 493b | bf18 0100 | 000f 8726 
  0x000001e99a3b4a20: 1100 0049 | 89bf 0801 | 0000 48c7 | 0001 0000 | 0048 8bca | 49ba 0000 | 00a0 e901 | 0000 492b 
  0x000001e99a3b4a40: ca89 4808 | 4833 c989 | 480c 4833 | c948 8948 | 1048 8948 | 1848 8948 

  0x000001e99a3b4a58: ;   {oop("Illegal use of ClassFileAssembler"{0x00000000d44b9f30})}
  0x000001e99a3b4a58: 2049 b830 | 9f4b d400 | 0000 0048 | 8bd0 4889 | 8424 6005 

  0x000001e99a3b4a6c: ;   {optimized virtual_call}
  0x000001e99a3b4a6c: 0000 90e8 

  0x000001e99a3b4a70: ; ImmutableOopMap {[120]=Oop [1376]=Oop [176]=Oop }
                      ;*invokespecial <init> {reexecute=0 rethrow=0 return_oop=0}
                      ; - jdk.internal.reflect.ClassFileAssembler::cpi@13 (line 95)
                      ; - jdk.internal.reflect.AccessorGenerator::emitBoxingContantPoolEntries@154 (line 273)
  0x000001e99a3b4a70: 0c83 a8fe | 488b 8424 | 6005 0000 | e95c 1100 

  0x000001e99a3b4a80: ;   {metadata('java/lang/RuntimeException')}
  0x000001e99a3b4a80: 0048 ba18 | ec02 a0e9 | 0100 0049 | 8b87 0801 | 0000 488d | 7828 493b | bf18 0100 | 000f 87b3 
  0x000001e99a3b4aa0: 1000 0049 | 89bf 0801 | 0000 48c7 | 0001 0000 | 0048 8bca | 49ba 0000 | 00a0 e901 | 0000 492b 
  0x000001e99a3b4ac0: ca89 4808 | 4833 c989 | 480c 4833 | c948 8948 | 1048 8948 | 1848 8948 

  0x000001e99a3b4ad8: ;   {oop("Illegal use of ClassFileAssembler"{0x00000000d44b9f30})}
  0x000001e99a3b4ad8: 2049 b830 | 9f4b d400 | 0000 0048 | 8bd0 4889 | 8424 6805 

  0x000001e99a3b4aec: ;   {optimized virtual_call}
  0x000001e99a3b4aec: 0000 90e8 

  0x000001e99a3b4af0: ; ImmutableOopMap {[120]=Oop [1384]=Oop [176]=Oop }
                      ;*invokespecial <init> {reexecute=0 rethrow=0 return_oop=0}
                      ; - jdk.internal.reflect.ClassFileAssembler::cpi@13 (line 95)
                      ; - jdk.internal.reflect.AccessorGenerator::emitBoxingContantPoolEntries@143 (line 273)
  0x000001e99a3b4af0: 8c82 a8fe | 488b 8424 | 6805 0000 | e9dc 1000 

  0x000001e99a3b4b00: ;   {metadata('java/lang/RuntimeException')}
  0x000001e99a3b4b00: 0048 ba18 | ec02 a0e9 | 0100 0049 | 8b87 0801 | 0000 488d | 7828 493b | bf18 0100 | 000f 8740 
  0x000001e99a3b4b20: 1000 0049 | 89bf 0801 | 0000 48c7 | 0001 0000 | 0048 8bca | 49ba 0000 | 00a0 e901 | 0000 492b 
  0x000001e99a3b4b40: ca89 4808 | 4833 c989 | 480c 4833 | c948 8948 | 1048 8948 | 1848 8948 

  0x000001e99a3b4b58: ;   {oop("Illegal use of ClassFileAssembler"{0x00000000d44b9f30})}
  0x000001e99a3b4b58: 2049 b830 | 9f4b d400 | 0000 0048 | 8bd0 4889 | 8424 7005 

  0x000001e99a3b4b6c: ;   {optimized virtual_call}
  0x000001e99a3b4b6c: 0000 90e8 

  0x000001e99a3b4b70: ; ImmutableOopMap {[120]=Oop [1392]=Oop }
                      ;*invokespecial <init> {reexecute=0 rethrow=0 return_oop=0}
                      ; - jdk.internal.reflect.ClassFileAssembler::cpi@13 (line 95)
                      ; - jdk.internal.reflect.AccessorGenerator::emitBoxingContantPoolEntries@111 (line 270)
  0x000001e99a3b4b70: 0c82 a8fe | 488b 8424 | 7005 0000 | e95c 1000 

  0x000001e99a3b4b80: ;   {metadata('java/lang/RuntimeException')}
  0x000001e99a3b4b80: 0048 ba18 | ec02 a0e9 | 0100 0049 | 8b87 0801 | 0000 488d | 7828 493b | bf18 0100 | 000f 87cd 
  0x000001e99a3b4ba0: 0f00 0049 | 89bf 0801 | 0000 48c7 | 0001 0000 | 0048 8bca | 49ba 0000 | 00a0 e901 | 0000 492b 
  0x000001e99a3b4bc0: ca89 4808 | 4833 c989 | 480c 4833 | c948 8948 | 1048 8948 | 1848 8948 

  0x000001e99a3b4bd8: ;   {oop("Illegal use of ClassFileAssembler"{0x00000000d44b9f30})}
  0x000001e99a3b4bd8: 2049 b830 | 9f4b d400 | 0000 0048 | 8bd0 4889 | 8424 7805 

  0x000001e99a3b4bec: ;   {optimized virtual_call}
  0x000001e99a3b4bec: 0000 90e8 

  0x000001e99a3b4bf0: ; ImmutableOopMap {[120]=Oop [1400]=Oop [160]=Oop }
                      ;*invokespecial <init> {reexecute=0 rethrow=0 return_oop=0}
                      ; - jdk.internal.reflect.ClassFileAssembler::cpi@13 (line 95)
                      ; - jdk.internal.reflect.AccessorGenerator::emitBoxingContantPoolEntries@100 (line 269)
  0x000001e99a3b4bf0: 8c81 a8fe | 488b 8424 | 7805 0000 | e9dc 0f00 

  0x000001e99a3b4c00: ;   {metadata('java/lang/RuntimeException')}
  0x000001e99a3b4c00: 0048 ba18 | ec02 a0e9 | 0100 0049 | 8b87 0801 | 0000 488d | 7828 493b | bf18 0100 | 000f 875a 
  0x000001e99a3b4c20: 0f00 0049 | 89bf 0801 | 0000 48c7 | 0001 0000 | 0048 8bca | 49ba 0000 | 00a0 e901 | 0000 492b 
  0x000001e99a3b4c40: ca89 4808 | 4833 c989 | 480c 4833 | c948 8948 | 1048 8948 | 1848 8948 

  0x000001e99a3b4c58: ;   {oop("Illegal use of ClassFileAssembler"{0x00000000d44b9f30})}
  0x000001e99a3b4c58: 2049 b830 | 9f4b d400 | 0000 0048 | 8bd0 4889 | 8424 8005 

  0x000001e99a3b4c6c: ;   {optimized virtual_call}
  0x000001e99a3b4c6c: 0000 90e8 

  0x000001e99a3b4c70: ; ImmutableOopMap {[120]=Oop [1408]=Oop [160]=Oop }
                      ;*invokespecial <init> {reexecute=0 rethrow=0 return_oop=0}
                      ; - jdk.internal.reflect.ClassFileAssembler::cpi@13 (line 95)
                      ; - jdk.internal.reflect.AccessorGenerator::emitBoxingContantPoolEntries@89 (line 269)
  0x000001e99a3b4c70: 0c81 a8fe | 488b 8424 | 8005 0000 | e95c 0f00 

  0x000001e99a3b4c80: ;   {metadata('java/lang/RuntimeException')}
  0x000001e99a3b4c80: 0048 ba18 | ec02 a0e9 | 0100 0049 | 8b87 0801 | 0000 488d | 7828 493b | bf18 0100 | 000f 87e7 
  0x000001e99a3b4ca0: 0e00 0049 | 89bf 0801 | 0000 48c7 | 0001 0000 | 0048 8bca | 49ba 0000 | 00a0 e901 | 0000 492b 
  0x000001e99a3b4cc0: ca89 4808 | 4833 c989 | 480c 4833 | c948 8948 | 1048 8948 | 1848 8948 

  0x000001e99a3b4cd8: ;   {oop("Illegal use of ClassFileAssembler"{0x00000000d44b9f30})}
  0x000001e99a3b4cd8: 2049 b830 | 9f4b d400 | 0000 0048 | 8bd0 4889 | 8424 8805 

  0x000001e99a3b4cec: ;   {optimized virtual_call}
  0x000001e99a3b4cec: 0000 90e8 

  0x000001e99a3b4cf0: ; ImmutableOopMap {[120]=Oop [1416]=Oop [144]=Oop }
                      ;*invokespecial <init> {reexecute=0 rethrow=0 return_oop=0}
                      ; - jdk.internal.reflect.ClassFileAssembler::cpi@13 (line 95)
                      ; - jdk.internal.reflect.AccessorGenerator::emitBoxingContantPoolEntries@75 (line 268)
  0x000001e99a3b4cf0: 8c80 a8fe | 488b 8424 | 8805 0000 | e9dc 0e00 

  0x000001e99a3b4d00: ;   {metadata('java/lang/RuntimeException')}
  0x000001e99a3b4d00: 0048 ba18 | ec02 a0e9 | 0100 0049 | 8b87 0801 | 0000 488d | 7828 493b | bf18 0100 | 000f 8774 
  0x000001e99a3b4d20: 0e00 0049 | 89bf 0801 | 0000 48c7 | 0001 0000 | 0048 8bca | 49ba 0000 | 00a0 e901 | 0000 492b 
  0x000001e99a3b4d40: ca89 4808 | 4833 c989 | 480c 4833 | c948 8948 | 1048 8948 | 1848 8948 

  0x000001e99a3b4d58: ;   {oop("Illegal use of ClassFileAssembler"{0x00000000d44b9f30})}
  0x000001e99a3b4d58: 2049 b830 | 9f4b d400 | 0000 0048 | 8bd0 4889 | 8424 9005 

  0x000001e99a3b4d6c: ;   {optimized virtual_call}
  0x000001e99a3b4d6c: 0000 90e8 

  0x000001e99a3b4d70: ; ImmutableOopMap {[120]=Oop [1424]=Oop }
                      ;*invokespecial <init> {reexecute=0 rethrow=0 return_oop=0}
                      ; - jdk.internal.reflect.ClassFileAssembler::cpi@13 (line 95)
                      ; - jdk.internal.reflect.AccessorGenerator::emitBoxingContantPoolEntries@48 (line 266)
  0x000001e99a3b4d70: 0c80 a8fe | 488b 8424 | 9005 0000 | e95c 0e00 

  0x000001e99a3b4d80: ;   {metadata('java/lang/RuntimeException')}
  0x000001e99a3b4d80: 0048 ba18 | ec02 a0e9 | 0100 0049 | 8b87 0801 | 0000 488d | 7828 493b | bf18 0100 | 000f 8701 
  0x000001e99a3b4da0: 0e00 0049 | 89bf 0801 | 0000 48c7 | 0001 0000 | 0048 8bca | 49ba 0000 | 00a0 e901 | 0000 492b 
  0x000001e99a3b4dc0: ca89 4808 | 4833 c989 | 480c 4833 | c948 8948 | 1048 8948 | 1848 8948 

  0x000001e99a3b4dd8: ;   {oop("Illegal use of ClassFileAssembler"{0x00000000d44b9f30})}
  0x000001e99a3b4dd8: 2049 b830 | 9f4b d400 | 0000 0048 | 8bd0 4889 | 8424 9805 

  0x000001e99a3b4dec: ;   {optimized virtual_call}
  0x000001e99a3b4dec: 0000 90e8 

  0x000001e99a3b4df0: ; ImmutableOopMap {[120]=Oop [128]=Oop [1432]=Oop }
                      ;*invokespecial <init> {reexecute=0 rethrow=0 return_oop=0}
                      ; - jdk.internal.reflect.ClassFileAssembler::cpi@13 (line 95)
                      ; - jdk.internal.reflect.AccessorGenerator::emitBoxingContantPoolEntries@37 (line 265)
  0x000001e99a3b4df0: 8c7f a8fe | 488b 8424 | 9805 0000 | e9dc 0d00 

  0x000001e99a3b4e00: ;   {metadata('java/lang/RuntimeException')}
  0x000001e99a3b4e00: 0048 ba18 | ec02 a0e9 | 0100 0049 | 8b87 0801 | 0000 488d | 7828 493b | bf18 0100 | 000f 878e 
  0x000001e99a3b4e20: 0d00 0049 | 89bf 0801 | 0000 48c7 | 0001 0000 | 0048 8bca | 49ba 0000 | 00a0 e901 | 0000 492b 
  0x000001e99a3b4e40: ca89 4808 | 4833 c989 | 480c 4833 | c948 8948 | 1048 8948 | 1848 8948 

  0x000001e99a3b4e58: ;   {oop("Illegal use of ClassFileAssembler"{0x00000000d44b9f30})}
  0x000001e99a3b4e58: 2049 b830 | 9f4b d400 | 0000 0048 | 8bd0 4889 | 8424 a005 

  0x000001e99a3b4e6c: ;   {optimized virtual_call}
  0x000001e99a3b4e6c: 0000 90e8 

  0x000001e99a3b4e70: ; ImmutableOopMap {[120]=Oop [1440]=Oop }
                      ;*invokespecial <init> {reexecute=0 rethrow=0 return_oop=0}
                      ; - jdk.internal.reflect.ClassFileAssembler::cpi@13 (line 95)
                      ; - jdk.internal.reflect.AccessorGenerator::emitBoxingContantPoolEntries@14 (line 261)
  0x000001e99a3b4e70: 0c7f a8fe | 488b 8424 | a005 0000 | e95c 0d00 

  0x000001e99a3b4e80: ;   {runtime_call throw_null_pointer_exception Runtime1 stub}
  0x000001e99a3b4e80: 00e8 1ab6 

  0x000001e99a3b4e84: ; ImmutableOopMap {rdx=Oop [120]=Oop rsi=Oop }
                      ;*invokevirtual emitConstantPoolUTF8 {reexecute=0 rethrow=0 return_oop=0}
                      ; - jdk.internal.reflect.AccessorGenerator::emitBoxingContantPoolEntries@6 (line 260)
                      ;   {runtime_call throw_null_pointer_exception Runtime1 stub}
  0x000001e99a3b4e84: b2fe e815 

  0x000001e99a3b4e88: ; ImmutableOopMap {rdx=Oop [120]=Oop rsi=Oop }
                      ;*invokevirtual cpi {reexecute=0 rethrow=0 return_oop=0}
                      ; - jdk.internal.reflect.AccessorGenerator::emitBoxingContantPoolEntries@14 (line 261)
                      ;   {runtime_call throw_null_pointer_exception Runtime1 stub}
  0x000001e99a3b4e88: b6b2 fee8 

  0x000001e99a3b4e8c: ; ImmutableOopMap {rdx=Oop [120]=Oop rsi=Oop [128]=Oop }
                      ;*invokevirtual cpi {reexecute=0 rethrow=0 return_oop=0}
                      ; - jdk.internal.reflect.AccessorGenerator::emitBoxingContantPoolEntries@37 (line 265)
  0x000001e99a3b4e8c: 10b6 b2fe 

  0x000001e99a3b4e90: ;   {runtime_call throw_incompatible_class_change_error Runtime1 stub}
  0x000001e99a3b4e90: e80b e9b2 

  0x000001e99a3b4e94: ; ImmutableOopMap {rsi=Oop [128]=Oop [120]=Oop rdi=Oop }
                      ;*invokeinterface add {reexecute=0 rethrow=0 return_oop=0}
                      ; - jdk.internal.reflect.ClassFileAssembler::emitByte@5 (line 74)
                      ; - jdk.internal.reflect.ClassFileAssembler::emitConstantPoolClass@3 (line 113)
                      ; - jdk.internal.reflect.AccessorGenerator::emitBoxingContantPoolEntries@40 (line 265)
                      ;   {runtime_call throw_null_pointer_exception Runtime1 stub}
  0x000001e99a3b4e94: fee8 06b6 

  0x000001e99a3b4e98: ; ImmutableOopMap {rsi=Oop [128]=Oop [120]=Oop rdi=Oop }
                      ;*invokeinterface add {reexecute=0 rethrow=0 return_oop=0}
                      ; - jdk.internal.reflect.ClassFileAssembler::emitByte@5 (line 74)
                      ; - jdk.internal.reflect.ClassFileAssembler::emitConstantPoolClass@3 (line 113)
                      ; - jdk.internal.reflect.AccessorGenerator::emitBoxingContantPoolEntries@40 (line 265)
                      ;   {runtime_call throw_incompatible_class_change_error Runtime1 stub}
  0x000001e99a3b4e98: b2fe e801 

  0x000001e99a3b4e9c: ; ImmutableOopMap {[120]=Oop rsi=Oop [128]=Oop rdx=Oop }
                      ;*invokeinterface add {reexecute=0 rethrow=0 return_oop=0}
                      ; - jdk.internal.reflect.ClassFileAssembler::emitByte@5 (line 74)
                      ; - jdk.internal.reflect.ClassFileAssembler::emitShort@10 (line 63)
                      ; - jdk.internal.reflect.ClassFileAssembler::emitConstantPoolClass@8 (line 114)
                      ; - jdk.internal.reflect.AccessorGenerator::emitBoxingContantPoolEntries@40 (line 265)
                      ;   {runtime_call throw_null_pointer_exception Runtime1 stub}
  0x000001e99a3b4e9c: e9b2 fee8 

  0x000001e99a3b4ea0: ; ImmutableOopMap {[120]=Oop rsi=Oop [128]=Oop rdx=Oop }
                      ;*invokeinterface add {reexecute=0 rethrow=0 return_oop=0}
                      ; - jdk.internal.reflect.ClassFileAssembler::emitByte@5 (line 74)
                      ; - jdk.internal.reflect.ClassFileAssembler::emitShort@10 (line 63)
                      ; - jdk.internal.reflect.ClassFileAssembler::emitConstantPoolClass@8 (line 114)
                      ; - jdk.internal.reflect.AccessorGenerator::emitBoxingContantPoolEntries@40 (line 265)
  0x000001e99a3b4ea0: fcb5 b2fe 

  0x000001e99a3b4ea4: ;   {runtime_call throw_incompatible_class_change_error Runtime1 stub}
  0x000001e99a3b4ea4: e8f7 e8b2 

  0x000001e99a3b4ea8: ; ImmutableOopMap {[120]=Oop rsi=Oop [128]=Oop rdx=Oop }
                      ;*invokeinterface add {reexecute=0 rethrow=0 return_oop=0}
                      ; - jdk.internal.reflect.ClassFileAssembler::emitByte@5 (line 74)
                      ; - jdk.internal.reflect.ClassFileAssembler::emitShort@20 (line 64)
                      ; - jdk.internal.reflect.ClassFileAssembler::emitConstantPoolClass@8 (line 114)
                      ; - jdk.internal.reflect.AccessorGenerator::emitBoxingContantPoolEntries@40 (line 265)
                      ;   {runtime_call throw_null_pointer_exception Runtime1 stub}
  0x000001e99a3b4ea8: fee8 f2b5 

  0x000001e99a3b4eac: ; ImmutableOopMap {[120]=Oop rsi=Oop [128]=Oop rdx=Oop }
                      ;*invokeinterface add {reexecute=0 rethrow=0 return_oop=0}
                      ; - jdk.internal.reflect.ClassFileAssembler::emitByte@5 (line 74)
                      ; - jdk.internal.reflect.ClassFileAssembler::emitShort@20 (line 64)
                      ; - jdk.internal.reflect.ClassFileAssembler::emitConstantPoolClass@8 (line 114)
                      ; - jdk.internal.reflect.AccessorGenerator::emitBoxingContantPoolEntries@40 (line 265)
                      ;   {runtime_call throw_null_pointer_exception Runtime1 stub}
  0x000001e99a3b4eac: b2fe e8ed 

  0x000001e99a3b4eb0: ; ImmutableOopMap {rdx=Oop [120]=Oop rsi=Oop }
                      ;*invokevirtual cpi {reexecute=0 rethrow=0 return_oop=0}
                      ; - jdk.internal.reflect.AccessorGenerator::emitBoxingContantPoolEntries@48 (line 266)
                      ;   {runtime_call throw_null_pointer_exception Runtime1 stub}
  0x000001e99a3b4eb0: b5b2 fee8 

  0x000001e99a3b4eb4: ; ImmutableOopMap {rdx=Oop [120]=Oop rsi=Oop [144]=Oop }
                      ;*invokevirtual cpi {reexecute=0 rethrow=0 return_oop=0}
                      ; - jdk.internal.reflect.AccessorGenerator::emitBoxingContantPoolEntries@75 (line 268)
  0x000001e99a3b4eb4: e8b5 b2fe 

  0x000001e99a3b4eb8: ;   {runtime_call throw_incompatible_class_change_error Runtime1 stub}
  0x000001e99a3b4eb8: e8e3 e8b2 

  0x000001e99a3b4ebc: ; ImmutableOopMap {rsi=Oop [144]=Oop [120]=Oop rbx=Oop }
                      ;*invokeinterface add {reexecute=0 rethrow=0 return_oop=0}
                      ; - jdk.internal.reflect.ClassFileAssembler::emitByte@5 (line 74)
                      ; - jdk.internal.reflect.ClassFileAssembler::emitConstantPoolNameAndType@3 (line 119)
                      ; - jdk.internal.reflect.AccessorGenerator::emitBoxingContantPoolEntries@78 (line 268)
                      ;   {runtime_call throw_null_pointer_exception Runtime1 stub}
  0x000001e99a3b4ebc: fee8 deb5 

  0x000001e99a3b4ec0: ; ImmutableOopMap {rsi=Oop [144]=Oop [120]=Oop rbx=Oop }
                      ;*invokeinterface add {reexecute=0 rethrow=0 return_oop=0}
                      ; - jdk.internal.reflect.ClassFileAssembler::emitByte@5 (line 74)
                      ; - jdk.internal.reflect.ClassFileAssembler::emitConstantPoolNameAndType@3 (line 119)
                      ; - jdk.internal.reflect.AccessorGenerator::emitBoxingContantPoolEntries@78 (line 268)
                      ;   {runtime_call throw_incompatible_class_change_error Runtime1 stub}
  0x000001e99a3b4ec0: b2fe e8d9 

  0x000001e99a3b4ec4: ; ImmutableOopMap {[120]=Oop rsi=Oop [144]=Oop rdx=Oop }
                      ;*invokeinterface add {reexecute=0 rethrow=0 return_oop=0}
                      ; - jdk.internal.reflect.ClassFileAssembler::emitByte@5 (line 74)
                      ; - jdk.internal.reflect.ClassFileAssembler::emitShort@10 (line 63)
                      ; - jdk.internal.reflect.ClassFileAssembler::emitConstantPoolNameAndType@8 (line 120)
                      ; - jdk.internal.reflect.AccessorGenerator::emitBoxingContantPoolEntries@78 (line 268)
                      ;   {runtime_call throw_null_pointer_exception Runtime1 stub}
  0x000001e99a3b4ec4: e8b2 fee8 

  0x000001e99a3b4ec8: ; ImmutableOopMap {[120]=Oop rsi=Oop [144]=Oop rdx=Oop }
                      ;*invokeinterface add {reexecute=0 rethrow=0 return_oop=0}
                      ; - jdk.internal.reflect.ClassFileAssembler::emitByte@5 (line 74)
                      ; - jdk.internal.reflect.ClassFileAssembler::emitShort@10 (line 63)
                      ; - jdk.internal.reflect.ClassFileAssembler::emitConstantPoolNameAndType@8 (line 120)
                      ; - jdk.internal.reflect.AccessorGenerator::emitBoxingContantPoolEntries@78 (line 268)
  0x000001e99a3b4ec8: d4b5 b2fe 

  0x000001e99a3b4ecc: ;   {runtime_call throw_incompatible_class_change_error Runtime1 stub}
  0x000001e99a3b4ecc: e8cf e8b2 

  0x000001e99a3b4ed0: ; ImmutableOopMap {[120]=Oop rsi=Oop [144]=Oop rdx=Oop }
                      ;*invokeinterface add {reexecute=0 rethrow=0 return_oop=0}
                      ; - jdk.internal.reflect.ClassFileAssembler::emitByte@5 (line 74)
                      ; - jdk.internal.reflect.ClassFileAssembler::emitShort@20 (line 64)
                      ; - jdk.internal.reflect.ClassFileAssembler::emitConstantPoolNameAndType@8 (line 120)
                      ; - jdk.internal.reflect.AccessorGenerator::emitBoxingContantPoolEntries@78 (line 268)
                      ;   {runtime_call throw_null_pointer_exception Runtime1 stub}
  0x000001e99a3b4ed0: fee8 cab5 

  0x000001e99a3b4ed4: ; ImmutableOopMap {[120]=Oop rsi=Oop [144]=Oop rdx=Oop }
                      ;*invokeinterface add {reexecute=0 rethrow=0 return_oop=0}
                      ; - jdk.internal.reflect.ClassFileAssembler::emitByte@5 (line 74)
                      ; - jdk.internal.reflect.ClassFileAssembler::emitShort@20 (line 64)
                      ; - jdk.internal.reflect.ClassFileAssembler::emitConstantPoolNameAndType@8 (line 120)
                      ; - jdk.internal.reflect.AccessorGenerator::emitBoxingContantPoolEntries@78 (line 268)
                      ;   {runtime_call throw_incompatible_class_change_error Runtime1 stub}
  0x000001e99a3b4ed4: b2fe e8c5 

  0x000001e99a3b4ed8: ; ImmutableOopMap {[120]=Oop rsi=Oop [144]=Oop rdx=Oop }
                      ;*invokeinterface add {reexecute=0 rethrow=0 return_oop=0}
                      ; - jdk.internal.reflect.ClassFileAssembler::emitByte@5 (line 74)
                      ; - jdk.internal.reflect.ClassFileAssembler::emitShort@10 (line 63)
                      ; - jdk.internal.reflect.ClassFileAssembler::emitConstantPoolNameAndType@13 (line 121)
                      ; - jdk.internal.reflect.AccessorGenerator::emitBoxingContantPoolEntries@78 (line 268)
                      ;   {runtime_call throw_null_pointer_exception Runtime1 stub}
  0x000001e99a3b4ed8: e8b2 fee8 

  0x000001e99a3b4edc: ; ImmutableOopMap {[120]=Oop rsi=Oop [144]=Oop rdx=Oop }
                      ;*invokeinterface add {reexecute=0 rethrow=0 return_oop=0}
                      ; - jdk.internal.reflect.ClassFileAssembler::emitByte@5 (line 74)
                      ; - jdk.internal.reflect.ClassFileAssembler::emitShort@10 (line 63)
                      ; - jdk.internal.reflect.ClassFileAssembler::emitConstantPoolNameAndType@13 (line 121)
                      ; - jdk.internal.reflect.AccessorGenerator::emitBoxingContantPoolEntries@78 (line 268)
  0x000001e99a3b4edc: c0b5 b2fe 

  0x000001e99a3b4ee0: ;   {runtime_call throw_incompatible_class_change_error Runtime1 stub}
  0x000001e99a3b4ee0: e8bb e8b2 

  0x000001e99a3b4ee4: ; ImmutableOopMap {[120]=Oop rsi=Oop [144]=Oop rdx=Oop }
                      ;*invokeinterface add {reexecute=0 rethrow=0 return_oop=0}
                      ; - jdk.internal.reflect.ClassFileAssembler::emitByte@5 (line 74)
                      ; - jdk.internal.reflect.ClassFileAssembler::emitShort@20 (line 64)
                      ; - jdk.internal.reflect.ClassFileAssembler::emitConstantPoolNameAndType@13 (line 121)
                      ; - jdk.internal.reflect.AccessorGenerator::emitBoxingContantPoolEntries@78 (line 268)
                      ;   {runtime_call throw_null_pointer_exception Runtime1 stub}
  0x000001e99a3b4ee4: fee8 b6b5 

  0x000001e99a3b4ee8: ; ImmutableOopMap {[120]=Oop rsi=Oop [144]=Oop rdx=Oop }
                      ;*invokeinterface add {reexecute=0 rethrow=0 return_oop=0}
                      ; - jdk.internal.reflect.ClassFileAssembler::emitByte@5 (line 74)
                      ; - jdk.internal.reflect.ClassFileAssembler::emitShort@20 (line 64)
                      ; - jdk.internal.reflect.ClassFileAssembler::emitConstantPoolNameAndType@13 (line 121)
                      ; - jdk.internal.reflect.AccessorGenerator::emitBoxingContantPoolEntries@78 (line 268)
                      ;   {runtime_call throw_null_pointer_exception Runtime1 stub}
  0x000001e99a3b4ee8: b2fe e8b1 

  0x000001e99a3b4eec: ; ImmutableOopMap {rdx=Oop [120]=Oop rsi=Oop [160]=Oop }
                      ;*invokevirtual cpi {reexecute=0 rethrow=0 return_oop=0}
                      ; - jdk.internal.reflect.AccessorGenerator::emitBoxingContantPoolEntries@89 (line 269)
                      ;   {runtime_call throw_incompatible_class_change_error Runtime1 stub}
  0x000001e99a3b4eec: b5b2 fee8 

  0x000001e99a3b4ef0: ; ImmutableOopMap {rsi=Oop [160]=Oop [120]=Oop rax=Oop }
                      ;*invokeinterface add {reexecute=0 rethrow=0 return_oop=0}
                      ; - jdk.internal.reflect.ClassFileAssembler::emitByte@5 (line 74)
                      ; - jdk.internal.reflect.ClassFileAssembler::emitConstantPoolMethodref@3 (line 137)
                      ; - jdk.internal.reflect.AccessorGenerator::emitBoxingContantPoolEntries@103 (line 269)
  0x000001e99a3b4ef0: ace8 b2fe 

  0x000001e99a3b4ef4: ;   {runtime_call throw_null_pointer_exception Runtime1 stub}
  0x000001e99a3b4ef4: e8a7 b5b2 

  0x000001e99a3b4ef8: ; ImmutableOopMap {rsi=Oop [160]=Oop [120]=Oop rax=Oop }
                      ;*invokeinterface add {reexecute=0 rethrow=0 return_oop=0}
                      ; - jdk.internal.reflect.ClassFileAssembler::emitByte@5 (line 74)
                      ; - jdk.internal.reflect.ClassFileAssembler::emitConstantPoolMethodref@3 (line 137)
                      ; - jdk.internal.reflect.AccessorGenerator::emitBoxingContantPoolEntries@103 (line 269)
                      ;   {runtime_call throw_incompatible_class_change_error Runtime1 stub}
  0x000001e99a3b4ef8: fee8 a2e8 

  0x000001e99a3b4efc: ; ImmutableOopMap {[120]=Oop rsi=Oop [160]=Oop rdx=Oop }
                      ;*invokeinterface add {reexecute=0 rethrow=0 return_oop=0}
                      ; - jdk.internal.reflect.ClassFileAssembler::emitByte@5 (line 74)
                      ; - jdk.internal.reflect.ClassFileAssembler::emitShort@10 (line 63)
                      ; - jdk.internal.reflect.ClassFileAssembler::emitConstantPoolMethodref@8 (line 138)
                      ; - jdk.internal.reflect.AccessorGenerator::emitBoxingContantPoolEntries@103 (line 269)
                      ;   {runtime_call throw_null_pointer_exception Runtime1 stub}
  0x000001e99a3b4efc: b2fe e89d 

  0x000001e99a3b4f00: ; ImmutableOopMap {[120]=Oop rsi=Oop [160]=Oop rdx=Oop }
                      ;*invokeinterface add {reexecute=0 rethrow=0 return_oop=0}
                      ; - jdk.internal.reflect.ClassFileAssembler::emitByte@5 (line 74)
                      ; - jdk.internal.reflect.ClassFileAssembler::emitShort@10 (line 63)
                      ; - jdk.internal.reflect.ClassFileAssembler::emitConstantPoolMethodref@8 (line 138)
                      ; - jdk.internal.reflect.AccessorGenerator::emitBoxingContantPoolEntries@103 (line 269)
                      ;   {runtime_call throw_incompatible_class_change_error Runtime1 stub}
  0x000001e99a3b4f00: b5b2 fee8 

  0x000001e99a3b4f04: ; ImmutableOopMap {[120]=Oop rsi=Oop [160]=Oop rdx=Oop }
                      ;*invokeinterface add {reexecute=0 rethrow=0 return_oop=0}
                      ; - jdk.internal.reflect.ClassFileAssembler::emitByte@5 (line 74)
                      ; - jdk.internal.reflect.ClassFileAssembler::emitShort@20 (line 64)
                      ; - jdk.internal.reflect.ClassFileAssembler::emitConstantPoolMethodref@8 (line 138)
                      ; - jdk.internal.reflect.AccessorGenerator::emitBoxingContantPoolEntries@103 (line 269)
  0x000001e99a3b4f04: 98e8 b2fe 

  0x000001e99a3b4f08: ;   {runtime_call throw_null_pointer_exception Runtime1 stub}
  0x000001e99a3b4f08: e893 b5b2 

  0x000001e99a3b4f0c: ; ImmutableOopMap {[120]=Oop rsi=Oop [160]=Oop rdx=Oop }
                      ;*invokeinterface add {reexecute=0 rethrow=0 return_oop=0}
                      ; - jdk.internal.reflect.ClassFileAssembler::emitByte@5 (line 74)
                      ; - jdk.internal.reflect.ClassFileAssembler::emitShort@20 (line 64)
                      ; - jdk.internal.reflect.ClassFileAssembler::emitConstantPoolMethodref@8 (line 138)
                      ; - jdk.internal.reflect.AccessorGenerator::emitBoxingContantPoolEntries@103 (line 269)
                      ;   {runtime_call throw_incompatible_class_change_error Runtime1 stub}
  0x000001e99a3b4f0c: fee8 8ee8 

  0x000001e99a3b4f10: ; ImmutableOopMap {[120]=Oop rsi=Oop [160]=Oop rdx=Oop }
                      ;*invokeinterface add {reexecute=0 rethrow=0 return_oop=0}
                      ; - jdk.internal.reflect.ClassFileAssembler::emitByte@5 (line 74)
                      ; - jdk.internal.reflect.ClassFileAssembler::emitShort@10 (line 63)
                      ; - jdk.internal.reflect.ClassFileAssembler::emitConstantPoolMethodref@13 (line 139)
                      ; - jdk.internal.reflect.AccessorGenerator::emitBoxingContantPoolEntries@103 (line 269)
                      ;   {runtime_call throw_null_pointer_exception Runtime1 stub}
  0x000001e99a3b4f10: b2fe e889 

  0x000001e99a3b4f14: ; ImmutableOopMap {[120]=Oop rsi=Oop [160]=Oop rdx=Oop }
                      ;*invokeinterface add {reexecute=0 rethrow=0 return_oop=0}
                      ; - jdk.internal.reflect.ClassFileAssembler::emitByte@5 (line 74)
                      ; - jdk.internal.reflect.ClassFileAssembler::emitShort@10 (line 63)
                      ; - jdk.internal.reflect.ClassFileAssembler::emitConstantPoolMethodref@13 (line 139)
                      ; - jdk.internal.reflect.AccessorGenerator::emitBoxingContantPoolEntries@103 (line 269)
                      ;   {runtime_call throw_incompatible_class_change_error Runtime1 stub}
  0x000001e99a3b4f14: b5b2 fee8 

  0x000001e99a3b4f18: ; ImmutableOopMap {[120]=Oop rsi=Oop [160]=Oop rdx=Oop }
                      ;*invokeinterface add {reexecute=0 rethrow=0 return_oop=0}
                      ; - jdk.internal.reflect.ClassFileAssembler::emitByte@5 (line 74)
                      ; - jdk.internal.reflect.ClassFileAssembler::emitShort@20 (line 64)
                      ; - jdk.internal.reflect.ClassFileAssembler::emitConstantPoolMethodref@13 (line 139)
                      ; - jdk.internal.reflect.AccessorGenerator::emitBoxingContantPoolEntries@103 (line 269)
  0x000001e99a3b4f18: 84e8 b2fe 

  0x000001e99a3b4f1c: ;   {runtime_call throw_null_pointer_exception Runtime1 stub}
  0x000001e99a3b4f1c: e87f b5b2 

  0x000001e99a3b4f20: ; ImmutableOopMap {[120]=Oop rsi=Oop [160]=Oop rdx=Oop }
                      ;*invokeinterface add {reexecute=0 rethrow=0 return_oop=0}
                      ; - jdk.internal.reflect.ClassFileAssembler::emitByte@5 (line 74)
                      ; - jdk.internal.reflect.ClassFileAssembler::emitShort@20 (line 64)
                      ; - jdk.internal.reflect.ClassFileAssembler::emitConstantPoolMethodref@13 (line 139)
                      ; - jdk.internal.reflect.AccessorGenerator::emitBoxingContantPoolEntries@103 (line 269)
                      ;   {runtime_call throw_null_pointer_exception Runtime1 stub}
  0x000001e99a3b4f20: fee8 7ab5 

  0x000001e99a3b4f24: ; ImmutableOopMap {rdx=Oop [120]=Oop rsi=Oop }
                      ;*invokevirtual cpi {reexecute=0 rethrow=0 return_oop=0}
                      ; - jdk.internal.reflect.AccessorGenerator::emitBoxingContantPoolEntries@111 (line 270)
                      ;   {runtime_call throw_null_pointer_exception Runtime1 stub}
  0x000001e99a3b4f24: b2fe e875 

  0x000001e99a3b4f28: ; ImmutableOopMap {rdx=Oop [120]=Oop rsi=Oop }
                      ;*invokevirtual emitConstantPoolUTF8 {reexecute=0 rethrow=0 return_oop=0}
                      ; - jdk.internal.reflect.AccessorGenerator::emitBoxingContantPoolEntries@132 (line 272)
                      ;   {runtime_call throw_null_pointer_exception Runtime1 stub}
  0x000001e99a3b4f28: b5b2 fee8 

  0x000001e99a3b4f2c: ; ImmutableOopMap {rdx=Oop [120]=Oop rsi=Oop [176]=Oop }
                      ;*invokevirtual cpi {reexecute=0 rethrow=0 return_oop=0}
                      ; - jdk.internal.reflect.AccessorGenerator::emitBoxingContantPoolEntries@143 (line 273)
  0x000001e99a3b4f2c: 70b5 b2fe 

  0x000001e99a3b4f30: ;   {runtime_call throw_incompatible_class_change_error Runtime1 stub}
  0x000001e99a3b4f30: e86b e8b2 

  0x000001e99a3b4f34: ; ImmutableOopMap {rsi=Oop [176]=Oop [120]=Oop rax=Oop }
                      ;*invokeinterface add {reexecute=0 rethrow=0 return_oop=0}
                      ; - jdk.internal.reflect.ClassFileAssembler::emitByte@5 (line 74)
                      ; - jdk.internal.reflect.ClassFileAssembler::emitConstantPoolNameAndType@3 (line 119)
                      ; - jdk.internal.reflect.AccessorGenerator::emitBoxingContantPoolEntries@157 (line 273)
                      ;   {runtime_call throw_null_pointer_exception Runtime1 stub}
  0x000001e99a3b4f34: fee8 66b5 

  0x000001e99a3b4f38: ; ImmutableOopMap {rsi=Oop [176]=Oop [120]=Oop rax=Oop }
                      ;*invokeinterface add {reexecute=0 rethrow=0 return_oop=0}
                      ; - jdk.internal.reflect.ClassFileAssembler::emitByte@5 (line 74)
                      ; - jdk.internal.reflect.ClassFileAssembler::emitConstantPoolNameAndType@3 (line 119)
                      ; - jdk.internal.reflect.AccessorGenerator::emitBoxingContantPoolEntries@157 (line 273)
                      ;   {runtime_call throw_incompatible_class_change_error Runtime1 stub}
  0x000001e99a3b4f38: b2fe e861 

  0x000001e99a3b4f3c: ; ImmutableOopMap {[120]=Oop rsi=Oop [176]=Oop rdx=Oop }
                      ;*invokeinterface add {reexecute=0 rethrow=0 return_oop=0}
                      ; - jdk.internal.reflect.ClassFileAssembler::emitByte@5 (line 74)
                      ; - jdk.internal.reflect.ClassFileAssembler::emitShort@10 (line 63)
                      ; - jdk.internal.reflect.ClassFileAssembler::emitConstantPoolNameAndType@8 (line 120)
                      ; - jdk.internal.reflect.AccessorGenerator::emitBoxingContantPoolEntries@157 (line 273)
                      ;   {runtime_call throw_null_pointer_exception Runtime1 stub}
  0x000001e99a3b4f3c: e8b2 fee8 

  0x000001e99a3b4f40: ; ImmutableOopMap {[120]=Oop rsi=Oop [176]=Oop rdx=Oop }
                      ;*invokeinterface add {reexecute=0 rethrow=0 return_oop=0}
                      ; - jdk.internal.reflect.ClassFileAssembler::emitByte@5 (line 74)
                      ; - jdk.internal.reflect.ClassFileAssembler::emitShort@10 (line 63)
                      ; - jdk.internal.reflect.ClassFileAssembler::emitConstantPoolNameAndType@8 (line 120)
                      ; - jdk.internal.reflect.AccessorGenerator::emitBoxingContantPoolEntries@157 (line 273)
  0x000001e99a3b4f40: 5cb5 b2fe 

  0x000001e99a3b4f44: ;   {runtime_call throw_incompatible_class_change_error Runtime1 stub}
  0x000001e99a3b4f44: e857 e8b2 

  0x000001e99a3b4f48: ; ImmutableOopMap {[120]=Oop rsi=Oop [176]=Oop rdx=Oop }
                      ;*invokeinterface add {reexecute=0 rethrow=0 return_oop=0}
                      ; - jdk.internal.reflect.ClassFileAssembler::emitByte@5 (line 74)
                      ; - jdk.internal.reflect.ClassFileAssembler::emitShort@20 (line 64)
                      ; - jdk.internal.reflect.ClassFileAssembler::emitConstantPoolNameAndType@8 (line 120)
                      ; - jdk.internal.reflect.AccessorGenerator::emitBoxingContantPoolEntries@157 (line 273)
                      ;   {runtime_call throw_null_pointer_exception Runtime1 stub}
  0x000001e99a3b4f48: fee8 52b5 

  0x000001e99a3b4f4c: ; ImmutableOopMap {[120]=Oop rsi=Oop [176]=Oop rdx=Oop }
                      ;*invokeinterface add {reexecute=0 rethrow=0 return_oop=0}
                      ; - jdk.internal.reflect.ClassFileAssembler::emitByte@5 (line 74)
                      ; - jdk.internal.reflect.ClassFileAssembler::emitShort@20 (line 64)
                      ; - jdk.internal.reflect.ClassFileAssembler::emitConstantPoolNameAndType@8 (line 120)
                      ; - jdk.internal.reflect.AccessorGenerator::emitBoxingContantPoolEntries@157 (line 273)
                      ;   {runtime_call throw_incompatible_class_change_error Runtime1 stub}
  0x000001e99a3b4f4c: b2fe e84d 

  0x000001e99a3b4f50: ; ImmutableOopMap {[120]=Oop rsi=Oop [176]=Oop rdx=Oop }
                      ;*invokeinterface add {reexecute=0 rethrow=0 return_oop=0}
                      ; - jdk.internal.reflect.ClassFileAssembler::emitByte@5 (line 74)
                      ; - jdk.internal.reflect.ClassFileAssembler::emitShort@10 (line 63)
                      ; - jdk.internal.reflect.ClassFileAssembler::emitConstantPoolNameAndType@13 (line 121)
                      ; - jdk.internal.reflect.AccessorGenerator::emitBoxingContantPoolEntries@157 (line 273)
                      ;   {runtime_call throw_null_pointer_exception Runtime1 stub}
  0x000001e99a3b4f50: e8b2 fee8 

  0x000001e99a3b4f54: ; ImmutableOopMap {[120]=Oop rsi=Oop [176]=Oop rdx=Oop }
                      ;*invokeinterface add {reexecute=0 rethrow=0 return_oop=0}
                      ; - jdk.internal.reflect.ClassFileAssembler::emitByte@5 (line 74)
                      ; - jdk.internal.reflect.ClassFileAssembler::emitShort@10 (line 63)
                      ; - jdk.internal.reflect.ClassFileAssembler::emitConstantPoolNameAndType@13 (line 121)
                      ; - jdk.internal.reflect.AccessorGenerator::emitBoxingContantPoolEntries@157 (line 273)
  0x000001e99a3b4f54: 48b5 b2fe 

  0x000001e99a3b4f58: ;   {runtime_call throw_incompatible_class_change_error Runtime1 stub}
  0x000001e99a3b4f58: e843 e8b2 

  0x000001e99a3b4f5c: ; ImmutableOopMap {[120]=Oop rsi=Oop [176]=Oop rdx=Oop }
                      ;*invokeinterface add {reexecute=0 rethrow=0 return_oop=0}
                      ; - jdk.internal.reflect.ClassFileAssembler::emitByte@5 (line 74)
                      ; - jdk.internal.reflect.ClassFileAssembler::emitShort@20 (line 64)
                      ; - jdk.internal.reflect.ClassFileAssembler::emitConstantPoolNameAndType@13 (line 121)
                      ; - jdk.internal.reflect.AccessorGenerator::emitBoxingContantPoolEntries@157 (line 273)
                      ;   {runtime_call throw_null_pointer_exception Runtime1 stub}
  0x000001e99a3b4f5c: fee8 3eb5 

  0x000001e99a3b4f60: ; ImmutableOopMap {[120]=Oop rsi=Oop [176]=Oop rdx=Oop }
                      ;*invokeinterface add {reexecute=0 rethrow=0 return_oop=0}
                      ; - jdk.internal.reflect.ClassFileAssembler::emitByte@5 (line 74)
                      ; - jdk.internal.reflect.ClassFileAssembler::emitShort@20 (line 64)
                      ; - jdk.internal.reflect.ClassFileAssembler::emitConstantPoolNameAndType@13 (line 121)
                      ; - jdk.internal.reflect.AccessorGenerator::emitBoxingContantPoolEntries@157 (line 273)
                      ;   {runtime_call throw_null_pointer_exception Runtime1 stub}
  0x000001e99a3b4f60: b2fe e839 

  0x000001e99a3b4f64: ; ImmutableOopMap {rdx=Oop [120]=Oop rsi=Oop [192]=Oop }
                      ;*invokevirtual cpi {reexecute=0 rethrow=0 return_oop=0}
                      ; - jdk.internal.reflect.AccessorGenerator::emitBoxingContantPoolEntries@168 (line 274)
                      ;   {runtime_call throw_incompatible_class_change_error Runtime1 stub}
  0x000001e99a3b4f64: b5b2 fee8 

  0x000001e99a3b4f68: ; ImmutableOopMap {rsi=Oop [192]=Oop [120]=Oop rax=Oop }
                      ;*invokeinterface add {reexecute=0 rethrow=0 return_oop=0}
                      ; - jdk.internal.reflect.ClassFileAssembler::emitByte@5 (line 74)
                      ; - jdk.internal.reflect.ClassFileAssembler::emitConstantPoolMethodref@3 (line 137)
                      ; - jdk.internal.reflect.AccessorGenerator::emitBoxingContantPoolEntries@183 (line 274)
  0x000001e99a3b4f68: 34e8 b2fe 

  0x000001e99a3b4f6c: ;   {runtime_call throw_null_pointer_exception Runtime1 stub}
  0x000001e99a3b4f6c: e82f b5b2 

  0x000001e99a3b4f70: ; ImmutableOopMap {rsi=Oop [192]=Oop [120]=Oop rax=Oop }
                      ;*invokeinterface add {reexecute=0 rethrow=0 return_oop=0}
                      ; - jdk.internal.reflect.ClassFileAssembler::emitByte@5 (line 74)
                      ; - jdk.internal.reflect.ClassFileAssembler::emitConstantPoolMethodref@3 (line 137)
                      ; - jdk.internal.reflect.AccessorGenerator::emitBoxingContantPoolEntries@183 (line 274)
                      ;   {runtime_call throw_incompatible_class_change_error Runtime1 stub}
  0x000001e99a3b4f70: fee8 2ae8 

  0x000001e99a3b4f74: ; ImmutableOopMap {[120]=Oop rsi=Oop [192]=Oop rdx=Oop }
                      ;*invokeinterface add {reexecute=0 rethrow=0 return_oop=0}
                      ; - jdk.internal.reflect.ClassFileAssembler::emitByte@5 (line 74)
                      ; - jdk.internal.reflect.ClassFileAssembler::emitShort@10 (line 63)
                      ; - jdk.internal.reflect.ClassFileAssembler::emitConstantPoolMethodref@8 (line 138)
                      ; - jdk.internal.reflect.AccessorGenerator::emitBoxingContantPoolEntries@183 (line 274)
                      ;   {runtime_call throw_null_pointer_exception Runtime1 stub}
  0x000001e99a3b4f74: b2fe e825 

  0x000001e99a3b4f78: ; ImmutableOopMap {[120]=Oop rsi=Oop [192]=Oop rdx=Oop }
                      ;*invokeinterface add {reexecute=0 rethrow=0 return_oop=0}
                      ; - jdk.internal.reflect.ClassFileAssembler::emitByte@5 (line 74)
                      ; - jdk.internal.reflect.ClassFileAssembler::emitShort@10 (line 63)
                      ; - jdk.internal.reflect.ClassFileAssembler::emitConstantPoolMethodref@8 (line 138)
                      ; - jdk.internal.reflect.AccessorGenerator::emitBoxingContantPoolEntries@183 (line 274)
                      ;   {runtime_call throw_incompatible_class_change_error Runtime1 stub}
  0x000001e99a3b4f78: b5b2 fee8 

  0x000001e99a3b4f7c: ; ImmutableOopMap {[120]=Oop rsi=Oop [192]=Oop rdx=Oop }
                      ;*invokeinterface add {reexecute=0 rethrow=0 return_oop=0}
                      ; - jdk.internal.reflect.ClassFileAssembler::emitByte@5 (line 74)
                      ; - jdk.internal.reflect.ClassFileAssembler::emitShort@20 (line 64)
                      ; - jdk.internal.reflect.ClassFileAssembler::emitConstantPoolMethodref@8 (line 138)
                      ; - jdk.internal.reflect.AccessorGenerator::emitBoxingContantPoolEntries@183 (line 274)
  0x000001e99a3b4f7c: 20e8 b2fe 

  0x000001e99a3b4f80: ;   {runtime_call throw_null_pointer_exception Runtime1 stub}
  0x000001e99a3b4f80: e81b b5b2 

  0x000001e99a3b4f84: ; ImmutableOopMap {[120]=Oop rsi=Oop [192]=Oop rdx=Oop }
                      ;*invokeinterface add {reexecute=0 rethrow=0 return_oop=0}
                      ; - jdk.internal.reflect.ClassFileAssembler::emitByte@5 (line 74)
                      ; - jdk.internal.reflect.ClassFileAssembler::emitShort@20 (line 64)
                      ; - jdk.internal.reflect.ClassFileAssembler::emitConstantPoolMethodref@8 (line 138)
                      ; - jdk.internal.reflect.AccessorGenerator::emitBoxingContantPoolEntries@183 (line 274)
                      ;   {runtime_call throw_incompatible_class_change_error Runtime1 stub}
  0x000001e99a3b4f84: fee8 16e8 

  0x000001e99a3b4f88: ; ImmutableOopMap {[120]=Oop rsi=Oop [192]=Oop rdx=Oop }
                      ;*invokeinterface add {reexecute=0 rethrow=0 return_oop=0}
                      ; - jdk.internal.reflect.ClassFileAssembler::emitByte@5 (line 74)
                      ; - jdk.internal.reflect.ClassFileAssembler::emitShort@10 (line 63)
                      ; - jdk.internal.reflect.ClassFileAssembler::emitConstantPoolMethodref@13 (line 139)
                      ; - jdk.internal.reflect.AccessorGenerator::emitBoxingContantPoolEntries@183 (line 274)
                      ;   {runtime_call throw_null_pointer_exception Runtime1 stub}
  0x000001e99a3b4f88: b2fe e811 

  0x000001e99a3b4f8c: ; ImmutableOopMap {[120]=Oop rsi=Oop [192]=Oop rdx=Oop }
                      ;*invokeinterface add {reexecute=0 rethrow=0 return_oop=0}
                      ; - jdk.internal.reflect.ClassFileAssembler::emitByte@5 (line 74)
                      ; - jdk.internal.reflect.ClassFileAssembler::emitShort@10 (line 63)
                      ; - jdk.internal.reflect.ClassFileAssembler::emitConstantPoolMethodref@13 (line 139)
                      ; - jdk.internal.reflect.AccessorGenerator::emitBoxingContantPoolEntries@183 (line 274)
                      ;   {runtime_call throw_incompatible_class_change_error Runtime1 stub}
  0x000001e99a3b4f8c: b5b2 fee8 

  0x000001e99a3b4f90: ; ImmutableOopMap {[120]=Oop rsi=Oop [192]=Oop rdx=Oop }
                      ;*invokeinterface add {reexecute=0 rethrow=0 return_oop=0}
                      ; - jdk.internal.reflect.ClassFileAssembler::emitByte@5 (line 74)
                      ; - jdk.internal.reflect.ClassFileAssembler::emitShort@20 (line 64)
                      ; - jdk.internal.reflect.ClassFileAssembler::emitConstantPoolMethodref@13 (line 139)
                      ; - jdk.internal.reflect.AccessorGenerator::emitBoxingContantPoolEntries@183 (line 274)
  0x000001e99a3b4f90: 0ce8 b2fe 

  0x000001e99a3b4f94: ;   {runtime_call throw_null_pointer_exception Runtime1 stub}
  0x000001e99a3b4f94: e807 b5b2 

  0x000001e99a3b4f98: ; ImmutableOopMap {[120]=Oop rsi=Oop [192]=Oop rdx=Oop }
                      ;*invokeinterface add {reexecute=0 rethrow=0 return_oop=0}
                      ; - jdk.internal.reflect.ClassFileAssembler::emitByte@5 (line 74)
                      ; - jdk.internal.reflect.ClassFileAssembler::emitShort@20 (line 64)
                      ; - jdk.internal.reflect.ClassFileAssembler::emitConstantPoolMethodref@13 (line 139)
                      ; - jdk.internal.reflect.AccessorGenerator::emitBoxingContantPoolEntries@183 (line 274)
                      ;   {runtime_call throw_null_pointer_exception Runtime1 stub}
  0x000001e99a3b4f98: fee8 02b5 

  0x000001e99a3b4f9c: ; ImmutableOopMap {rdx=Oop [120]=Oop rsi=Oop }
                      ;*invokevirtual cpi {reexecute=0 rethrow=0 return_oop=0}
                      ; - jdk.internal.reflect.AccessorGenerator::emitBoxingContantPoolEntries@191 (line 275)
                      ;   {runtime_call throw_null_pointer_exception Runtime1 stub}
  0x000001e99a3b4f9c: b2fe e8fd 

  0x000001e99a3b4fa0: ; ImmutableOopMap {rdx=Oop [120]=Oop rsi=Oop [208]=Oop }
                      ;*invokevirtual cpi {reexecute=0 rethrow=0 return_oop=0}
                      ; - jdk.internal.reflect.AccessorGenerator::emitBoxingContantPoolEntries@214 (line 279)
                      ;   {runtime_call throw_incompatible_class_change_error Runtime1 stub}
  0x000001e99a3b4fa0: b4b2 fee8 

  0x000001e99a3b4fa4: ; ImmutableOopMap {rsi=Oop [208]=Oop [120]=Oop rdi=Oop }
                      ;*invokeinterface add {reexecute=0 rethrow=0 return_oop=0}
                      ; - jdk.internal.reflect.ClassFileAssembler::emitByte@5 (line 74)
                      ; - jdk.internal.reflect.ClassFileAssembler::emitConstantPoolClass@3 (line 113)
                      ; - jdk.internal.reflect.AccessorGenerator::emitBoxingContantPoolEntries@217 (line 279)
  0x000001e99a3b4fa4: f8e7 b2fe 

  0x000001e99a3b4fa8: ;   {runtime_call throw_null_pointer_exception Runtime1 stub}
  0x000001e99a3b4fa8: e8f3 b4b2 

  0x000001e99a3b4fac: ; ImmutableOopMap {rsi=Oop [208]=Oop [120]=Oop rdi=Oop }
                      ;*invokeinterface add {reexecute=0 rethrow=0 return_oop=0}
                      ; - jdk.internal.reflect.ClassFileAssembler::emitByte@5 (line 74)
                      ; - jdk.internal.reflect.ClassFileAssembler::emitConstantPoolClass@3 (line 113)
                      ; - jdk.internal.reflect.AccessorGenerator::emitBoxingContantPoolEntries@217 (line 279)
                      ;   {runtime_call throw_incompatible_class_change_error Runtime1 stub}
  0x000001e99a3b4fac: fee8 eee7 

  0x000001e99a3b4fb0: ; ImmutableOopMap {[120]=Oop rsi=Oop [208]=Oop rdx=Oop }
                      ;*invokeinterface add {reexecute=0 rethrow=0 return_oop=0}
                      ; - jdk.internal.reflect.ClassFileAssembler::emitByte@5 (line 74)
                      ; - jdk.internal.reflect.ClassFileAssembler::emitShort@10 (line 63)
                      ; - jdk.internal.reflect.ClassFileAssembler::emitConstantPoolClass@8 (line 114)
                      ; - jdk.internal.reflect.AccessorGenerator::emitBoxingContantPoolEntries@217 (line 279)
                      ;   {runtime_call throw_null_pointer_exception Runtime1 stub}
  0x000001e99a3b4fb0: b2fe e8e9 

  0x000001e99a3b4fb4: ; ImmutableOopMap {[120]=Oop rsi=Oop [208]=Oop rdx=Oop }
                      ;*invokeinterface add {reexecute=0 rethrow=0 return_oop=0}
                      ; - jdk.internal.reflect.ClassFileAssembler::emitByte@5 (line 74)
                      ; - jdk.internal.reflect.ClassFileAssembler::emitShort@10 (line 63)
                      ; - jdk.internal.reflect.ClassFileAssembler::emitConstantPoolClass@8 (line 114)
                      ; - jdk.internal.reflect.AccessorGenerator::emitBoxingContantPoolEntries@217 (line 279)
                      ;   {runtime_call throw_incompatible_class_change_error Runtime1 stub}
  0x000001e99a3b4fb4: b4b2 fee8 

  0x000001e99a3b4fb8: ; ImmutableOopMap {[120]=Oop rsi=Oop [208]=Oop rdx=Oop }
                      ;*invokeinterface add {reexecute=0 rethrow=0 return_oop=0}
                      ; - jdk.internal.reflect.ClassFileAssembler::emitByte@5 (line 74)
                      ; - jdk.internal.reflect.ClassFileAssembler::emitShort@20 (line 64)
                      ; - jdk.internal.reflect.ClassFileAssembler::emitConstantPoolClass@8 (line 114)
                      ; - jdk.internal.reflect.AccessorGenerator::emitBoxingContantPoolEntries@217 (line 279)
  0x000001e99a3b4fb8: e4e7 b2fe 

  0x000001e99a3b4fbc: ;   {runtime_call throw_null_pointer_exception Runtime1 stub}
  0x000001e99a3b4fbc: e8df b4b2 

  0x000001e99a3b4fc0: ; ImmutableOopMap {[120]=Oop rsi=Oop [208]=Oop rdx=Oop }
                      ;*invokeinterface add {reexecute=0 rethrow=0 return_oop=0}
                      ; - jdk.internal.reflect.ClassFileAssembler::emitByte@5 (line 74)
                      ; - jdk.internal.reflect.ClassFileAssembler::emitShort@20 (line 64)
                      ; - jdk.internal.reflect.ClassFileAssembler::emitConstantPoolClass@8 (line 114)
                      ; - jdk.internal.reflect.AccessorGenerator::emitBoxingContantPoolEntries@217 (line 279)
                      ;   {runtime_call throw_null_pointer_exception Runtime1 stub}
  0x000001e99a3b4fc0: fee8 dab4 

  0x000001e99a3b4fc4: ; ImmutableOopMap {rdx=Oop [120]=Oop rsi=Oop }
                      ;*invokevirtual cpi {reexecute=0 rethrow=0 return_oop=0}
                      ; - jdk.internal.reflect.AccessorGenerator::emitBoxingContantPoolEntries@225 (line 280)
                      ;   {runtime_call throw_null_pointer_exception Runtime1 stub}
  0x000001e99a3b4fc4: b2fe e8d5 

  0x000001e99a3b4fc8: ; ImmutableOopMap {rdx=Oop [120]=Oop rsi=Oop [216]=Oop }
                      ;*invokevirtual cpi {reexecute=0 rethrow=0 return_oop=0}
                      ; - jdk.internal.reflect.AccessorGenerator::emitBoxingContantPoolEntries@252 (line 282)
                      ;   {runtime_call throw_incompatible_class_change_error Runtime1 stub}
  0x000001e99a3b4fc8: b4b2 fee8 

  0x000001e99a3b4fcc: ; ImmutableOopMap {rsi=Oop [216]=Oop [120]=Oop rbx=Oop }
                      ;*invokeinterface add {reexecute=0 rethrow=0 return_oop=0}
                      ; - jdk.internal.reflect.ClassFileAssembler::emitByte@5 (line 74)
                      ; - jdk.internal.reflect.ClassFileAssembler::emitConstantPoolNameAndType@3 (line 119)
                      ; - jdk.internal.reflect.AccessorGenerator::emitBoxingContantPoolEntries@255 (line 282)
  0x000001e99a3b4fcc: d0e7 b2fe 

  0x000001e99a3b4fd0: ;   {runtime_call throw_null_pointer_exception Runtime1 stub}
  0x000001e99a3b4fd0: e8cb b4b2 

  0x000001e99a3b4fd4: ; ImmutableOopMap {rsi=Oop [216]=Oop [120]=Oop rbx=Oop }
                      ;*invokeinterface add {reexecute=0 rethrow=0 return_oop=0}
                      ; - jdk.internal.reflect.ClassFileAssembler::emitByte@5 (line 74)
                      ; - jdk.internal.reflect.ClassFileAssembler::emitConstantPoolNameAndType@3 (line 119)
                      ; - jdk.internal.reflect.AccessorGenerator::emitBoxingContantPoolEntries@255 (line 282)
                      ;   {runtime_call throw_incompatible_class_change_error Runtime1 stub}
  0x000001e99a3b4fd4: fee8 c6e7 

  0x000001e99a3b4fd8: ; ImmutableOopMap {[120]=Oop rsi=Oop [216]=Oop rdx=Oop }
                      ;*invokeinterface add {reexecute=0 rethrow=0 return_oop=0}
                      ; - jdk.internal.reflect.ClassFileAssembler::emitByte@5 (line 74)
                      ; - jdk.internal.reflect.ClassFileAssembler::emitShort@10 (line 63)
                      ; - jdk.internal.reflect.ClassFileAssembler::emitConstantPoolNameAndType@8 (line 120)
                      ; - jdk.internal.reflect.AccessorGenerator::emitBoxingContantPoolEntries@255 (line 282)
                      ;   {runtime_call throw_null_pointer_exception Runtime1 stub}
  0x000001e99a3b4fd8: b2fe e8c1 

  0x000001e99a3b4fdc: ; ImmutableOopMap {[120]=Oop rsi=Oop [216]=Oop rdx=Oop }
                      ;*invokeinterface add {reexecute=0 rethrow=0 return_oop=0}
                      ; - jdk.internal.reflect.ClassFileAssembler::emitByte@5 (line 74)
                      ; - jdk.internal.reflect.ClassFileAssembler::emitShort@10 (line 63)
                      ; - jdk.internal.reflect.ClassFileAssembler::emitConstantPoolNameAndType@8 (line 120)
                      ; - jdk.internal.reflect.AccessorGenerator::emitBoxingContantPoolEntries@255 (line 282)
                      ;   {runtime_call throw_incompatible_class_change_error Runtime1 stub}
  0x000001e99a3b4fdc: b4b2 fee8 

  0x000001e99a3b4fe0: ; ImmutableOopMap {[120]=Oop rsi=Oop [216]=Oop rdx=Oop }
                      ;*invokeinterface add {reexecute=0 rethrow=0 return_oop=0}
                      ; - jdk.internal.reflect.ClassFileAssembler::emitByte@5 (line 74)
                      ; - jdk.internal.reflect.ClassFileAssembler::emitShort@20 (line 64)
                      ; - jdk.internal.reflect.ClassFileAssembler::emitConstantPoolNameAndType@8 (line 120)
                      ; - jdk.internal.reflect.AccessorGenerator::emitBoxingContantPoolEntries@255 (line 282)
  0x000001e99a3b4fe0: bce7 b2fe 

  0x000001e99a3b4fe4: ;   {runtime_call throw_null_pointer_exception Runtime1 stub}
  0x000001e99a3b4fe4: e8b7 b4b2 

  0x000001e99a3b4fe8: ; ImmutableOopMap {[120]=Oop rsi=Oop [216]=Oop rdx=Oop }
                      ;*invokeinterface add {reexecute=0 rethrow=0 return_oop=0}
                      ; - jdk.internal.reflect.ClassFileAssembler::emitByte@5 (line 74)
                      ; - jdk.internal.reflect.ClassFileAssembler::emitShort@20 (line 64)
                      ; - jdk.internal.reflect.ClassFileAssembler::emitConstantPoolNameAndType@8 (line 120)
                      ; - jdk.internal.reflect.AccessorGenerator::emitBoxingContantPoolEntries@255 (line 282)
                      ;   {runtime_call throw_incompatible_class_change_error Runtime1 stub}
  0x000001e99a3b4fe8: fee8 b2e7 

  0x000001e99a3b4fec: ; ImmutableOopMap {[120]=Oop rsi=Oop [216]=Oop rdx=Oop }
                      ;*invokeinterface add {reexecute=0 rethrow=0 return_oop=0}
                      ; - jdk.internal.reflect.ClassFileAssembler::emitByte@5 (line 74)
                      ; - jdk.internal.reflect.ClassFileAssembler::emitShort@10 (line 63)
                      ; - jdk.internal.reflect.ClassFileAssembler::emitConstantPoolNameAndType@13 (line 121)
                      ; - jdk.internal.reflect.AccessorGenerator::emitBoxingContantPoolEntries@255 (line 282)
                      ;   {runtime_call throw_null_pointer_exception Runtime1 stub}
  0x000001e99a3b4fec: b2fe e8ad 

  0x000001e99a3b4ff0: ; ImmutableOopMap {[120]=Oop rsi=Oop [216]=Oop rdx=Oop }
                      ;*invokeinterface add {reexecute=0 rethrow=0 return_oop=0}
                      ; - jdk.internal.reflect.ClassFileAssembler::emitByte@5 (line 74)
                      ; - jdk.internal.reflect.ClassFileAssembler::emitShort@10 (line 63)
                      ; - jdk.internal.reflect.ClassFileAssembler::emitConstantPoolNameAndType@13 (line 121)
                      ; - jdk.internal.reflect.AccessorGenerator::emitBoxingContantPoolEntries@255 (line 282)
                      ;   {runtime_call throw_incompatible_class_change_error Runtime1 stub}
  0x000001e99a3b4ff0: b4b2 fee8 

  0x000001e99a3b4ff4: ; ImmutableOopMap {[120]=Oop rsi=Oop [216]=Oop rdx=Oop }
                      ;*invokeinterface add {reexecute=0 rethrow=0 return_oop=0}
                      ; - jdk.internal.reflect.ClassFileAssembler::emitByte@5 (line 74)
                      ; - jdk.internal.reflect.ClassFileAssembler::emitShort@20 (line 64)
                      ; - jdk.internal.reflect.ClassFileAssembler::emitConstantPoolNameAndType@13 (line 121)
                      ; - jdk.internal.reflect.AccessorGenerator::emitBoxingContantPoolEntries@255 (line 282)
  0x000001e99a3b4ff4: a8e7 b2fe 

  0x000001e99a3b4ff8: ;   {runtime_call throw_null_pointer_exception Runtime1 stub}
  0x000001e99a3b4ff8: e8a3 b4b2 

  0x000001e99a3b4ffc: ; ImmutableOopMap {[120]=Oop rsi=Oop [216]=Oop rdx=Oop }
                      ;*invokeinterface add {reexecute=0 rethrow=0 return_oop=0}
                      ; - jdk.internal.reflect.ClassFileAssembler::emitByte@5 (line 74)
                      ; - jdk.internal.reflect.ClassFileAssembler::emitShort@20 (line 64)
                      ; - jdk.internal.reflect.ClassFileAssembler::emitConstantPoolNameAndType@13 (line 121)
                      ; - jdk.internal.reflect.AccessorGenerator::emitBoxingContantPoolEntries@255 (line 282)
                      ;   {runtime_call throw_null_pointer_exception Runtime1 stub}
  0x000001e99a3b4ffc: fee8 9eb4 

  0x000001e99a3b5000: ; ImmutableOopMap {rdx=Oop [120]=Oop rsi=Oop [232]=Oop }
                      ;*invokevirtual cpi {reexecute=0 rethrow=0 return_oop=0}
                      ; - jdk.internal.reflect.AccessorGenerator::emitBoxingContantPoolEntries@266 (line 283)
                      ;   {runtime_call throw_incompatible_class_change_error Runtime1 stub}
  0x000001e99a3b5000: b2fe e899 

  0x000001e99a3b5004: ; ImmutableOopMap {rsi=Oop [232]=Oop [120]=Oop rax=Oop }
                      ;*invokeinterface add {reexecute=0 rethrow=0 return_oop=0}
                      ; - jdk.internal.reflect.ClassFileAssembler::emitByte@5 (line 74)
                      ; - jdk.internal.reflect.ClassFileAssembler::emitConstantPoolMethodref@3 (line 137)
                      ; - jdk.internal.reflect.AccessorGenerator::emitBoxingContantPoolEntries@280 (line 283)
                      ;   {runtime_call throw_null_pointer_exception Runtime1 stub}
  0x000001e99a3b5004: e7b2 fee8 

  0x000001e99a3b5008: ; ImmutableOopMap {rsi=Oop [232]=Oop [120]=Oop rax=Oop }
                      ;*invokeinterface add {reexecute=0 rethrow=0 return_oop=0}
                      ; - jdk.internal.reflect.ClassFileAssembler::emitByte@5 (line 74)
                      ; - jdk.internal.reflect.ClassFileAssembler::emitConstantPoolMethodref@3 (line 137)
                      ; - jdk.internal.reflect.AccessorGenerator::emitBoxingContantPoolEntries@280 (line 283)
  0x000001e99a3b5008: 94b4 b2fe 

  0x000001e99a3b500c: ;   {runtime_call throw_incompatible_class_change_error Runtime1 stub}
  0x000001e99a3b500c: e88f e7b2 

  0x000001e99a3b5010: ; ImmutableOopMap {[120]=Oop rsi=Oop [232]=Oop rdx=Oop }
                      ;*invokeinterface add {reexecute=0 rethrow=0 return_oop=0}
                      ; - jdk.internal.reflect.ClassFileAssembler::emitByte@5 (line 74)
                      ; - jdk.internal.reflect.ClassFileAssembler::emitShort@10 (line 63)
                      ; - jdk.internal.reflect.ClassFileAssembler::emitConstantPoolMethodref@8 (line 138)
                      ; - jdk.internal.reflect.AccessorGenerator::emitBoxingContantPoolEntries@280 (line 283)
                      ;   {runtime_call throw_null_pointer_exception Runtime1 stub}
  0x000001e99a3b5010: fee8 8ab4 

  0x000001e99a3b5014: ; ImmutableOopMap {[120]=Oop rsi=Oop [232]=Oop rdx=Oop }
                      ;*invokeinterface add {reexecute=0 rethrow=0 return_oop=0}
                      ; - jdk.internal.reflect.ClassFileAssembler::emitByte@5 (line 74)
                      ; - jdk.internal.reflect.ClassFileAssembler::emitShort@10 (line 63)
                      ; - jdk.internal.reflect.ClassFileAssembler::emitConstantPoolMethodref@8 (line 138)
                      ; - jdk.internal.reflect.AccessorGenerator::emitBoxingContantPoolEntries@280 (line 283)
                      ;   {runtime_call throw_incompatible_class_change_error Runtime1 stub}
  0x000001e99a3b5014: b2fe e885 

  0x000001e99a3b5018: ; ImmutableOopMap {[120]=Oop rsi=Oop [232]=Oop rdx=Oop }
                      ;*invokeinterface add {reexecute=0 rethrow=0 return_oop=0}
                      ; - jdk.internal.reflect.ClassFileAssembler::emitByte@5 (line 74)
                      ; - jdk.internal.reflect.ClassFileAssembler::emitShort@20 (line 64)
                      ; - jdk.internal.reflect.ClassFileAssembler::emitConstantPoolMethodref@8 (line 138)
                      ; - jdk.internal.reflect.AccessorGenerator::emitBoxingContantPoolEntries@280 (line 283)
                      ;   {runtime_call throw_null_pointer_exception Runtime1 stub}
  0x000001e99a3b5018: e7b2 fee8 

  0x000001e99a3b501c: ; ImmutableOopMap {[120]=Oop rsi=Oop [232]=Oop rdx=Oop }
                      ;*invokeinterface add {reexecute=0 rethrow=0 return_oop=0}
                      ; - jdk.internal.reflect.ClassFileAssembler::emitByte@5 (line 74)
                      ; - jdk.internal.reflect.ClassFileAssembler::emitShort@20 (line 64)
                      ; - jdk.internal.reflect.ClassFileAssembler::emitConstantPoolMethodref@8 (line 138)
                      ; - jdk.internal.reflect.AccessorGenerator::emitBoxingContantPoolEntries@280 (line 283)
  0x000001e99a3b501c: 80b4 b2fe 

  0x000001e99a3b5020: ;   {runtime_call throw_incompatible_class_change_error Runtime1 stub}
  0x000001e99a3b5020: e87b e7b2 

  0x000001e99a3b5024: ; ImmutableOopMap {[120]=Oop rsi=Oop [232]=Oop rdx=Oop }
                      ;*invokeinterface add {reexecute=0 rethrow=0 return_oop=0}
                      ; - jdk.internal.reflect.ClassFileAssembler::emitByte@5 (line 74)
                      ; - jdk.internal.reflect.ClassFileAssembler::emitShort@10 (line 63)
                      ; - jdk.internal.reflect.ClassFileAssembler::emitConstantPoolMethodref@13 (line 139)
                      ; - jdk.internal.reflect.AccessorGenerator::emitBoxingContantPoolEntries@280 (line 283)
                      ;   {runtime_call throw_null_pointer_exception Runtime1 stub}
  0x000001e99a3b5024: fee8 76b4 

  0x000001e99a3b5028: ; ImmutableOopMap {[120]=Oop rsi=Oop [232]=Oop rdx=Oop }
                      ;*invokeinterface add {reexecute=0 rethrow=0 return_oop=0}
                      ; - jdk.internal.reflect.ClassFileAssembler::emitByte@5 (line 74)
                      ; - jdk.internal.reflect.ClassFileAssembler::emitShort@10 (line 63)
                      ; - jdk.internal.reflect.ClassFileAssembler::emitConstantPoolMethodref@13 (line 139)
                      ; - jdk.internal.reflect.AccessorGenerator::emitBoxingContantPoolEntries@280 (line 283)
                      ;   {runtime_call throw_incompatible_class_change_error Runtime1 stub}
  0x000001e99a3b5028: b2fe e871 

  0x000001e99a3b502c: ; ImmutableOopMap {[120]=Oop rsi=Oop [232]=Oop rdx=Oop }
                      ;*invokeinterface add {reexecute=0 rethrow=0 return_oop=0}
                      ; - jdk.internal.reflect.ClassFileAssembler::emitByte@5 (line 74)
                      ; - jdk.internal.reflect.ClassFileAssembler::emitShort@20 (line 64)
                      ; - jdk.internal.reflect.ClassFileAssembler::emitConstantPoolMethodref@13 (line 139)
                      ; - jdk.internal.reflect.AccessorGenerator::emitBoxingContantPoolEntries@280 (line 283)
                      ;   {runtime_call throw_null_pointer_exception Runtime1 stub}
  0x000001e99a3b502c: e7b2 fee8 

  0x000001e99a3b5030: ; ImmutableOopMap {[120]=Oop rsi=Oop [232]=Oop rdx=Oop }
                      ;*invokeinterface add {reexecute=0 rethrow=0 return_oop=0}
                      ; - jdk.internal.reflect.ClassFileAssembler::emitByte@5 (line 74)
                      ; - jdk.internal.reflect.ClassFileAssembler::emitShort@20 (line 64)
                      ; - jdk.internal.reflect.ClassFileAssembler::emitConstantPoolMethodref@13 (line 139)
                      ; - jdk.internal.reflect.AccessorGenerator::emitBoxingContantPoolEntries@280 (line 283)
  0x000001e99a3b5030: 6cb4 b2fe 

  0x000001e99a3b5034: ;   {runtime_call throw_null_pointer_exception Runtime1 stub}
  0x000001e99a3b5034: e867 b4b2 

  0x000001e99a3b5038: ; ImmutableOopMap {rdx=Oop [120]=Oop rsi=Oop }
                      ;*invokevirtual cpi {reexecute=0 rethrow=0 return_oop=0}
                      ; - jdk.internal.reflect.AccessorGenerator::emitBoxingContantPoolEntries@288 (line 284)
                      ;   {runtime_call throw_null_pointer_exception Runtime1 stub}
  0x000001e99a3b5038: fee8 62b4 

  0x000001e99a3b503c: ; ImmutableOopMap {rdx=Oop [120]=Oop rsi=Oop }
                      ;*invokevirtual emitConstantPoolUTF8 {reexecute=0 rethrow=0 return_oop=0}
                      ; - jdk.internal.reflect.AccessorGenerator::emitBoxingContantPoolEntries@309 (line 286)
                      ;   {runtime_call throw_null_pointer_exception Runtime1 stub}
  0x000001e99a3b503c: b2fe e85d 

  0x000001e99a3b5040: ; ImmutableOopMap {rdx=Oop [120]=Oop rsi=Oop [248]=Oop }
                      ;*invokevirtual cpi {reexecute=0 rethrow=0 return_oop=0}
                      ; - jdk.internal.reflect.AccessorGenerator::emitBoxingContantPoolEntries@320 (line 287)
                      ;   {runtime_call throw_incompatible_class_change_error Runtime1 stub}
  0x000001e99a3b5040: b4b2 fee8 

  0x000001e99a3b5044: ; ImmutableOopMap {rsi=Oop [248]=Oop [120]=Oop rax=Oop }
                      ;*invokeinterface add {reexecute=0 rethrow=0 return_oop=0}
                      ; - jdk.internal.reflect.ClassFileAssembler::emitByte@5 (line 74)
                      ; - jdk.internal.reflect.ClassFileAssembler::emitConstantPoolNameAndType@3 (line 119)
                      ; - jdk.internal.reflect.AccessorGenerator::emitBoxingContantPoolEntries@334 (line 287)
  0x000001e99a3b5044: 58e7 b2fe 

  0x000001e99a3b5048: ;   {runtime_call throw_null_pointer_exception Runtime1 stub}
  0x000001e99a3b5048: e853 b4b2 

  0x000001e99a3b504c: ; ImmutableOopMap {rsi=Oop [248]=Oop [120]=Oop rax=Oop }
                      ;*invokeinterface add {reexecute=0 rethrow=0 return_oop=0}
                      ; - jdk.internal.reflect.ClassFileAssembler::emitByte@5 (line 74)
                      ; - jdk.internal.reflect.ClassFileAssembler::emitConstantPoolNameAndType@3 (line 119)
                      ; - jdk.internal.reflect.AccessorGenerator::emitBoxingContantPoolEntries@334 (line 287)
                      ;   {runtime_call throw_incompatible_class_change_error Runtime1 stub}
  0x000001e99a3b504c: fee8 4ee7 

  0x000001e99a3b5050: ; ImmutableOopMap {[120]=Oop rsi=Oop [248]=Oop rdx=Oop }
                      ;*invokeinterface add {reexecute=0 rethrow=0 return_oop=0}
                      ; - jdk.internal.reflect.ClassFileAssembler::emitByte@5 (line 74)
                      ; - jdk.internal.reflect.ClassFileAssembler::emitShort@10 (line 63)
                      ; - jdk.internal.reflect.ClassFileAssembler::emitConstantPoolNameAndType@8 (line 120)
                      ; - jdk.internal.reflect.AccessorGenerator::emitBoxingContantPoolEntries@334 (line 287)
                      ;   {runtime_call throw_null_pointer_exception Runtime1 stub}
  0x000001e99a3b5050: b2fe e849 

  0x000001e99a3b5054: ; ImmutableOopMap {[120]=Oop rsi=Oop [248]=Oop rdx=Oop }
                      ;*invokeinterface add {reexecute=0 rethrow=0 return_oop=0}
                      ; - jdk.internal.reflect.ClassFileAssembler::emitByte@5 (line 74)
                      ; - jdk.internal.reflect.ClassFileAssembler::emitShort@10 (line 63)
                      ; - jdk.internal.reflect.ClassFileAssembler::emitConstantPoolNameAndType@8 (line 120)
                      ; - jdk.internal.reflect.AccessorGenerator::emitBoxingContantPoolEntries@334 (line 287)
                      ;   {runtime_call throw_incompatible_class_change_error Runtime1 stub}
  0x000001e99a3b5054: b4b2 fee8 

  0x000001e99a3b5058: ; ImmutableOopMap {[120]=Oop rsi=Oop [248]=Oop rdx=Oop }
                      ;*invokeinterface add {reexecute=0 rethrow=0 return_oop=0}
                      ; - jdk.internal.reflect.ClassFileAssembler::emitByte@5 (line 74)
                      ; - jdk.internal.reflect.ClassFileAssembler::emitShort@20 (line 64)
                      ; - jdk.internal.reflect.ClassFileAssembler::emitConstantPoolNameAndType@8 (line 120)
                      ; - jdk.internal.reflect.AccessorGenerator::emitBoxingContantPoolEntries@334 (line 287)
  0x000001e99a3b5058: 44e7 b2fe 

  0x000001e99a3b505c: ;   {runtime_call throw_null_pointer_exception Runtime1 stub}
  0x000001e99a3b505c: e83f b4b2 

  0x000001e99a3b5060: ; ImmutableOopMap {[120]=Oop rsi=Oop [248]=Oop rdx=Oop }
                      ;*invokeinterface add {reexecute=0 rethrow=0 return_oop=0}
                      ; - jdk.internal.reflect.ClassFileAssembler::emitByte@5 (line 74)
                      ; - jdk.internal.reflect.ClassFileAssembler::emitShort@20 (line 64)
                      ; - jdk.internal.reflect.ClassFileAssembler::emitConstantPoolNameAndType@8 (line 120)
                      ; - jdk.internal.reflect.AccessorGenerator::emitBoxingContantPoolEntries@334 (line 287)
                      ;   {runtime_call throw_incompatible_class_change_error Runtime1 stub}
  0x000001e99a3b5060: fee8 3ae7 

  0x000001e99a3b5064: ; ImmutableOopMap {[120]=Oop rsi=Oop [248]=Oop rdx=Oop }
                      ;*invokeinterface add {reexecute=0 rethrow=0 return_oop=0}
                      ; - jdk.internal.reflect.ClassFileAssembler::emitByte@5 (line 74)
                      ; - jdk.internal.reflect.ClassFileAssembler::emitShort@10 (line 63)
                      ; - jdk.internal.reflect.ClassFileAssembler::emitConstantPoolNameAndType@13 (line 121)
                      ; - jdk.internal.reflect.AccessorGenerator::emitBoxingContantPoolEntries@334 (line 287)
                      ;   {runtime_call throw_null_pointer_exception Runtime1 stub}
  0x000001e99a3b5064: b2fe e835 

  0x000001e99a3b5068: ; ImmutableOopMap {[120]=Oop rsi=Oop [248]=Oop rdx=Oop }
                      ;*invokeinterface add {reexecute=0 rethrow=0 return_oop=0}
                      ; - jdk.internal.reflect.ClassFileAssembler::emitByte@5 (line 74)
                      ; - jdk.internal.reflect.ClassFileAssembler::emitShort@10 (line 63)
                      ; - jdk.internal.reflect.ClassFileAssembler::emitConstantPoolNameAndType@13 (line 121)
                      ; - jdk.internal.reflect.AccessorGenerator::emitBoxingContantPoolEntries@334 (line 287)
                      ;   {runtime_call throw_incompatible_class_change_error Runtime1 stub}
  0x000001e99a3b5068: b4b2 fee8 

  0x000001e99a3b506c: ; ImmutableOopMap {[120]=Oop rsi=Oop [248]=Oop rdx=Oop }
                      ;*invokeinterface add {reexecute=0 rethrow=0 return_oop=0}
                      ; - jdk.internal.reflect.ClassFileAssembler::emitByte@5 (line 74)
                      ; - jdk.internal.reflect.ClassFileAssembler::emitShort@20 (line 64)
                      ; - jdk.internal.reflect.ClassFileAssembler::emitConstantPoolNameAndType@13 (line 121)
                      ; - jdk.internal.reflect.AccessorGenerator::emitBoxingContantPoolEntries@334 (line 287)
  0x000001e99a3b506c: 30e7 b2fe 

  0x000001e99a3b5070: ;   {runtime_call throw_null_pointer_exception Runtime1 stub}
  0x000001e99a3b5070: e82b b4b2 

  0x000001e99a3b5074: ; ImmutableOopMap {[120]=Oop rsi=Oop [248]=Oop rdx=Oop }
                      ;*invokeinterface add {reexecute=0 rethrow=0 return_oop=0}
                      ; - jdk.internal.reflect.ClassFileAssembler::emitByte@5 (line 74)
                      ; - jdk.internal.reflect.ClassFileAssembler::emitShort@20 (line 64)
                      ; - jdk.internal.reflect.ClassFileAssembler::emitConstantPoolNameAndType@13 (line 121)
                      ; - jdk.internal.reflect.AccessorGenerator::emitBoxingContantPoolEntries@334 (line 287)
                      ;   {runtime_call throw_null_pointer_exception Runtime1 stub}
  0x000001e99a3b5074: fee8 26b4 

  0x000001e99a3b5078: ; ImmutableOopMap {rdx=Oop [120]=Oop rsi=Oop [264]=Oop }
                      ;*invokevirtual cpi {reexecute=0 rethrow=0 return_oop=0}
                      ; - jdk.internal.reflect.AccessorGenerator::emitBoxingContantPoolEntries@345 (line 288)
                      ;   {runtime_call throw_incompatible_class_change_error Runtime1 stub}
  0x000001e99a3b5078: b2fe e821 

  0x000001e99a3b507c: ; ImmutableOopMap {rsi=Oop [264]=Oop [120]=Oop rax=Oop }
                      ;*invokeinterface add {reexecute=0 rethrow=0 return_oop=0}
                      ; - jdk.internal.reflect.ClassFileAssembler::emitByte@5 (line 74)
                      ; - jdk.internal.reflect.ClassFileAssembler::emitConstantPoolMethodref@3 (line 137)
                      ; - jdk.internal.reflect.AccessorGenerator::emitBoxingContantPoolEntries@360 (line 288)
                      ;   {runtime_call throw_null_pointer_exception Runtime1 stub}
  0x000001e99a3b507c: e7b2 fee8 

  0x000001e99a3b5080: ; ImmutableOopMap {rsi=Oop [264]=Oop [120]=Oop rax=Oop }
                      ;*invokeinterface add {reexecute=0 rethrow=0 return_oop=0}
                      ; - jdk.internal.reflect.ClassFileAssembler::emitByte@5 (line 74)
                      ; - jdk.internal.reflect.ClassFileAssembler::emitConstantPoolMethodref@3 (line 137)
                      ; - jdk.internal.reflect.AccessorGenerator::emitBoxingContantPoolEntries@360 (line 288)
  0x000001e99a3b5080: 1cb4 b2fe 

  0x000001e99a3b5084: ;   {runtime_call throw_incompatible_class_change_error Runtime1 stub}
  0x000001e99a3b5084: e817 e7b2 

  0x000001e99a3b5088: ; ImmutableOopMap {[120]=Oop rsi=Oop [264]=Oop rdx=Oop }
                      ;*invokeinterface add {reexecute=0 rethrow=0 return_oop=0}
                      ; - jdk.internal.reflect.ClassFileAssembler::emitByte@5 (line 74)
                      ; - jdk.internal.reflect.ClassFileAssembler::emitShort@10 (line 63)
                      ; - jdk.internal.reflect.ClassFileAssembler::emitConstantPoolMethodref@8 (line 138)
                      ; - jdk.internal.reflect.AccessorGenerator::emitBoxingContantPoolEntries@360 (line 288)
                      ;   {runtime_call throw_null_pointer_exception Runtime1 stub}
  0x000001e99a3b5088: fee8 12b4 

  0x000001e99a3b508c: ; ImmutableOopMap {[120]=Oop rsi=Oop [264]=Oop rdx=Oop }
                      ;*invokeinterface add {reexecute=0 rethrow=0 return_oop=0}
                      ; - jdk.internal.reflect.ClassFileAssembler::emitByte@5 (line 74)
                      ; - jdk.internal.reflect.ClassFileAssembler::emitShort@10 (line 63)
                      ; - jdk.internal.reflect.ClassFileAssembler::emitConstantPoolMethodref@8 (line 138)
                      ; - jdk.internal.reflect.AccessorGenerator::emitBoxingContantPoolEntries@360 (line 288)
                      ;   {runtime_call throw_incompatible_class_change_error Runtime1 stub}
  0x000001e99a3b508c: b2fe e80d 

  0x000001e99a3b5090: ; ImmutableOopMap {[120]=Oop rsi=Oop [264]=Oop rdx=Oop }
                      ;*invokeinterface add {reexecute=0 rethrow=0 return_oop=0}
                      ; - jdk.internal.reflect.ClassFileAssembler::emitByte@5 (line 74)
                      ; - jdk.internal.reflect.ClassFileAssembler::emitShort@20 (line 64)
                      ; - jdk.internal.reflect.ClassFileAssembler::emitConstantPoolMethodref@8 (line 138)
                      ; - jdk.internal.reflect.AccessorGenerator::emitBoxingContantPoolEntries@360 (line 288)
                      ;   {runtime_call throw_null_pointer_exception Runtime1 stub}
  0x000001e99a3b5090: e7b2 fee8 

  0x000001e99a3b5094: ; ImmutableOopMap {[120]=Oop rsi=Oop [264]=Oop rdx=Oop }
                      ;*invokeinterface add {reexecute=0 rethrow=0 return_oop=0}
                      ; - jdk.internal.reflect.ClassFileAssembler::emitByte@5 (line 74)
                      ; - jdk.internal.reflect.ClassFileAssembler::emitShort@20 (line 64)
                      ; - jdk.internal.reflect.ClassFileAssembler::emitConstantPoolMethodref@8 (line 138)
                      ; - jdk.internal.reflect.AccessorGenerator::emitBoxingContantPoolEntries@360 (line 288)
  0x000001e99a3b5094: 08b4 b2fe 

  0x000001e99a3b5098: ;   {runtime_call throw_incompatible_class_change_error Runtime1 stub}
  0x000001e99a3b5098: e803 e7b2 

  0x000001e99a3b509c: ; ImmutableOopMap {[120]=Oop rsi=Oop [264]=Oop rdx=Oop }
                      ;*invokeinterface add {reexecute=0 rethrow=0 return_oop=0}
                      ; - jdk.internal.reflect.ClassFileAssembler::emitByte@5 (line 74)
                      ; - jdk.internal.reflect.ClassFileAssembler::emitShort@10 (line 63)
                      ; - jdk.internal.reflect.ClassFileAssembler::emitConstantPoolMethodref@13 (line 139)
                      ; - jdk.internal.reflect.AccessorGenerator::emitBoxingContantPoolEntries@360 (line 288)
                      ;   {runtime_call throw_null_pointer_exception Runtime1 stub}
  0x000001e99a3b509c: fee8 feb3 

  0x000001e99a3b50a0: ; ImmutableOopMap {[120]=Oop rsi=Oop [264]=Oop rdx=Oop }
                      ;*invokeinterface add {reexecute=0 rethrow=0 return_oop=0}
                      ; - jdk.internal.reflect.ClassFileAssembler::emitByte@5 (line 74)
                      ; - jdk.internal.reflect.ClassFileAssembler::emitShort@10 (line 63)
                      ; - jdk.internal.reflect.ClassFileAssembler::emitConstantPoolMethodref@13 (line 139)
                      ; - jdk.internal.reflect.AccessorGenerator::emitBoxingContantPoolEntries@360 (line 288)
                      ;   {runtime_call throw_incompatible_class_change_error Runtime1 stub}
  0x000001e99a3b50a0: b2fe e8f9 

  0x000001e99a3b50a4: ; ImmutableOopMap {[120]=Oop rsi=Oop [264]=Oop rdx=Oop }
                      ;*invokeinterface add {reexecute=0 rethrow=0 return_oop=0}
                      ; - jdk.internal.reflect.ClassFileAssembler::emitByte@5 (line 74)
                      ; - jdk.internal.reflect.ClassFileAssembler::emitShort@20 (line 64)
                      ; - jdk.internal.reflect.ClassFileAssembler::emitConstantPoolMethodref@13 (line 139)
                      ; - jdk.internal.reflect.AccessorGenerator::emitBoxingContantPoolEntries@360 (line 288)
                      ;   {runtime_call throw_null_pointer_exception Runtime1 stub}
  0x000001e99a3b50a4: e6b2 fee8 

  0x000001e99a3b50a8: ; ImmutableOopMap {[120]=Oop rsi=Oop [264]=Oop rdx=Oop }
                      ;*invokeinterface add {reexecute=0 rethrow=0 return_oop=0}
                      ; - jdk.internal.reflect.ClassFileAssembler::emitByte@5 (line 74)
                      ; - jdk.internal.reflect.ClassFileAssembler::emitShort@20 (line 64)
                      ; - jdk.internal.reflect.ClassFileAssembler::emitConstantPoolMethodref@13 (line 139)
                      ; - jdk.internal.reflect.AccessorGenerator::emitBoxingContantPoolEntries@360 (line 288)
  0x000001e99a3b50a8: f4b3 b2fe 

  0x000001e99a3b50ac: ;   {runtime_call throw_null_pointer_exception Runtime1 stub}
  0x000001e99a3b50ac: e8ef b3b2 

  0x000001e99a3b50b0: ; ImmutableOopMap {rdx=Oop [120]=Oop rsi=Oop }
                      ;*invokevirtual cpi {reexecute=0 rethrow=0 return_oop=0}
                      ; - jdk.internal.reflect.AccessorGenerator::emitBoxingContantPoolEntries@368 (line 289)
                      ;   {runtime_call throw_null_pointer_exception Runtime1 stub}
  0x000001e99a3b50b0: fee8 eab3 

  0x000001e99a3b50b4: ; ImmutableOopMap {rdx=Oop [120]=Oop rsi=Oop [280]=Oop }
                      ;*invokevirtual cpi {reexecute=0 rethrow=0 return_oop=0}
                      ; - jdk.internal.reflect.AccessorGenerator::emitBoxingContantPoolEntries@391 (line 293)
                      ;   {runtime_call throw_incompatible_class_change_error Runtime1 stub}
  0x000001e99a3b50b4: b2fe e8e5 

  0x000001e99a3b50b8: ; ImmutableOopMap {rsi=Oop [280]=Oop [120]=Oop rdi=Oop }
                      ;*invokeinterface add {reexecute=0 rethrow=0 return_oop=0}
                      ; - jdk.internal.reflect.ClassFileAssembler::emitByte@5 (line 74)
                      ; - jdk.internal.reflect.ClassFileAssembler::emitConstantPoolClass@3 (line 113)
                      ; - jdk.internal.reflect.AccessorGenerator::emitBoxingContantPoolEntries@394 (line 293)
                      ;   {runtime_call throw_null_pointer_exception Runtime1 stub}
  0x000001e99a3b50b8: e6b2 fee8 

  0x000001e99a3b50bc: ; ImmutableOopMap {rsi=Oop [280]=Oop [120]=Oop rdi=Oop }
                      ;*invokeinterface add {reexecute=0 rethrow=0 return_oop=0}
                      ; - jdk.internal.reflect.ClassFileAssembler::emitByte@5 (line 74)
                      ; - jdk.internal.reflect.ClassFileAssembler::emitConstantPoolClass@3 (line 113)
                      ; - jdk.internal.reflect.AccessorGenerator::emitBoxingContantPoolEntries@394 (line 293)
  0x000001e99a3b50bc: e0b3 b2fe 

  0x000001e99a3b50c0: ;   {runtime_call throw_incompatible_class_change_error Runtime1 stub}
  0x000001e99a3b50c0: e8db e6b2 

  0x000001e99a3b50c4: ; ImmutableOopMap {[120]=Oop rsi=Oop [280]=Oop rdx=Oop }
                      ;*invokeinterface add {reexecute=0 rethrow=0 return_oop=0}
                      ; - jdk.internal.reflect.ClassFileAssembler::emitByte@5 (line 74)
                      ; - jdk.internal.reflect.ClassFileAssembler::emitShort@10 (line 63)
                      ; - jdk.internal.reflect.ClassFileAssembler::emitConstantPoolClass@8 (line 114)
                      ; - jdk.internal.reflect.AccessorGenerator::emitBoxingContantPoolEntries@394 (line 293)
                      ;   {runtime_call throw_null_pointer_exception Runtime1 stub}
  0x000001e99a3b50c4: fee8 d6b3 

  0x000001e99a3b50c8: ; ImmutableOopMap {[120]=Oop rsi=Oop [280]=Oop rdx=Oop }
                      ;*invokeinterface add {reexecute=0 rethrow=0 return_oop=0}
                      ; - jdk.internal.reflect.ClassFileAssembler::emitByte@5 (line 74)
                      ; - jdk.internal.reflect.ClassFileAssembler::emitShort@10 (line 63)
                      ; - jdk.internal.reflect.ClassFileAssembler::emitConstantPoolClass@8 (line 114)
                      ; - jdk.internal.reflect.AccessorGenerator::emitBoxingContantPoolEntries@394 (line 293)
                      ;   {runtime_call throw_incompatible_class_change_error Runtime1 stub}
  0x000001e99a3b50c8: b2fe e8d1 

  0x000001e99a3b50cc: ; ImmutableOopMap {[120]=Oop rsi=Oop [280]=Oop rdx=Oop }
                      ;*invokeinterface add {reexecute=0 rethrow=0 return_oop=0}
                      ; - jdk.internal.reflect.ClassFileAssembler::emitByte@5 (line 74)
                      ; - jdk.internal.reflect.ClassFileAssembler::emitShort@20 (line 64)
                      ; - jdk.internal.reflect.ClassFileAssembler::emitConstantPoolClass@8 (line 114)
                      ; - jdk.internal.reflect.AccessorGenerator::emitBoxingContantPoolEntries@394 (line 293)
                      ;   {runtime_call throw_null_pointer_exception Runtime1 stub}
  0x000001e99a3b50cc: e6b2 fee8 

  0x000001e99a3b50d0: ; ImmutableOopMap {[120]=Oop rsi=Oop [280]=Oop rdx=Oop }
                      ;*invokeinterface add {reexecute=0 rethrow=0 return_oop=0}
                      ; - jdk.internal.reflect.ClassFileAssembler::emitByte@5 (line 74)
                      ; - jdk.internal.reflect.ClassFileAssembler::emitShort@20 (line 64)
                      ; - jdk.internal.reflect.ClassFileAssembler::emitConstantPoolClass@8 (line 114)
                      ; - jdk.internal.reflect.AccessorGenerator::emitBoxingContantPoolEntries@394 (line 293)
  0x000001e99a3b50d0: ccb3 b2fe 

  0x000001e99a3b50d4: ;   {runtime_call throw_null_pointer_exception Runtime1 stub}
  0x000001e99a3b50d4: e8c7 b3b2 

  0x000001e99a3b50d8: ; ImmutableOopMap {rdx=Oop [120]=Oop rsi=Oop }
                      ;*invokevirtual cpi {reexecute=0 rethrow=0 return_oop=0}
                      ; - jdk.internal.reflect.AccessorGenerator::emitBoxingContantPoolEntries@402 (line 294)
                      ;   {runtime_call throw_null_pointer_exception Runtime1 stub}
  0x000001e99a3b50d8: fee8 c2b3 

  0x000001e99a3b50dc: ; ImmutableOopMap {rdx=Oop [120]=Oop rsi=Oop [296]=Oop }
                      ;*invokevirtual cpi {reexecute=0 rethrow=0 return_oop=0}
                      ; - jdk.internal.reflect.AccessorGenerator::emitBoxingContantPoolEntries@429 (line 296)
                      ;   {runtime_call throw_incompatible_class_change_error Runtime1 stub}
  0x000001e99a3b50dc: b2fe e8bd 

  0x000001e99a3b50e0: ; ImmutableOopMap {rsi=Oop [296]=Oop [120]=Oop rbx=Oop }
                      ;*invokeinterface add {reexecute=0 rethrow=0 return_oop=0}
                      ; - jdk.internal.reflect.ClassFileAssembler::emitByte@5 (line 74)
                      ; - jdk.internal.reflect.ClassFileAssembler::emitConstantPoolNameAndType@3 (line 119)
                      ; - jdk.internal.reflect.AccessorGenerator::emitBoxingContantPoolEntries@432 (line 296)
                      ;   {runtime_call throw_null_pointer_exception Runtime1 stub}
  0x000001e99a3b50e0: e6b2 fee8 

  0x000001e99a3b50e4: ; ImmutableOopMap {rsi=Oop [296]=Oop [120]=Oop rbx=Oop }
                      ;*invokeinterface add {reexecute=0 rethrow=0 return_oop=0}
                      ; - jdk.internal.reflect.ClassFileAssembler::emitByte@5 (line 74)
                      ; - jdk.internal.reflect.ClassFileAssembler::emitConstantPoolNameAndType@3 (line 119)
                      ; - jdk.internal.reflect.AccessorGenerator::emitBoxingContantPoolEntries@432 (line 296)
  0x000001e99a3b50e4: b8b3 b2fe 

  0x000001e99a3b50e8: ;   {runtime_call throw_incompatible_class_change_error Runtime1 stub}
  0x000001e99a3b50e8: e8b3 e6b2 

  0x000001e99a3b50ec: ; ImmutableOopMap {[120]=Oop rsi=Oop [296]=Oop rdx=Oop }
                      ;*invokeinterface add {reexecute=0 rethrow=0 return_oop=0}
                      ; - jdk.internal.reflect.ClassFileAssembler::emitByte@5 (line 74)
                      ; - jdk.internal.reflect.ClassFileAssembler::emitShort@10 (line 63)
                      ; - jdk.internal.reflect.ClassFileAssembler::emitConstantPoolNameAndType@8 (line 120)
                      ; - jdk.internal.reflect.AccessorGenerator::emitBoxingContantPoolEntries@432 (line 296)
                      ;   {runtime_call throw_null_pointer_exception Runtime1 stub}
  0x000001e99a3b50ec: fee8 aeb3 

  0x000001e99a3b50f0: ; ImmutableOopMap {[120]=Oop rsi=Oop [296]=Oop rdx=Oop }
                      ;*invokeinterface add {reexecute=0 rethrow=0 return_oop=0}
                      ; - jdk.internal.reflect.ClassFileAssembler::emitByte@5 (line 74)
                      ; - jdk.internal.reflect.ClassFileAssembler::emitShort@10 (line 63)
                      ; - jdk.internal.reflect.ClassFileAssembler::emitConstantPoolNameAndType@8 (line 120)
                      ; - jdk.internal.reflect.AccessorGenerator::emitBoxingContantPoolEntries@432 (line 296)
                      ;   {runtime_call throw_incompatible_class_change_error Runtime1 stub}
  0x000001e99a3b50f0: b2fe e8a9 

  0x000001e99a3b50f4: ; ImmutableOopMap {[120]=Oop rsi=Oop [296]=Oop rdx=Oop }
                      ;*invokeinterface add {reexecute=0 rethrow=0 return_oop=0}
                      ; - jdk.internal.reflect.ClassFileAssembler::emitByte@5 (line 74)
                      ; - jdk.internal.reflect.ClassFileAssembler::emitShort@20 (line 64)
                      ; - jdk.internal.reflect.ClassFileAssembler::emitConstantPoolNameAndType@8 (line 120)
                      ; - jdk.internal.reflect.AccessorGenerator::emitBoxingContantPoolEntries@432 (line 296)
                      ;   {runtime_call throw_null_pointer_exception Runtime1 stub}
  0x000001e99a3b50f4: e6b2 fee8 

  0x000001e99a3b50f8: ; ImmutableOopMap {[120]=Oop rsi=Oop [296]=Oop rdx=Oop }
                      ;*invokeinterface add {reexecute=0 rethrow=0 return_oop=0}
                      ; - jdk.internal.reflect.ClassFileAssembler::emitByte@5 (line 74)
                      ; - jdk.internal.reflect.ClassFileAssembler::emitShort@20 (line 64)
                      ; - jdk.internal.reflect.ClassFileAssembler::emitConstantPoolNameAndType@8 (line 120)
                      ; - jdk.internal.reflect.AccessorGenerator::emitBoxingContantPoolEntries@432 (line 296)
  0x000001e99a3b50f8: a4b3 b2fe 

  0x000001e99a3b50fc: ;   {runtime_call throw_incompatible_class_change_error Runtime1 stub}
  0x000001e99a3b50fc: e89f e6b2 

  0x000001e99a3b5100: ; ImmutableOopMap {[120]=Oop rsi=Oop [296]=Oop rdx=Oop }
                      ;*invokeinterface add {reexecute=0 rethrow=0 return_oop=0}
                      ; - jdk.internal.reflect.ClassFileAssembler::emitByte@5 (line 74)
                      ; - jdk.internal.reflect.ClassFileAssembler::emitShort@10 (line 63)
                      ; - jdk.internal.reflect.ClassFileAssembler::emitConstantPoolNameAndType@13 (line 121)
                      ; - jdk.internal.reflect.AccessorGenerator::emitBoxingContantPoolEntries@432 (line 296)
                      ;   {runtime_call throw_null_pointer_exception Runtime1 stub}
  0x000001e99a3b5100: fee8 9ab3 

  0x000001e99a3b5104: ; ImmutableOopMap {[120]=Oop rsi=Oop [296]=Oop rdx=Oop }
                      ;*invokeinterface add {reexecute=0 rethrow=0 return_oop=0}
                      ; - jdk.internal.reflect.ClassFileAssembler::emitByte@5 (line 74)
                      ; - jdk.internal.reflect.ClassFileAssembler::emitShort@10 (line 63)
                      ; - jdk.internal.reflect.ClassFileAssembler::emitConstantPoolNameAndType@13 (line 121)
                      ; - jdk.internal.reflect.AccessorGenerator::emitBoxingContantPoolEntries@432 (line 296)
                      ;   {runtime_call throw_incompatible_class_change_error Runtime1 stub}
  0x000001e99a3b5104: b2fe e895 

  0x000001e99a3b5108: ; ImmutableOopMap {[120]=Oop rsi=Oop [296]=Oop rdx=Oop }
                      ;*invokeinterface add {reexecute=0 rethrow=0 return_oop=0}
                      ; - jdk.internal.reflect.ClassFileAssembler::emitByte@5 (line 74)
                      ; - jdk.internal.reflect.ClassFileAssembler::emitShort@20 (line 64)
                      ; - jdk.internal.reflect.ClassFileAssembler::emitConstantPoolNameAndType@13 (line 121)
                      ; - jdk.internal.reflect.AccessorGenerator::emitBoxingContantPoolEntries@432 (line 296)
                      ;   {runtime_call throw_null_pointer_exception Runtime1 stub}
  0x000001e99a3b5108: e6b2 fee8 

  0x000001e99a3b510c: ; ImmutableOopMap {[120]=Oop rsi=Oop [296]=Oop rdx=Oop }
                      ;*invokeinterface add {reexecute=0 rethrow=0 return_oop=0}
                      ; - jdk.internal.reflect.ClassFileAssembler::emitByte@5 (line 74)
                      ; - jdk.internal.reflect.ClassFileAssembler::emitShort@20 (line 64)
                      ; - jdk.internal.reflect.ClassFileAssembler::emitConstantPoolNameAndType@13 (line 121)
                      ; - jdk.internal.reflect.AccessorGenerator::emitBoxingContantPoolEntries@432 (line 296)
  0x000001e99a3b510c: 90b3 b2fe 

  0x000001e99a3b5110: ;   {runtime_call throw_null_pointer_exception Runtime1 stub}
  0x000001e99a3b5110: e88b b3b2 

  0x000001e99a3b5114: ; ImmutableOopMap {rdx=Oop [120]=Oop rsi=Oop [312]=Oop }
                      ;*invokevirtual cpi {reexecute=0 rethrow=0 return_oop=0}
                      ; - jdk.internal.reflect.AccessorGenerator::emitBoxingContantPoolEntries@443 (line 297)
                      ;   {runtime_call throw_incompatible_class_change_error Runtime1 stub}
  0x000001e99a3b5114: fee8 86e6 

  0x000001e99a3b5118: ; ImmutableOopMap {rsi=Oop [312]=Oop [120]=Oop rax=Oop }
                      ;*invokeinterface add {reexecute=0 rethrow=0 return_oop=0}
                      ; - jdk.internal.reflect.ClassFileAssembler::emitByte@5 (line 74)
                      ; - jdk.internal.reflect.ClassFileAssembler::emitConstantPoolMethodref@3 (line 137)
                      ; - jdk.internal.reflect.AccessorGenerator::emitBoxingContantPoolEntries@457 (line 297)
                      ;   {runtime_call throw_null_pointer_exception Runtime1 stub}
  0x000001e99a3b5118: b2fe e881 

  0x000001e99a3b511c: ; ImmutableOopMap {rsi=Oop [312]=Oop [120]=Oop rax=Oop }
                      ;*invokeinterface add {reexecute=0 rethrow=0 return_oop=0}
                      ; - jdk.internal.reflect.ClassFileAssembler::emitByte@5 (line 74)
                      ; - jdk.internal.reflect.ClassFileAssembler::emitConstantPoolMethodref@3 (line 137)
                      ; - jdk.internal.reflect.AccessorGenerator::emitBoxingContantPoolEntries@457 (line 297)
                      ;   {runtime_call throw_incompatible_class_change_error Runtime1 stub}
  0x000001e99a3b511c: b3b2 fee8 

  0x000001e99a3b5120: ; ImmutableOopMap {[120]=Oop rsi=Oop [312]=Oop rdx=Oop }
                      ;*invokeinterface add {reexecute=0 rethrow=0 return_oop=0}
                      ; - jdk.internal.reflect.ClassFileAssembler::emitByte@5 (line 74)
                      ; - jdk.internal.reflect.ClassFileAssembler::emitShort@10 (line 63)
                      ; - jdk.internal.reflect.ClassFileAssembler::emitConstantPoolMethodref@8 (line 138)
                      ; - jdk.internal.reflect.AccessorGenerator::emitBoxingContantPoolEntries@457 (line 297)
  0x000001e99a3b5120: 7ce6 b2fe 

  0x000001e99a3b5124: ;   {runtime_call throw_null_pointer_exception Runtime1 stub}
  0x000001e99a3b5124: e877 b3b2 

  0x000001e99a3b5128: ; ImmutableOopMap {[120]=Oop rsi=Oop [312]=Oop rdx=Oop }
                      ;*invokeinterface add {reexecute=0 rethrow=0 return_oop=0}
                      ; - jdk.internal.reflect.ClassFileAssembler::emitByte@5 (line 74)
                      ; - jdk.internal.reflect.ClassFileAssembler::emitShort@10 (line 63)
                      ; - jdk.internal.reflect.ClassFileAssembler::emitConstantPoolMethodref@8 (line 138)
                      ; - jdk.internal.reflect.AccessorGenerator::emitBoxingContantPoolEntries@457 (line 297)
                      ;   {runtime_call throw_incompatible_class_change_error Runtime1 stub}
  0x000001e99a3b5128: fee8 72e6 

  0x000001e99a3b512c: ; ImmutableOopMap {[120]=Oop rsi=Oop [312]=Oop rdx=Oop }
                      ;*invokeinterface add {reexecute=0 rethrow=0 return_oop=0}
                      ; - jdk.internal.reflect.ClassFileAssembler::emitByte@5 (line 74)
                      ; - jdk.internal.reflect.ClassFileAssembler::emitShort@20 (line 64)
                      ; - jdk.internal.reflect.ClassFileAssembler::emitConstantPoolMethodref@8 (line 138)
                      ; - jdk.internal.reflect.AccessorGenerator::emitBoxingContantPoolEntries@457 (line 297)
                      ;   {runtime_call throw_null_pointer_exception Runtime1 stub}
  0x000001e99a3b512c: b2fe e86d 

  0x000001e99a3b5130: ; ImmutableOopMap {[120]=Oop rsi=Oop [312]=Oop rdx=Oop }
                      ;*invokeinterface add {reexecute=0 rethrow=0 return_oop=0}
                      ; - jdk.internal.reflect.ClassFileAssembler::emitByte@5 (line 74)
                      ; - jdk.internal.reflect.ClassFileAssembler::emitShort@20 (line 64)
                      ; - jdk.internal.reflect.ClassFileAssembler::emitConstantPoolMethodref@8 (line 138)
                      ; - jdk.internal.reflect.AccessorGenerator::emitBoxingContantPoolEntries@457 (line 297)
                      ;   {runtime_call throw_incompatible_class_change_error Runtime1 stub}
  0x000001e99a3b5130: b3b2 fee8 

  0x000001e99a3b5134: ; ImmutableOopMap {[120]=Oop rsi=Oop [312]=Oop rdx=Oop }
                      ;*invokeinterface add {reexecute=0 rethrow=0 return_oop=0}
                      ; - jdk.internal.reflect.ClassFileAssembler::emitByte@5 (line 74)
                      ; - jdk.internal.reflect.ClassFileAssembler::emitShort@10 (line 63)
                      ; - jdk.internal.reflect.ClassFileAssembler::emitConstantPoolMethodref@13 (line 139)
                      ; - jdk.internal.reflect.AccessorGenerator::emitBoxingContantPoolEntries@457 (line 297)
  0x000001e99a3b5134: 68e6 b2fe 

  0x000001e99a3b5138: ;   {runtime_call throw_null_pointer_exception Runtime1 stub}
  0x000001e99a3b5138: e863 b3b2 

  0x000001e99a3b513c: ; ImmutableOopMap {[120]=Oop rsi=Oop [312]=Oop rdx=Oop }
                      ;*invokeinterface add {reexecute=0 rethrow=0 return_oop=0}
                      ; - jdk.internal.reflect.ClassFileAssembler::emitByte@5 (line 74)
                      ; - jdk.internal.reflect.ClassFileAssembler::emitShort@10 (line 63)
                      ; - jdk.internal.reflect.ClassFileAssembler::emitConstantPoolMethodref@13 (line 139)
                      ; - jdk.internal.reflect.AccessorGenerator::emitBoxingContantPoolEntries@457 (line 297)
                      ;   {runtime_call throw_incompatible_class_change_error Runtime1 stub}
  0x000001e99a3b513c: fee8 5ee6 

  0x000001e99a3b5140: ; ImmutableOopMap {[120]=Oop rsi=Oop [312]=Oop rdx=Oop }
                      ;*invokeinterface add {reexecute=0 rethrow=0 return_oop=0}
                      ; - jdk.internal.reflect.ClassFileAssembler::emitByte@5 (line 74)
                      ; - jdk.internal.reflect.ClassFileAssembler::emitShort@20 (line 64)
                      ; - jdk.internal.reflect.ClassFileAssembler::emitConstantPoolMethodref@13 (line 139)
                      ; - jdk.internal.reflect.AccessorGenerator::emitBoxingContantPoolEntries@457 (line 297)
                      ;   {runtime_call throw_null_pointer_exception Runtime1 stub}
  0x000001e99a3b5140: b2fe e859 

  0x000001e99a3b5144: ; ImmutableOopMap {[120]=Oop rsi=Oop [312]=Oop rdx=Oop }
                      ;*invokeinterface add {reexecute=0 rethrow=0 return_oop=0}
                      ; - jdk.internal.reflect.ClassFileAssembler::emitByte@5 (line 74)
                      ; - jdk.internal.reflect.ClassFileAssembler::emitShort@20 (line 64)
                      ; - jdk.internal.reflect.ClassFileAssembler::emitConstantPoolMethodref@13 (line 139)
                      ; - jdk.internal.reflect.AccessorGenerator::emitBoxingContantPoolEntries@457 (line 297)
                      ;   {runtime_call throw_null_pointer_exception Runtime1 stub}
  0x000001e99a3b5144: b3b2 fee8 

  0x000001e99a3b5148: ; ImmutableOopMap {rdx=Oop [120]=Oop rsi=Oop }
                      ;*invokevirtual cpi {reexecute=0 rethrow=0 return_oop=0}
                      ; - jdk.internal.reflect.AccessorGenerator::emitBoxingContantPoolEntries@465 (line 298)
  0x000001e99a3b5148: 54b3 b2fe 

  0x000001e99a3b514c: ;   {runtime_call throw_null_pointer_exception Runtime1 stub}
  0x000001e99a3b514c: e84f b3b2 

  0x000001e99a3b5150: ; ImmutableOopMap {rdx=Oop [120]=Oop rsi=Oop }
                      ;*invokevirtual emitConstantPoolUTF8 {reexecute=0 rethrow=0 return_oop=0}
                      ; - jdk.internal.reflect.AccessorGenerator::emitBoxingContantPoolEntries@486 (line 300)
                      ;   {runtime_call throw_null_pointer_exception Runtime1 stub}
  0x000001e99a3b5150: fee8 4ab3 

  0x000001e99a3b5154: ; ImmutableOopMap {rdx=Oop [120]=Oop rsi=Oop [328]=Oop }
                      ;*invokevirtual cpi {reexecute=0 rethrow=0 return_oop=0}
                      ; - jdk.internal.reflect.AccessorGenerator::emitBoxingContantPoolEntries@497 (line 301)
                      ;   {runtime_call throw_incompatible_class_change_error Runtime1 stub}
  0x000001e99a3b5154: b2fe e845 

  0x000001e99a3b5158: ; ImmutableOopMap {rsi=Oop [328]=Oop [120]=Oop rax=Oop }
                      ;*invokeinterface add {reexecute=0 rethrow=0 return_oop=0}
                      ; - jdk.internal.reflect.ClassFileAssembler::emitByte@5 (line 74)
                      ; - jdk.internal.reflect.ClassFileAssembler::emitConstantPoolNameAndType@3 (line 119)
                      ; - jdk.internal.reflect.AccessorGenerator::emitBoxingContantPoolEntries@511 (line 301)
                      ;   {runtime_call throw_null_pointer_exception Runtime1 stub}
  0x000001e99a3b5158: e6b2 fee8 

  0x000001e99a3b515c: ; ImmutableOopMap {rsi=Oop [328]=Oop [120]=Oop rax=Oop }
                      ;*invokeinterface add {reexecute=0 rethrow=0 return_oop=0}
                      ; - jdk.internal.reflect.ClassFileAssembler::emitByte@5 (line 74)
                      ; - jdk.internal.reflect.ClassFileAssembler::emitConstantPoolNameAndType@3 (line 119)
                      ; - jdk.internal.reflect.AccessorGenerator::emitBoxingContantPoolEntries@511 (line 301)
  0x000001e99a3b515c: 40b3 b2fe 

  0x000001e99a3b5160: ;   {runtime_call throw_incompatible_class_change_error Runtime1 stub}
  0x000001e99a3b5160: e83b e6b2 

  0x000001e99a3b5164: ; ImmutableOopMap {[120]=Oop rsi=Oop [328]=Oop rdx=Oop }
                      ;*invokeinterface add {reexecute=0 rethrow=0 return_oop=0}
                      ; - jdk.internal.reflect.ClassFileAssembler::emitByte@5 (line 74)
                      ; - jdk.internal.reflect.ClassFileAssembler::emitShort@10 (line 63)
                      ; - jdk.internal.reflect.ClassFileAssembler::emitConstantPoolNameAndType@8 (line 120)
                      ; - jdk.internal.reflect.AccessorGenerator::emitBoxingContantPoolEntries@511 (line 301)
                      ;   {runtime_call throw_null_pointer_exception Runtime1 stub}
  0x000001e99a3b5164: fee8 36b3 

  0x000001e99a3b5168: ; ImmutableOopMap {[120]=Oop rsi=Oop [328]=Oop rdx=Oop }
                      ;*invokeinterface add {reexecute=0 rethrow=0 return_oop=0}
                      ; - jdk.internal.reflect.ClassFileAssembler::emitByte@5 (line 74)
                      ; - jdk.internal.reflect.ClassFileAssembler::emitShort@10 (line 63)
                      ; - jdk.internal.reflect.ClassFileAssembler::emitConstantPoolNameAndType@8 (line 120)
                      ; - jdk.internal.reflect.AccessorGenerator::emitBoxingContantPoolEntries@511 (line 301)
                      ;   {runtime_call throw_incompatible_class_change_error Runtime1 stub}
  0x000001e99a3b5168: b2fe e831 

  0x000001e99a3b516c: ; ImmutableOopMap {[120]=Oop rsi=Oop [328]=Oop rdx=Oop }
                      ;*invokeinterface add {reexecute=0 rethrow=0 return_oop=0}
                      ; - jdk.internal.reflect.ClassFileAssembler::emitByte@5 (line 74)
                      ; - jdk.internal.reflect.ClassFileAssembler::emitShort@20 (line 64)
                      ; - jdk.internal.reflect.ClassFileAssembler::emitConstantPoolNameAndType@8 (line 120)
                      ; - jdk.internal.reflect.AccessorGenerator::emitBoxingContantPoolEntries@511 (line 301)
                      ;   {runtime_call throw_null_pointer_exception Runtime1 stub}
  0x000001e99a3b516c: e6b2 fee8 

  0x000001e99a3b5170: ; ImmutableOopMap {[120]=Oop rsi=Oop [328]=Oop rdx=Oop }
                      ;*invokeinterface add {reexecute=0 rethrow=0 return_oop=0}
                      ; - jdk.internal.reflect.ClassFileAssembler::emitByte@5 (line 74)
                      ; - jdk.internal.reflect.ClassFileAssembler::emitShort@20 (line 64)
                      ; - jdk.internal.reflect.ClassFileAssembler::emitConstantPoolNameAndType@8 (line 120)
                      ; - jdk.internal.reflect.AccessorGenerator::emitBoxingContantPoolEntries@511 (line 301)
  0x000001e99a3b5170: 2cb3 b2fe 

  0x000001e99a3b5174: ;   {runtime_call throw_incompatible_class_change_error Runtime1 stub}
  0x000001e99a3b5174: e827 e6b2 

  0x000001e99a3b5178: ; ImmutableOopMap {[120]=Oop rsi=Oop [328]=Oop rdx=Oop }
                      ;*invokeinterface add {reexecute=0 rethrow=0 return_oop=0}
                      ; - jdk.internal.reflect.ClassFileAssembler::emitByte@5 (line 74)
                      ; - jdk.internal.reflect.ClassFileAssembler::emitShort@10 (line 63)
                      ; - jdk.internal.reflect.ClassFileAssembler::emitConstantPoolNameAndType@13 (line 121)
                      ; - jdk.internal.reflect.AccessorGenerator::emitBoxingContantPoolEntries@511 (line 301)
                      ;   {runtime_call throw_null_pointer_exception Runtime1 stub}
  0x000001e99a3b5178: fee8 22b3 

  0x000001e99a3b517c: ; ImmutableOopMap {[120]=Oop rsi=Oop [328]=Oop rdx=Oop }
                      ;*invokeinterface add {reexecute=0 rethrow=0 return_oop=0}
                      ; - jdk.internal.reflect.ClassFileAssembler::emitByte@5 (line 74)
                      ; - jdk.internal.reflect.ClassFileAssembler::emitShort@10 (line 63)
                      ; - jdk.internal.reflect.ClassFileAssembler::emitConstantPoolNameAndType@13 (line 121)
                      ; - jdk.internal.reflect.AccessorGenerator::emitBoxingContantPoolEntries@511 (line 301)
                      ;   {runtime_call throw_incompatible_class_change_error Runtime1 stub}
  0x000001e99a3b517c: b2fe e81d 

  0x000001e99a3b5180: ; ImmutableOopMap {[120]=Oop rsi=Oop [328]=Oop rdx=Oop }
                      ;*invokeinterface add {reexecute=0 rethrow=0 return_oop=0}
                      ; - jdk.internal.reflect.ClassFileAssembler::emitByte@5 (line 74)
                      ; - jdk.internal.reflect.ClassFileAssembler::emitShort@20 (line 64)
                      ; - jdk.internal.reflect.ClassFileAssembler::emitConstantPoolNameAndType@13 (line 121)
                      ; - jdk.internal.reflect.AccessorGenerator::emitBoxingContantPoolEntries@511 (line 301)
                      ;   {runtime_call throw_null_pointer_exception Runtime1 stub}
  0x000001e99a3b5180: e6b2 fee8 

  0x000001e99a3b5184: ; ImmutableOopMap {[120]=Oop rsi=Oop [328]=Oop rdx=Oop }
                      ;*invokeinterface add {reexecute=0 rethrow=0 return_oop=0}
                      ; - jdk.internal.reflect.ClassFileAssembler::emitByte@5 (line 74)
                      ; - jdk.internal.reflect.ClassFileAssembler::emitShort@20 (line 64)
                      ; - jdk.internal.reflect.ClassFileAssembler::emitConstantPoolNameAndType@13 (line 121)
                      ; - jdk.internal.reflect.AccessorGenerator::emitBoxingContantPoolEntries@511 (line 301)
  0x000001e99a3b5184: 18b3 b2fe 

  0x000001e99a3b5188: ;   {runtime_call throw_null_pointer_exception Runtime1 stub}
  0x000001e99a3b5188: e813 b3b2 

  0x000001e99a3b518c: ; ImmutableOopMap {rdx=Oop [120]=Oop rsi=Oop [344]=Oop }
                      ;*invokevirtual cpi {reexecute=0 rethrow=0 return_oop=0}
                      ; - jdk.internal.reflect.AccessorGenerator::emitBoxingContantPoolEntries@522 (line 302)
                      ;   {runtime_call throw_incompatible_class_change_error Runtime1 stub}
  0x000001e99a3b518c: fee8 0ee6 

  0x000001e99a3b5190: ; ImmutableOopMap {rsi=Oop [344]=Oop [120]=Oop rax=Oop }
                      ;*invokeinterface add {reexecute=0 rethrow=0 return_oop=0}
                      ; - jdk.internal.reflect.ClassFileAssembler::emitByte@5 (line 74)
                      ; - jdk.internal.reflect.ClassFileAssembler::emitConstantPoolMethodref@3 (line 137)
                      ; - jdk.internal.reflect.AccessorGenerator::emitBoxingContantPoolEntries@537 (line 302)
                      ;   {runtime_call throw_null_pointer_exception Runtime1 stub}
  0x000001e99a3b5190: b2fe e809 

  0x000001e99a3b5194: ; ImmutableOopMap {rsi=Oop [344]=Oop [120]=Oop rax=Oop }
                      ;*invokeinterface add {reexecute=0 rethrow=0 return_oop=0}
                      ; - jdk.internal.reflect.ClassFileAssembler::emitByte@5 (line 74)
                      ; - jdk.internal.reflect.ClassFileAssembler::emitConstantPoolMethodref@3 (line 137)
                      ; - jdk.internal.reflect.AccessorGenerator::emitBoxingContantPoolEntries@537 (line 302)
                      ;   {runtime_call throw_incompatible_class_change_error Runtime1 stub}
  0x000001e99a3b5194: b3b2 fee8 

  0x000001e99a3b5198: ; ImmutableOopMap {[120]=Oop rsi=Oop [344]=Oop rdx=Oop }
                      ;*invokeinterface add {reexecute=0 rethrow=0 return_oop=0}
                      ; - jdk.internal.reflect.ClassFileAssembler::emitByte@5 (line 74)
                      ; - jdk.internal.reflect.ClassFileAssembler::emitShort@10 (line 63)
                      ; - jdk.internal.reflect.ClassFileAssembler::emitConstantPoolMethodref@8 (line 138)
                      ; - jdk.internal.reflect.AccessorGenerator::emitBoxingContantPoolEntries@537 (line 302)
  0x000001e99a3b5198: 04e6 b2fe 

  0x000001e99a3b519c: ;   {runtime_call throw_null_pointer_exception Runtime1 stub}
  0x000001e99a3b519c: e8ff b2b2 

  0x000001e99a3b51a0: ; ImmutableOopMap {[120]=Oop rsi=Oop [344]=Oop rdx=Oop }
                      ;*invokeinterface add {reexecute=0 rethrow=0 return_oop=0}
                      ; - jdk.internal.reflect.ClassFileAssembler::emitByte@5 (line 74)
                      ; - jdk.internal.reflect.ClassFileAssembler::emitShort@10 (line 63)
                      ; - jdk.internal.reflect.ClassFileAssembler::emitConstantPoolMethodref@8 (line 138)
                      ; - jdk.internal.reflect.AccessorGenerator::emitBoxingContantPoolEntries@537 (line 302)
                      ;   {runtime_call throw_incompatible_class_change_error Runtime1 stub}
  0x000001e99a3b51a0: fee8 fae5 

  0x000001e99a3b51a4: ; ImmutableOopMap {[120]=Oop rsi=Oop [344]=Oop rdx=Oop }
                      ;*invokeinterface add {reexecute=0 rethrow=0 return_oop=0}
                      ; - jdk.internal.reflect.ClassFileAssembler::emitByte@5 (line 74)
                      ; - jdk.internal.reflect.ClassFileAssembler::emitShort@20 (line 64)
                      ; - jdk.internal.reflect.ClassFileAssembler::emitConstantPoolMethodref@8 (line 138)
                      ; - jdk.internal.reflect.AccessorGenerator::emitBoxingContantPoolEntries@537 (line 302)
                      ;   {runtime_call throw_null_pointer_exception Runtime1 stub}
  0x000001e99a3b51a4: b2fe e8f5 

  0x000001e99a3b51a8: ; ImmutableOopMap {[120]=Oop rsi=Oop [344]=Oop rdx=Oop }
                      ;*invokeinterface add {reexecute=0 rethrow=0 return_oop=0}
                      ; - jdk.internal.reflect.ClassFileAssembler::emitByte@5 (line 74)
                      ; - jdk.internal.reflect.ClassFileAssembler::emitShort@20 (line 64)
                      ; - jdk.internal.reflect.ClassFileAssembler::emitConstantPoolMethodref@8 (line 138)
                      ; - jdk.internal.reflect.AccessorGenerator::emitBoxingContantPoolEntries@537 (line 302)
                      ;   {runtime_call throw_incompatible_class_change_error Runtime1 stub}
  0x000001e99a3b51a8: b2b2 fee8 

  0x000001e99a3b51ac: ; ImmutableOopMap {[120]=Oop rsi=Oop [344]=Oop rdx=Oop }
                      ;*invokeinterface add {reexecute=0 rethrow=0 return_oop=0}
                      ; - jdk.internal.reflect.ClassFileAssembler::emitByte@5 (line 74)
                      ; - jdk.internal.reflect.ClassFileAssembler::emitShort@10 (line 63)
                      ; - jdk.internal.reflect.ClassFileAssembler::emitConstantPoolMethodref@13 (line 139)
                      ; - jdk.internal.reflect.AccessorGenerator::emitBoxingContantPoolEntries@537 (line 302)
  0x000001e99a3b51ac: f0e5 b2fe 

  0x000001e99a3b51b0: ;   {runtime_call throw_null_pointer_exception Runtime1 stub}
  0x000001e99a3b51b0: e8eb b2b2 

  0x000001e99a3b51b4: ; ImmutableOopMap {[120]=Oop rsi=Oop [344]=Oop rdx=Oop }
                      ;*invokeinterface add {reexecute=0 rethrow=0 return_oop=0}
                      ; - jdk.internal.reflect.ClassFileAssembler::emitByte@5 (line 74)
                      ; - jdk.internal.reflect.ClassFileAssembler::emitShort@10 (line 63)
                      ; - jdk.internal.reflect.ClassFileAssembler::emitConstantPoolMethodref@13 (line 139)
                      ; - jdk.internal.reflect.AccessorGenerator::emitBoxingContantPoolEntries@537 (line 302)
                      ;   {runtime_call throw_incompatible_class_change_error Runtime1 stub}
  0x000001e99a3b51b4: fee8 e6e5 

  0x000001e99a3b51b8: ; ImmutableOopMap {[120]=Oop rsi=Oop [344]=Oop rdx=Oop }
                      ;*invokeinterface add {reexecute=0 rethrow=0 return_oop=0}
                      ; - jdk.internal.reflect.ClassFileAssembler::emitByte@5 (line 74)
                      ; - jdk.internal.reflect.ClassFileAssembler::emitShort@20 (line 64)
                      ; - jdk.internal.reflect.ClassFileAssembler::emitConstantPoolMethodref@13 (line 139)
                      ; - jdk.internal.reflect.AccessorGenerator::emitBoxingContantPoolEntries@537 (line 302)
                      ;   {runtime_call throw_null_pointer_exception Runtime1 stub}
  0x000001e99a3b51b8: b2fe e8e1 

  0x000001e99a3b51bc: ; ImmutableOopMap {[120]=Oop rsi=Oop [344]=Oop rdx=Oop }
                      ;*invokeinterface add {reexecute=0 rethrow=0 return_oop=0}
                      ; - jdk.internal.reflect.ClassFileAssembler::emitByte@5 (line 74)
                      ; - jdk.internal.reflect.ClassFileAssembler::emitShort@20 (line 64)
                      ; - jdk.internal.reflect.ClassFileAssembler::emitConstantPoolMethodref@13 (line 139)
                      ; - jdk.internal.reflect.AccessorGenerator::emitBoxingContantPoolEntries@537 (line 302)
                      ;   {runtime_call throw_null_pointer_exception Runtime1 stub}
  0x000001e99a3b51bc: b2b2 fee8 

  0x000001e99a3b51c0: ; ImmutableOopMap {rdx=Oop [120]=Oop rsi=Oop }
                      ;*invokevirtual cpi {reexecute=0 rethrow=0 return_oop=0}
                      ; - jdk.internal.reflect.AccessorGenerator::emitBoxingContantPoolEntries@545 (line 303)
  0x000001e99a3b51c0: dcb2 b2fe 

  0x000001e99a3b51c4: ;   {runtime_call throw_null_pointer_exception Runtime1 stub}
  0x000001e99a3b51c4: e8d7 b2b2 

  0x000001e99a3b51c8: ; ImmutableOopMap {rdx=Oop [120]=Oop rsi=Oop [360]=Oop }
                      ;*invokevirtual cpi {reexecute=0 rethrow=0 return_oop=0}
                      ; - jdk.internal.reflect.AccessorGenerator::emitBoxingContantPoolEntries@568 (line 307)
                      ;   {runtime_call throw_incompatible_class_change_error Runtime1 stub}
  0x000001e99a3b51c8: fee8 d2e5 

  0x000001e99a3b51cc: ; ImmutableOopMap {rsi=Oop [360]=Oop [120]=Oop rdi=Oop }
                      ;*invokeinterface add {reexecute=0 rethrow=0 return_oop=0}
                      ; - jdk.internal.reflect.ClassFileAssembler::emitByte@5 (line 74)
                      ; - jdk.internal.reflect.ClassFileAssembler::emitConstantPoolClass@3 (line 113)
                      ; - jdk.internal.reflect.AccessorGenerator::emitBoxingContantPoolEntries@571 (line 307)
                      ;   {runtime_call throw_null_pointer_exception Runtime1 stub}
  0x000001e99a3b51cc: b2fe e8cd 

  0x000001e99a3b51d0: ; ImmutableOopMap {rsi=Oop [360]=Oop [120]=Oop rdi=Oop }
                      ;*invokeinterface add {reexecute=0 rethrow=0 return_oop=0}
                      ; - jdk.internal.reflect.ClassFileAssembler::emitByte@5 (line 74)
                      ; - jdk.internal.reflect.ClassFileAssembler::emitConstantPoolClass@3 (line 113)
                      ; - jdk.internal.reflect.AccessorGenerator::emitBoxingContantPoolEntries@571 (line 307)
                      ;   {runtime_call throw_incompatible_class_change_error Runtime1 stub}
  0x000001e99a3b51d0: b2b2 fee8 

  0x000001e99a3b51d4: ; ImmutableOopMap {[120]=Oop rsi=Oop [360]=Oop rdx=Oop }
                      ;*invokeinterface add {reexecute=0 rethrow=0 return_oop=0}
                      ; - jdk.internal.reflect.ClassFileAssembler::emitByte@5 (line 74)
                      ; - jdk.internal.reflect.ClassFileAssembler::emitShort@10 (line 63)
                      ; - jdk.internal.reflect.ClassFileAssembler::emitConstantPoolClass@8 (line 114)
                      ; - jdk.internal.reflect.AccessorGenerator::emitBoxingContantPoolEntries@571 (line 307)
  0x000001e99a3b51d4: c8e5 b2fe 

  0x000001e99a3b51d8: ;   {runtime_call throw_null_pointer_exception Runtime1 stub}
  0x000001e99a3b51d8: e8c3 b2b2 

  0x000001e99a3b51dc: ; ImmutableOopMap {[120]=Oop rsi=Oop [360]=Oop rdx=Oop }
                      ;*invokeinterface add {reexecute=0 rethrow=0 return_oop=0}
                      ; - jdk.internal.reflect.ClassFileAssembler::emitByte@5 (line 74)
                      ; - jdk.internal.reflect.ClassFileAssembler::emitShort@10 (line 63)
                      ; - jdk.internal.reflect.ClassFileAssembler::emitConstantPoolClass@8 (line 114)
                      ; - jdk.internal.reflect.AccessorGenerator::emitBoxingContantPoolEntries@571 (line 307)
                      ;   {runtime_call throw_incompatible_class_change_error Runtime1 stub}
  0x000001e99a3b51dc: fee8 bee5 

  0x000001e99a3b51e0: ; ImmutableOopMap {[120]=Oop rsi=Oop [360]=Oop rdx=Oop }
                      ;*invokeinterface add {reexecute=0 rethrow=0 return_oop=0}
                      ; - jdk.internal.reflect.ClassFileAssembler::emitByte@5 (line 74)
                      ; - jdk.internal.reflect.ClassFileAssembler::emitShort@20 (line 64)
                      ; - jdk.internal.reflect.ClassFileAssembler::emitConstantPoolClass@8 (line 114)
                      ; - jdk.internal.reflect.AccessorGenerator::emitBoxingContantPoolEntries@571 (line 307)
                      ;   {runtime_call throw_null_pointer_exception Runtime1 stub}
  0x000001e99a3b51e0: b2fe e8b9 

  0x000001e99a3b51e4: ; ImmutableOopMap {[120]=Oop rsi=Oop [360]=Oop rdx=Oop }
                      ;*invokeinterface add {reexecute=0 rethrow=0 return_oop=0}
                      ; - jdk.internal.reflect.ClassFileAssembler::emitByte@5 (line 74)
                      ; - jdk.internal.reflect.ClassFileAssembler::emitShort@20 (line 64)
                      ; - jdk.internal.reflect.ClassFileAssembler::emitConstantPoolClass@8 (line 114)
                      ; - jdk.internal.reflect.AccessorGenerator::emitBoxingContantPoolEntries@571 (line 307)
                      ;   {runtime_call throw_null_pointer_exception Runtime1 stub}
  0x000001e99a3b51e4: b2b2 fee8 

  0x000001e99a3b51e8: ; ImmutableOopMap {rdx=Oop [120]=Oop rsi=Oop }
                      ;*invokevirtual cpi {reexecute=0 rethrow=0 return_oop=0}
                      ; - jdk.internal.reflect.AccessorGenerator::emitBoxingContantPoolEntries@579 (line 308)
  0x000001e99a3b51e8: b4b2 b2fe 

  0x000001e99a3b51ec: ;   {runtime_call throw_null_pointer_exception Runtime1 stub}
  0x000001e99a3b51ec: e8af b2b2 

  0x000001e99a3b51f0: ; ImmutableOopMap {rdx=Oop [120]=Oop rsi=Oop [368]=Oop }
                      ;*invokevirtual cpi {reexecute=0 rethrow=0 return_oop=0}
                      ; - jdk.internal.reflect.AccessorGenerator::emitBoxingContantPoolEntries@606 (line 310)
                      ;   {runtime_call throw_incompatible_class_change_error Runtime1 stub}
  0x000001e99a3b51f0: fee8 aae5 

  0x000001e99a3b51f4: ; ImmutableOopMap {rsi=Oop [368]=Oop [120]=Oop rbx=Oop }
                      ;*invokeinterface add {reexecute=0 rethrow=0 return_oop=0}
                      ; - jdk.internal.reflect.ClassFileAssembler::emitByte@5 (line 74)
                      ; - jdk.internal.reflect.ClassFileAssembler::emitConstantPoolNameAndType@3 (line 119)
                      ; - jdk.internal.reflect.AccessorGenerator::emitBoxingContantPoolEntries@609 (line 310)
                      ;   {runtime_call throw_null_pointer_exception Runtime1 stub}
  0x000001e99a3b51f4: b2fe e8a5 

  0x000001e99a3b51f8: ; ImmutableOopMap {rsi=Oop [368]=Oop [120]=Oop rbx=Oop }
                      ;*invokeinterface add {reexecute=0 rethrow=0 return_oop=0}
                      ; - jdk.internal.reflect.ClassFileAssembler::emitByte@5 (line 74)
                      ; - jdk.internal.reflect.ClassFileAssembler::emitConstantPoolNameAndType@3 (line 119)
                      ; - jdk.internal.reflect.AccessorGenerator::emitBoxingContantPoolEntries@609 (line 310)
                      ;   {runtime_call throw_incompatible_class_change_error Runtime1 stub}
  0x000001e99a3b51f8: b2b2 fee8 

  0x000001e99a3b51fc: ; ImmutableOopMap {[120]=Oop rsi=Oop [368]=Oop rdx=Oop }
                      ;*invokeinterface add {reexecute=0 rethrow=0 return_oop=0}
                      ; - jdk.internal.reflect.ClassFileAssembler::emitByte@5 (line 74)
                      ; - jdk.internal.reflect.ClassFileAssembler::emitShort@10 (line 63)
                      ; - jdk.internal.reflect.ClassFileAssembler::emitConstantPoolNameAndType@8 (line 120)
                      ; - jdk.internal.reflect.AccessorGenerator::emitBoxingContantPoolEntries@609 (line 310)
  0x000001e99a3b51fc: a0e5 b2fe 

  0x000001e99a3b5200: ;   {runtime_call throw_null_pointer_exception Runtime1 stub}
  0x000001e99a3b5200: e89b b2b2 

  0x000001e99a3b5204: ; ImmutableOopMap {[120]=Oop rsi=Oop [368]=Oop rdx=Oop }
                      ;*invokeinterface add {reexecute=0 rethrow=0 return_oop=0}
                      ; - jdk.internal.reflect.ClassFileAssembler::emitByte@5 (line 74)
                      ; - jdk.internal.reflect.ClassFileAssembler::emitShort@10 (line 63)
                      ; - jdk.internal.reflect.ClassFileAssembler::emitConstantPoolNameAndType@8 (line 120)
                      ; - jdk.internal.reflect.AccessorGenerator::emitBoxingContantPoolEntries@609 (line 310)
                      ;   {runtime_call throw_incompatible_class_change_error Runtime1 stub}
  0x000001e99a3b5204: fee8 96e5 

  0x000001e99a3b5208: ; ImmutableOopMap {[120]=Oop rsi=Oop [368]=Oop rdx=Oop }
                      ;*invokeinterface add {reexecute=0 rethrow=0 return_oop=0}
                      ; - jdk.internal.reflect.ClassFileAssembler::emitByte@5 (line 74)
                      ; - jdk.internal.reflect.ClassFileAssembler::emitShort@20 (line 64)
                      ; - jdk.internal.reflect.ClassFileAssembler::emitConstantPoolNameAndType@8 (line 120)
                      ; - jdk.internal.reflect.AccessorGenerator::emitBoxingContantPoolEntries@609 (line 310)
                      ;   {runtime_call throw_null_pointer_exception Runtime1 stub}
  0x000001e99a3b5208: b2fe e891 

  0x000001e99a3b520c: ; ImmutableOopMap {[120]=Oop rsi=Oop [368]=Oop rdx=Oop }
                      ;*invokeinterface add {reexecute=0 rethrow=0 return_oop=0}
                      ; - jdk.internal.reflect.ClassFileAssembler::emitByte@5 (line 74)
                      ; - jdk.internal.reflect.ClassFileAssembler::emitShort@20 (line 64)
                      ; - jdk.internal.reflect.ClassFileAssembler::emitConstantPoolNameAndType@8 (line 120)
                      ; - jdk.internal.reflect.AccessorGenerator::emitBoxingContantPoolEntries@609 (line 310)
                      ;   {runtime_call throw_incompatible_class_change_error Runtime1 stub}
  0x000001e99a3b520c: b2b2 fee8 

  0x000001e99a3b5210: ; ImmutableOopMap {[120]=Oop rsi=Oop [368]=Oop rdx=Oop }
                      ;*invokeinterface add {reexecute=0 rethrow=0 return_oop=0}
                      ; - jdk.internal.reflect.ClassFileAssembler::emitByte@5 (line 74)
                      ; - jdk.internal.reflect.ClassFileAssembler::emitShort@10 (line 63)
                      ; - jdk.internal.reflect.ClassFileAssembler::emitConstantPoolNameAndType@13 (line 121)
                      ; - jdk.internal.reflect.AccessorGenerator::emitBoxingContantPoolEntries@609 (line 310)
  0x000001e99a3b5210: 8ce5 b2fe 

  0x000001e99a3b5214: ;   {runtime_call throw_null_pointer_exception Runtime1 stub}
  0x000001e99a3b5214: e887 b2b2 

  0x000001e99a3b5218: ; ImmutableOopMap {[120]=Oop rsi=Oop [368]=Oop rdx=Oop }
                      ;*invokeinterface add {reexecute=0 rethrow=0 return_oop=0}
                      ; - jdk.internal.reflect.ClassFileAssembler::emitByte@5 (line 74)
                      ; - jdk.internal.reflect.ClassFileAssembler::emitShort@10 (line 63)
                      ; - jdk.internal.reflect.ClassFileAssembler::emitConstantPoolNameAndType@13 (line 121)
                      ; - jdk.internal.reflect.AccessorGenerator::emitBoxingContantPoolEntries@609 (line 310)
                      ;   {runtime_call throw_incompatible_class_change_error Runtime1 stub}
  0x000001e99a3b5218: fee8 82e5 

  0x000001e99a3b521c: ; ImmutableOopMap {[120]=Oop rsi=Oop [368]=Oop rdx=Oop }
                      ;*invokeinterface add {reexecute=0 rethrow=0 return_oop=0}
                      ; - jdk.internal.reflect.ClassFileAssembler::emitByte@5 (line 74)
                      ; - jdk.internal.reflect.ClassFileAssembler::emitShort@20 (line 64)
                      ; - jdk.internal.reflect.ClassFileAssembler::emitConstantPoolNameAndType@13 (line 121)
                      ; - jdk.internal.reflect.AccessorGenerator::emitBoxingContantPoolEntries@609 (line 310)
                      ;   {runtime_call throw_null_pointer_exception Runtime1 stub}
  0x000001e99a3b521c: b2fe e87d 

  0x000001e99a3b5220: ; ImmutableOopMap {[120]=Oop rsi=Oop [368]=Oop rdx=Oop }
                      ;*invokeinterface add {reexecute=0 rethrow=0 return_oop=0}
                      ; - jdk.internal.reflect.ClassFileAssembler::emitByte@5 (line 74)
                      ; - jdk.internal.reflect.ClassFileAssembler::emitShort@20 (line 64)
                      ; - jdk.internal.reflect.ClassFileAssembler::emitConstantPoolNameAndType@13 (line 121)
                      ; - jdk.internal.reflect.AccessorGenerator::emitBoxingContantPoolEntries@609 (line 310)
                      ;   {runtime_call throw_null_pointer_exception Runtime1 stub}
  0x000001e99a3b5220: b2b2 fee8 

  0x000001e99a3b5224: ; ImmutableOopMap {rdx=Oop [120]=Oop rsi=Oop [384]=Oop }
                      ;*invokevirtual cpi {reexecute=0 rethrow=0 return_oop=0}
                      ; - jdk.internal.reflect.AccessorGenerator::emitBoxingContantPoolEntries@620 (line 311)
  0x000001e99a3b5224: 78b2 b2fe 

  0x000001e99a3b5228: ;   {runtime_call throw_incompatible_class_change_error Runtime1 stub}
  0x000001e99a3b5228: e873 e5b2 

  0x000001e99a3b522c: ; ImmutableOopMap {rsi=Oop [384]=Oop [120]=Oop rax=Oop }
                      ;*invokeinterface add {reexecute=0 rethrow=0 return_oop=0}
                      ; - jdk.internal.reflect.ClassFileAssembler::emitByte@5 (line 74)
                      ; - jdk.internal.reflect.ClassFileAssembler::emitConstantPoolMethodref@3 (line 137)
                      ; - jdk.internal.reflect.AccessorGenerator::emitBoxingContantPoolEntries@634 (line 311)
                      ;   {runtime_call throw_null_pointer_exception Runtime1 stub}
  0x000001e99a3b522c: fee8 6eb2 

  0x000001e99a3b5230: ; ImmutableOopMap {rsi=Oop [384]=Oop [120]=Oop rax=Oop }
                      ;*invokeinterface add {reexecute=0 rethrow=0 return_oop=0}
                      ; - jdk.internal.reflect.ClassFileAssembler::emitByte@5 (line 74)
                      ; - jdk.internal.reflect.ClassFileAssembler::emitConstantPoolMethodref@3 (line 137)
                      ; - jdk.internal.reflect.AccessorGenerator::emitBoxingContantPoolEntries@634 (line 311)
                      ;   {runtime_call throw_incompatible_class_change_error Runtime1 stub}
  0x000001e99a3b5230: b2fe e869 

  0x000001e99a3b5234: ; ImmutableOopMap {[120]=Oop rsi=Oop [384]=Oop rdx=Oop }
                      ;*invokeinterface add {reexecute=0 rethrow=0 return_oop=0}
                      ; - jdk.internal.reflect.ClassFileAssembler::emitByte@5 (line 74)
                      ; - jdk.internal.reflect.ClassFileAssembler::emitShort@10 (line 63)
                      ; - jdk.internal.reflect.ClassFileAssembler::emitConstantPoolMethodref@8 (line 138)
                      ; - jdk.internal.reflect.AccessorGenerator::emitBoxingContantPoolEntries@634 (line 311)
                      ;   {runtime_call throw_null_pointer_exception Runtime1 stub}
  0x000001e99a3b5234: e5b2 fee8 

  0x000001e99a3b5238: ; ImmutableOopMap {[120]=Oop rsi=Oop [384]=Oop rdx=Oop }
                      ;*invokeinterface add {reexecute=0 rethrow=0 return_oop=0}
                      ; - jdk.internal.reflect.ClassFileAssembler::emitByte@5 (line 74)
                      ; - jdk.internal.reflect.ClassFileAssembler::emitShort@10 (line 63)
                      ; - jdk.internal.reflect.ClassFileAssembler::emitConstantPoolMethodref@8 (line 138)
                      ; - jdk.internal.reflect.AccessorGenerator::emitBoxingContantPoolEntries@634 (line 311)
  0x000001e99a3b5238: 64b2 b2fe 

  0x000001e99a3b523c: ;   {runtime_call throw_incompatible_class_change_error Runtime1 stub}
  0x000001e99a3b523c: e85f e5b2 

  0x000001e99a3b5240: ; ImmutableOopMap {[120]=Oop rsi=Oop [384]=Oop rdx=Oop }
                      ;*invokeinterface add {reexecute=0 rethrow=0 return_oop=0}
                      ; - jdk.internal.reflect.ClassFileAssembler::emitByte@5 (line 74)
                      ; - jdk.internal.reflect.ClassFileAssembler::emitShort@20 (line 64)
                      ; - jdk.internal.reflect.ClassFileAssembler::emitConstantPoolMethodref@8 (line 138)
                      ; - jdk.internal.reflect.AccessorGenerator::emitBoxingContantPoolEntries@634 (line 311)
                      ;   {runtime_call throw_null_pointer_exception Runtime1 stub}
  0x000001e99a3b5240: fee8 5ab2 

  0x000001e99a3b5244: ; ImmutableOopMap {[120]=Oop rsi=Oop [384]=Oop rdx=Oop }
                      ;*invokeinterface add {reexecute=0 rethrow=0 return_oop=0}
                      ; - jdk.internal.reflect.ClassFileAssembler::emitByte@5 (line 74)
                      ; - jdk.internal.reflect.ClassFileAssembler::emitShort@20 (line 64)
                      ; - jdk.internal.reflect.ClassFileAssembler::emitConstantPoolMethodref@8 (line 138)
                      ; - jdk.internal.reflect.AccessorGenerator::emitBoxingContantPoolEntries@634 (line 311)
                      ;   {runtime_call throw_incompatible_class_change_error Runtime1 stub}
  0x000001e99a3b5244: b2fe e855 

  0x000001e99a3b5248: ; ImmutableOopMap {[120]=Oop rsi=Oop [384]=Oop rdx=Oop }
                      ;*invokeinterface add {reexecute=0 rethrow=0 return_oop=0}
                      ; - jdk.internal.reflect.ClassFileAssembler::emitByte@5 (line 74)
                      ; - jdk.internal.reflect.ClassFileAssembler::emitShort@10 (line 63)
                      ; - jdk.internal.reflect.ClassFileAssembler::emitConstantPoolMethodref@13 (line 139)
                      ; - jdk.internal.reflect.AccessorGenerator::emitBoxingContantPoolEntries@634 (line 311)
                      ;   {runtime_call throw_null_pointer_exception Runtime1 stub}
  0x000001e99a3b5248: e5b2 fee8 

  0x000001e99a3b524c: ; ImmutableOopMap {[120]=Oop rsi=Oop [384]=Oop rdx=Oop }
                      ;*invokeinterface add {reexecute=0 rethrow=0 return_oop=0}
                      ; - jdk.internal.reflect.ClassFileAssembler::emitByte@5 (line 74)
                      ; - jdk.internal.reflect.ClassFileAssembler::emitShort@10 (line 63)
                      ; - jdk.internal.reflect.ClassFileAssembler::emitConstantPoolMethodref@13 (line 139)
                      ; - jdk.internal.reflect.AccessorGenerator::emitBoxingContantPoolEntries@634 (line 311)
  0x000001e99a3b524c: 50b2 b2fe 

  0x000001e99a3b5250: ;   {runtime_call throw_incompatible_class_change_error Runtime1 stub}
  0x000001e99a3b5250: e84b e5b2 

  0x000001e99a3b5254: ; ImmutableOopMap {[120]=Oop rsi=Oop [384]=Oop rdx=Oop }
                      ;*invokeinterface add {reexecute=0 rethrow=0 return_oop=0}
                      ; - jdk.internal.reflect.ClassFileAssembler::emitByte@5 (line 74)
                      ; - jdk.internal.reflect.ClassFileAssembler::emitShort@20 (line 64)
                      ; - jdk.internal.reflect.ClassFileAssembler::emitConstantPoolMethodref@13 (line 139)
                      ; - jdk.internal.reflect.AccessorGenerator::emitBoxingContantPoolEntries@634 (line 311)
                      ;   {runtime_call throw_null_pointer_exception Runtime1 stub}
  0x000001e99a3b5254: fee8 46b2 

  0x000001e99a3b5258: ; ImmutableOopMap {[120]=Oop rsi=Oop [384]=Oop rdx=Oop }
                      ;*invokeinterface add {reexecute=0 rethrow=0 return_oop=0}
                      ; - jdk.internal.reflect.ClassFileAssembler::emitByte@5 (line 74)
                      ; - jdk.internal.reflect.ClassFileAssembler::emitShort@20 (line 64)
                      ; - jdk.internal.reflect.ClassFileAssembler::emitConstantPoolMethodref@13 (line 139)
                      ; - jdk.internal.reflect.AccessorGenerator::emitBoxingContantPoolEntries@634 (line 311)
                      ;   {runtime_call throw_null_pointer_exception Runtime1 stub}
  0x000001e99a3b5258: b2fe e841 

  0x000001e99a3b525c: ; ImmutableOopMap {rdx=Oop [120]=Oop rsi=Oop }
                      ;*invokevirtual cpi {reexecute=0 rethrow=0 return_oop=0}
                      ; - jdk.internal.reflect.AccessorGenerator::emitBoxingContantPoolEntries@642 (line 312)
                      ;   {runtime_call throw_null_pointer_exception Runtime1 stub}
  0x000001e99a3b525c: b2b2 fee8 

  0x000001e99a3b5260: ; ImmutableOopMap {rdx=Oop [120]=Oop rsi=Oop }
                      ;*invokevirtual emitConstantPoolUTF8 {reexecute=0 rethrow=0 return_oop=0}
                      ; - jdk.internal.reflect.AccessorGenerator::emitBoxingContantPoolEntries@663 (line 314)
  0x000001e99a3b5260: 3cb2 b2fe 

  0x000001e99a3b5264: ;   {runtime_call throw_null_pointer_exception Runtime1 stub}
  0x000001e99a3b5264: e837 b2b2 

  0x000001e99a3b5268: ; ImmutableOopMap {rdx=Oop [120]=Oop rsi=Oop [400]=Oop }
                      ;*invokevirtual cpi {reexecute=0 rethrow=0 return_oop=0}
                      ; - jdk.internal.reflect.AccessorGenerator::emitBoxingContantPoolEntries@674 (line 315)
                      ;   {runtime_call throw_incompatible_class_change_error Runtime1 stub}
  0x000001e99a3b5268: fee8 32e5 

  0x000001e99a3b526c: ; ImmutableOopMap {rsi=Oop [400]=Oop [120]=Oop rax=Oop }
                      ;*invokeinterface add {reexecute=0 rethrow=0 return_oop=0}
                      ; - jdk.internal.reflect.ClassFileAssembler::emitByte@5 (line 74)
                      ; - jdk.internal.reflect.ClassFileAssembler::emitConstantPoolNameAndType@3 (line 119)
                      ; - jdk.internal.reflect.AccessorGenerator::emitBoxingContantPoolEntries@688 (line 315)
                      ;   {runtime_call throw_null_pointer_exception Runtime1 stub}
  0x000001e99a3b526c: b2fe e82d 

  0x000001e99a3b5270: ; ImmutableOopMap {rsi=Oop [400]=Oop [120]=Oop rax=Oop }
                      ;*invokeinterface add {reexecute=0 rethrow=0 return_oop=0}
                      ; - jdk.internal.reflect.ClassFileAssembler::emitByte@5 (line 74)
                      ; - jdk.internal.reflect.ClassFileAssembler::emitConstantPoolNameAndType@3 (line 119)
                      ; - jdk.internal.reflect.AccessorGenerator::emitBoxingContantPoolEntries@688 (line 315)
                      ;   {runtime_call throw_incompatible_class_change_error Runtime1 stub}
  0x000001e99a3b5270: b2b2 fee8 

  0x000001e99a3b5274: ; ImmutableOopMap {[120]=Oop rsi=Oop [400]=Oop rdx=Oop }
                      ;*invokeinterface add {reexecute=0 rethrow=0 return_oop=0}
                      ; - jdk.internal.reflect.ClassFileAssembler::emitByte@5 (line 74)
                      ; - jdk.internal.reflect.ClassFileAssembler::emitShort@10 (line 63)
                      ; - jdk.internal.reflect.ClassFileAssembler::emitConstantPoolNameAndType@8 (line 120)
                      ; - jdk.internal.reflect.AccessorGenerator::emitBoxingContantPoolEntries@688 (line 315)
  0x000001e99a3b5274: 28e5 b2fe 

  0x000001e99a3b5278: ;   {runtime_call throw_null_pointer_exception Runtime1 stub}
  0x000001e99a3b5278: e823 b2b2 

  0x000001e99a3b527c: ; ImmutableOopMap {[120]=Oop rsi=Oop [400]=Oop rdx=Oop }
                      ;*invokeinterface add {reexecute=0 rethrow=0 return_oop=0}
                      ; - jdk.internal.reflect.ClassFileAssembler::emitByte@5 (line 74)
                      ; - jdk.internal.reflect.ClassFileAssembler::emitShort@10 (line 63)
                      ; - jdk.internal.reflect.ClassFileAssembler::emitConstantPoolNameAndType@8 (line 120)
                      ; - jdk.internal.reflect.AccessorGenerator::emitBoxingContantPoolEntries@688 (line 315)
                      ;   {runtime_call throw_incompatible_class_change_error Runtime1 stub}
  0x000001e99a3b527c: fee8 1ee5 

  0x000001e99a3b5280: ; ImmutableOopMap {[120]=Oop rsi=Oop [400]=Oop rdx=Oop }
                      ;*invokeinterface add {reexecute=0 rethrow=0 return_oop=0}
                      ; - jdk.internal.reflect.ClassFileAssembler::emitByte@5 (line 74)
                      ; - jdk.internal.reflect.ClassFileAssembler::emitShort@20 (line 64)
                      ; - jdk.internal.reflect.ClassFileAssembler::emitConstantPoolNameAndType@8 (line 120)
                      ; - jdk.internal.reflect.AccessorGenerator::emitBoxingContantPoolEntries@688 (line 315)
                      ;   {runtime_call throw_null_pointer_exception Runtime1 stub}
  0x000001e99a3b5280: b2fe e819 

  0x000001e99a3b5284: ; ImmutableOopMap {[120]=Oop rsi=Oop [400]=Oop rdx=Oop }
                      ;*invokeinterface add {reexecute=0 rethrow=0 return_oop=0}
                      ; - jdk.internal.reflect.ClassFileAssembler::emitByte@5 (line 74)
                      ; - jdk.internal.reflect.ClassFileAssembler::emitShort@20 (line 64)
                      ; - jdk.internal.reflect.ClassFileAssembler::emitConstantPoolNameAndType@8 (line 120)
                      ; - jdk.internal.reflect.AccessorGenerator::emitBoxingContantPoolEntries@688 (line 315)
                      ;   {runtime_call throw_incompatible_class_change_error Runtime1 stub}
  0x000001e99a3b5284: b2b2 fee8 

  0x000001e99a3b5288: ; ImmutableOopMap {[120]=Oop rsi=Oop [400]=Oop rdx=Oop }
                      ;*invokeinterface add {reexecute=0 rethrow=0 return_oop=0}
                      ; - jdk.internal.reflect.ClassFileAssembler::emitByte@5 (line 74)
                      ; - jdk.internal.reflect.ClassFileAssembler::emitShort@10 (line 63)
                      ; - jdk.internal.reflect.ClassFileAssembler::emitConstantPoolNameAndType@13 (line 121)
                      ; - jdk.internal.reflect.AccessorGenerator::emitBoxingContantPoolEntries@688 (line 315)
  0x000001e99a3b5288: 14e5 b2fe 

  0x000001e99a3b528c: ;   {runtime_call throw_null_pointer_exception Runtime1 stub}
  0x000001e99a3b528c: e80f b2b2 

  0x000001e99a3b5290: ; ImmutableOopMap {[120]=Oop rsi=Oop [400]=Oop rdx=Oop }
                      ;*invokeinterface add {reexecute=0 rethrow=0 return_oop=0}
                      ; - jdk.internal.reflect.ClassFileAssembler::emitByte@5 (line 74)
                      ; - jdk.internal.reflect.ClassFileAssembler::emitShort@10 (line 63)
                      ; - jdk.internal.reflect.ClassFileAssembler::emitConstantPoolNameAndType@13 (line 121)
                      ; - jdk.internal.reflect.AccessorGenerator::emitBoxingContantPoolEntries@688 (line 315)
                      ;   {runtime_call throw_incompatible_class_change_error Runtime1 stub}
  0x000001e99a3b5290: fee8 0ae5 

  0x000001e99a3b5294: ; ImmutableOopMap {[120]=Oop rsi=Oop [400]=Oop rdx=Oop }
                      ;*invokeinterface add {reexecute=0 rethrow=0 return_oop=0}
                      ; - jdk.internal.reflect.ClassFileAssembler::emitByte@5 (line 74)
                      ; - jdk.internal.reflect.ClassFileAssembler::emitShort@20 (line 64)
                      ; - jdk.internal.reflect.ClassFileAssembler::emitConstantPoolNameAndType@13 (line 121)
                      ; - jdk.internal.reflect.AccessorGenerator::emitBoxingContantPoolEntries@688 (line 315)
                      ;   {runtime_call throw_null_pointer_exception Runtime1 stub}
  0x000001e99a3b5294: b2fe e805 

  0x000001e99a3b5298: ; ImmutableOopMap {[120]=Oop rsi=Oop [400]=Oop rdx=Oop }
                      ;*invokeinterface add {reexecute=0 rethrow=0 return_oop=0}
                      ; - jdk.internal.reflect.ClassFileAssembler::emitByte@5 (line 74)
                      ; - jdk.internal.reflect.ClassFileAssembler::emitShort@20 (line 64)
                      ; - jdk.internal.reflect.ClassFileAssembler::emitConstantPoolNameAndType@13 (line 121)
                      ; - jdk.internal.reflect.AccessorGenerator::emitBoxingContantPoolEntries@688 (line 315)
                      ;   {runtime_call throw_null_pointer_exception Runtime1 stub}
  0x000001e99a3b5298: b2b2 fee8 

  0x000001e99a3b529c: ; ImmutableOopMap {rdx=Oop [120]=Oop rsi=Oop [416]=Oop }
                      ;*invokevirtual cpi {reexecute=0 rethrow=0 return_oop=0}
                      ; - jdk.internal.reflect.AccessorGenerator::emitBoxingContantPoolEntries@699 (line 316)
  0x000001e99a3b529c: 00b2 b2fe 

  0x000001e99a3b52a0: ;   {runtime_call throw_incompatible_class_change_error Runtime1 stub}
  0x000001e99a3b52a0: e8fb e4b2 

  0x000001e99a3b52a4: ; ImmutableOopMap {rsi=Oop [416]=Oop [120]=Oop rax=Oop }
                      ;*invokeinterface add {reexecute=0 rethrow=0 return_oop=0}
                      ; - jdk.internal.reflect.ClassFileAssembler::emitByte@5 (line 74)
                      ; - jdk.internal.reflect.ClassFileAssembler::emitConstantPoolMethodref@3 (line 137)
                      ; - jdk.internal.reflect.AccessorGenerator::emitBoxingContantPoolEntries@714 (line 316)
                      ;   {runtime_call throw_null_pointer_exception Runtime1 stub}
  0x000001e99a3b52a4: fee8 f6b1 

  0x000001e99a3b52a8: ; ImmutableOopMap {rsi=Oop [416]=Oop [120]=Oop rax=Oop }
                      ;*invokeinterface add {reexecute=0 rethrow=0 return_oop=0}
                      ; - jdk.internal.reflect.ClassFileAssembler::emitByte@5 (line 74)
                      ; - jdk.internal.reflect.ClassFileAssembler::emitConstantPoolMethodref@3 (line 137)
                      ; - jdk.internal.reflect.AccessorGenerator::emitBoxingContantPoolEntries@714 (line 316)
                      ;   {runtime_call throw_incompatible_class_change_error Runtime1 stub}
  0x000001e99a3b52a8: b2fe e8f1 

  0x000001e99a3b52ac: ; ImmutableOopMap {[120]=Oop rsi=Oop [416]=Oop rdx=Oop }
                      ;*invokeinterface add {reexecute=0 rethrow=0 return_oop=0}
                      ; - jdk.internal.reflect.ClassFileAssembler::emitByte@5 (line 74)
                      ; - jdk.internal.reflect.ClassFileAssembler::emitShort@10 (line 63)
                      ; - jdk.internal.reflect.ClassFileAssembler::emitConstantPoolMethodref@8 (line 138)
                      ; - jdk.internal.reflect.AccessorGenerator::emitBoxingContantPoolEntries@714 (line 316)
                      ;   {runtime_call throw_null_pointer_exception Runtime1 stub}
  0x000001e99a3b52ac: e4b2 fee8 

  0x000001e99a3b52b0: ; ImmutableOopMap {[120]=Oop rsi=Oop [416]=Oop rdx=Oop }
                      ;*invokeinterface add {reexecute=0 rethrow=0 return_oop=0}
                      ; - jdk.internal.reflect.ClassFileAssembler::emitByte@5 (line 74)
                      ; - jdk.internal.reflect.ClassFileAssembler::emitShort@10 (line 63)
                      ; - jdk.internal.reflect.ClassFileAssembler::emitConstantPoolMethodref@8 (line 138)
                      ; - jdk.internal.reflect.AccessorGenerator::emitBoxingContantPoolEntries@714 (line 316)
  0x000001e99a3b52b0: ecb1 b2fe 

  0x000001e99a3b52b4: ;   {runtime_call throw_incompatible_class_change_error Runtime1 stub}
  0x000001e99a3b52b4: e8e7 e4b2 

  0x000001e99a3b52b8: ; ImmutableOopMap {[120]=Oop rsi=Oop [416]=Oop rdx=Oop }
                      ;*invokeinterface add {reexecute=0 rethrow=0 return_oop=0}
                      ; - jdk.internal.reflect.ClassFileAssembler::emitByte@5 (line 74)
                      ; - jdk.internal.reflect.ClassFileAssembler::emitShort@20 (line 64)
                      ; - jdk.internal.reflect.ClassFileAssembler::emitConstantPoolMethodref@8 (line 138)
                      ; - jdk.internal.reflect.AccessorGenerator::emitBoxingContantPoolEntries@714 (line 316)
                      ;   {runtime_call throw_null_pointer_exception Runtime1 stub}
  0x000001e99a3b52b8: fee8 e2b1 

  0x000001e99a3b52bc: ; ImmutableOopMap {[120]=Oop rsi=Oop [416]=Oop rdx=Oop }
                      ;*invokeinterface add {reexecute=0 rethrow=0 return_oop=0}
                      ; - jdk.internal.reflect.ClassFileAssembler::emitByte@5 (line 74)
                      ; - jdk.internal.reflect.ClassFileAssembler::emitShort@20 (line 64)
                      ; - jdk.internal.reflect.ClassFileAssembler::emitConstantPoolMethodref@8 (line 138)
                      ; - jdk.internal.reflect.AccessorGenerator::emitBoxingContantPoolEntries@714 (line 316)
                      ;   {runtime_call throw_incompatible_class_change_error Runtime1 stub}
  0x000001e99a3b52bc: b2fe e8dd 

  0x000001e99a3b52c0: ; ImmutableOopMap {[120]=Oop rsi=Oop [416]=Oop rdx=Oop }
                      ;*invokeinterface add {reexecute=0 rethrow=0 return_oop=0}
                      ; - jdk.internal.reflect.ClassFileAssembler::emitByte@5 (line 74)
                      ; - jdk.internal.reflect.ClassFileAssembler::emitShort@10 (line 63)
                      ; - jdk.internal.reflect.ClassFileAssembler::emitConstantPoolMethodref@13 (line 139)
                      ; - jdk.internal.reflect.AccessorGenerator::emitBoxingContantPoolEntries@714 (line 316)
                      ;   {runtime_call throw_null_pointer_exception Runtime1 stub}
  0x000001e99a3b52c0: e4b2 fee8 

  0x000001e99a3b52c4: ; ImmutableOopMap {[120]=Oop rsi=Oop [416]=Oop rdx=Oop }
                      ;*invokeinterface add {reexecute=0 rethrow=0 return_oop=0}
                      ; - jdk.internal.reflect.ClassFileAssembler::emitByte@5 (line 74)
                      ; - jdk.internal.reflect.ClassFileAssembler::emitShort@10 (line 63)
                      ; - jdk.internal.reflect.ClassFileAssembler::emitConstantPoolMethodref@13 (line 139)
                      ; - jdk.internal.reflect.AccessorGenerator::emitBoxingContantPoolEntries@714 (line 316)
  0x000001e99a3b52c4: d8b1 b2fe 

  0x000001e99a3b52c8: ;   {runtime_call throw_incompatible_class_change_error Runtime1 stub}
  0x000001e99a3b52c8: e8d3 e4b2 

  0x000001e99a3b52cc: ; ImmutableOopMap {[120]=Oop rsi=Oop [416]=Oop rdx=Oop }
                      ;*invokeinterface add {reexecute=0 rethrow=0 return_oop=0}
                      ; - jdk.internal.reflect.ClassFileAssembler::emitByte@5 (line 74)
                      ; - jdk.internal.reflect.ClassFileAssembler::emitShort@20 (line 64)
                      ; - jdk.internal.reflect.ClassFileAssembler::emitConstantPoolMethodref@13 (line 139)
                      ; - jdk.internal.reflect.AccessorGenerator::emitBoxingContantPoolEntries@714 (line 316)
                      ;   {runtime_call throw_null_pointer_exception Runtime1 stub}
  0x000001e99a3b52cc: fee8 ceb1 

  0x000001e99a3b52d0: ; ImmutableOopMap {[120]=Oop rsi=Oop [416]=Oop rdx=Oop }
                      ;*invokeinterface add {reexecute=0 rethrow=0 return_oop=0}
                      ; - jdk.internal.reflect.ClassFileAssembler::emitByte@5 (line 74)
                      ; - jdk.internal.reflect.ClassFileAssembler::emitShort@20 (line 64)
                      ; - jdk.internal.reflect.ClassFileAssembler::emitConstantPoolMethodref@13 (line 139)
                      ; - jdk.internal.reflect.AccessorGenerator::emitBoxingContantPoolEntries@714 (line 316)
                      ;   {runtime_call throw_null_pointer_exception Runtime1 stub}
  0x000001e99a3b52d0: b2fe e8c9 

  0x000001e99a3b52d4: ; ImmutableOopMap {rdx=Oop [120]=Oop rsi=Oop }
                      ;*invokevirtual cpi {reexecute=0 rethrow=0 return_oop=0}
                      ; - jdk.internal.reflect.AccessorGenerator::emitBoxingContantPoolEntries@722 (line 317)
                      ;   {runtime_call throw_null_pointer_exception Runtime1 stub}
  0x000001e99a3b52d4: b1b2 fee8 

  0x000001e99a3b52d8: ; ImmutableOopMap {rdx=Oop [120]=Oop rsi=Oop [432]=Oop }
                      ;*invokevirtual cpi {reexecute=0 rethrow=0 return_oop=0}
                      ; - jdk.internal.reflect.AccessorGenerator::emitBoxingContantPoolEntries@745 (line 321)
  0x000001e99a3b52d8: c4b1 b2fe 

  0x000001e99a3b52dc: ;   {runtime_call throw_incompatible_class_change_error Runtime1 stub}
  0x000001e99a3b52dc: e8bf e4b2 

  0x000001e99a3b52e0: ; ImmutableOopMap {rsi=Oop [432]=Oop [120]=Oop rdi=Oop }
                      ;*invokeinterface add {reexecute=0 rethrow=0 return_oop=0}
                      ; - jdk.internal.reflect.ClassFileAssembler::emitByte@5 (line 74)
                      ; - jdk.internal.reflect.ClassFileAssembler::emitConstantPoolClass@3 (line 113)
                      ; - jdk.internal.reflect.AccessorGenerator::emitBoxingContantPoolEntries@748 (line 321)
                      ;   {runtime_call throw_null_pointer_exception Runtime1 stub}
  0x000001e99a3b52e0: fee8 bab1 

  0x000001e99a3b52e4: ; ImmutableOopMap {rsi=Oop [432]=Oop [120]=Oop rdi=Oop }
                      ;*invokeinterface add {reexecute=0 rethrow=0 return_oop=0}
                      ; - jdk.internal.reflect.ClassFileAssembler::emitByte@5 (line 74)
                      ; - jdk.internal.reflect.ClassFileAssembler::emitConstantPoolClass@3 (line 113)
                      ; - jdk.internal.reflect.AccessorGenerator::emitBoxingContantPoolEntries@748 (line 321)
                      ;   {runtime_call throw_incompatible_class_change_error Runtime1 stub}
  0x000001e99a3b52e4: b2fe e8b5 

  0x000001e99a3b52e8: ; ImmutableOopMap {[120]=Oop rsi=Oop [432]=Oop rdx=Oop }
                      ;*invokeinterface add {reexecute=0 rethrow=0 return_oop=0}
                      ; - jdk.internal.reflect.ClassFileAssembler::emitByte@5 (line 74)
                      ; - jdk.internal.reflect.ClassFileAssembler::emitShort@10 (line 63)
                      ; - jdk.internal.reflect.ClassFileAssembler::emitConstantPoolClass@8 (line 114)
                      ; - jdk.internal.reflect.AccessorGenerator::emitBoxingContantPoolEntries@748 (line 321)
                      ;   {runtime_call throw_null_pointer_exception Runtime1 stub}
  0x000001e99a3b52e8: e4b2 fee8 

  0x000001e99a3b52ec: ; ImmutableOopMap {[120]=Oop rsi=Oop [432]=Oop rdx=Oop }
                      ;*invokeinterface add {reexecute=0 rethrow=0 return_oop=0}
                      ; - jdk.internal.reflect.ClassFileAssembler::emitByte@5 (line 74)
                      ; - jdk.internal.reflect.ClassFileAssembler::emitShort@10 (line 63)
                      ; - jdk.internal.reflect.ClassFileAssembler::emitConstantPoolClass@8 (line 114)
                      ; - jdk.internal.reflect.AccessorGenerator::emitBoxingContantPoolEntries@748 (line 321)
  0x000001e99a3b52ec: b0b1 b2fe 

  0x000001e99a3b52f0: ;   {runtime_call throw_incompatible_class_change_error Runtime1 stub}
  0x000001e99a3b52f0: e8ab e4b2 

  0x000001e99a3b52f4: ; ImmutableOopMap {[120]=Oop rsi=Oop [432]=Oop rdx=Oop }
                      ;*invokeinterface add {reexecute=0 rethrow=0 return_oop=0}
                      ; - jdk.internal.reflect.ClassFileAssembler::emitByte@5 (line 74)
                      ; - jdk.internal.reflect.ClassFileAssembler::emitShort@20 (line 64)
                      ; - jdk.internal.reflect.ClassFileAssembler::emitConstantPoolClass@8 (line 114)
                      ; - jdk.internal.reflect.AccessorGenerator::emitBoxingContantPoolEntries@748 (line 321)
                      ;   {runtime_call throw_null_pointer_exception Runtime1 stub}
  0x000001e99a3b52f4: fee8 a6b1 

  0x000001e99a3b52f8: ; ImmutableOopMap {[120]=Oop rsi=Oop [432]=Oop rdx=Oop }
                      ;*invokeinterface add {reexecute=0 rethrow=0 return_oop=0}
                      ; - jdk.internal.reflect.ClassFileAssembler::emitByte@5 (line 74)
                      ; - jdk.internal.reflect.ClassFileAssembler::emitShort@20 (line 64)
                      ; - jdk.internal.reflect.ClassFileAssembler::emitConstantPoolClass@8 (line 114)
                      ; - jdk.internal.reflect.AccessorGenerator::emitBoxingContantPoolEntries@748 (line 321)
                      ;   {runtime_call throw_null_pointer_exception Runtime1 stub}
  0x000001e99a3b52f8: b2fe e8a1 

  0x000001e99a3b52fc: ; ImmutableOopMap {rdx=Oop [120]=Oop rsi=Oop }
                      ;*invokevirtual cpi {reexecute=0 rethrow=0 return_oop=0}
                      ; - jdk.internal.reflect.AccessorGenerator::emitBoxingContantPoolEntries@756 (line 322)
                      ;   {runtime_call throw_null_pointer_exception Runtime1 stub}
  0x000001e99a3b52fc: b1b2 fee8 

  0x000001e99a3b5300: ; ImmutableOopMap {rdx=Oop [120]=Oop rsi=Oop [448]=Oop }
                      ;*invokevirtual cpi {reexecute=0 rethrow=0 return_oop=0}
                      ; - jdk.internal.reflect.AccessorGenerator::emitBoxingContantPoolEntries@783 (line 324)
  0x000001e99a3b5300: 9cb1 b2fe 

  0x000001e99a3b5304: ;   {runtime_call throw_incompatible_class_change_error Runtime1 stub}
  0x000001e99a3b5304: e897 e4b2 

  0x000001e99a3b5308: ; ImmutableOopMap {rsi=Oop [448]=Oop [120]=Oop rbx=Oop }
                      ;*invokeinterface add {reexecute=0 rethrow=0 return_oop=0}
                      ; - jdk.internal.reflect.ClassFileAssembler::emitByte@5 (line 74)
                      ; - jdk.internal.reflect.ClassFileAssembler::emitConstantPoolNameAndType@3 (line 119)
                      ; - jdk.internal.reflect.AccessorGenerator::emitBoxingContantPoolEntries@786 (line 324)
                      ;   {runtime_call throw_null_pointer_exception Runtime1 stub}
  0x000001e99a3b5308: fee8 92b1 

  0x000001e99a3b530c: ; ImmutableOopMap {rsi=Oop [448]=Oop [120]=Oop rbx=Oop }
                      ;*invokeinterface add {reexecute=0 rethrow=0 return_oop=0}
                      ; - jdk.internal.reflect.ClassFileAssembler::emitByte@5 (line 74)
                      ; - jdk.internal.reflect.ClassFileAssembler::emitConstantPoolNameAndType@3 (line 119)
                      ; - jdk.internal.reflect.AccessorGenerator::emitBoxingContantPoolEntries@786 (line 324)
                      ;   {runtime_call throw_incompatible_class_change_error Runtime1 stub}
  0x000001e99a3b530c: b2fe e88d 

  0x000001e99a3b5310: ; ImmutableOopMap {[120]=Oop rsi=Oop [448]=Oop rdx=Oop }
                      ;*invokeinterface add {reexecute=0 rethrow=0 return_oop=0}
                      ; - jdk.internal.reflect.ClassFileAssembler::emitByte@5 (line 74)
                      ; - jdk.internal.reflect.ClassFileAssembler::emitShort@10 (line 63)
                      ; - jdk.internal.reflect.ClassFileAssembler::emitConstantPoolNameAndType@8 (line 120)
                      ; - jdk.internal.reflect.AccessorGenerator::emitBoxingContantPoolEntries@786 (line 324)
                      ;   {runtime_call throw_null_pointer_exception Runtime1 stub}
  0x000001e99a3b5310: e4b2 fee8 

  0x000001e99a3b5314: ; ImmutableOopMap {[120]=Oop rsi=Oop [448]=Oop rdx=Oop }
                      ;*invokeinterface add {reexecute=0 rethrow=0 return_oop=0}
                      ; - jdk.internal.reflect.ClassFileAssembler::emitByte@5 (line 74)
                      ; - jdk.internal.reflect.ClassFileAssembler::emitShort@10 (line 63)
                      ; - jdk.internal.reflect.ClassFileAssembler::emitConstantPoolNameAndType@8 (line 120)
                      ; - jdk.internal.reflect.AccessorGenerator::emitBoxingContantPoolEntries@786 (line 324)
  0x000001e99a3b5314: 88b1 b2fe 

  0x000001e99a3b5318: ;   {runtime_call throw_incompatible_class_change_error Runtime1 stub}
  0x000001e99a3b5318: e883 e4b2 

  0x000001e99a3b531c: ; ImmutableOopMap {[120]=Oop rsi=Oop [448]=Oop rdx=Oop }
                      ;*invokeinterface add {reexecute=0 rethrow=0 return_oop=0}
                      ; - jdk.internal.reflect.ClassFileAssembler::emitByte@5 (line 74)
                      ; - jdk.internal.reflect.ClassFileAssembler::emitShort@20 (line 64)
                      ; - jdk.internal.reflect.ClassFileAssembler::emitConstantPoolNameAndType@8 (line 120)
                      ; - jdk.internal.reflect.AccessorGenerator::emitBoxingContantPoolEntries@786 (line 324)
                      ;   {runtime_call throw_null_pointer_exception Runtime1 stub}
  0x000001e99a3b531c: fee8 7eb1 

  0x000001e99a3b5320: ; ImmutableOopMap {[120]=Oop rsi=Oop [448]=Oop rdx=Oop }
                      ;*invokeinterface add {reexecute=0 rethrow=0 return_oop=0}
                      ; - jdk.internal.reflect.ClassFileAssembler::emitByte@5 (line 74)
                      ; - jdk.internal.reflect.ClassFileAssembler::emitShort@20 (line 64)
                      ; - jdk.internal.reflect.ClassFileAssembler::emitConstantPoolNameAndType@8 (line 120)
                      ; - jdk.internal.reflect.AccessorGenerator::emitBoxingContantPoolEntries@786 (line 324)
                      ;   {runtime_call throw_incompatible_class_change_error Runtime1 stub}
  0x000001e99a3b5320: b2fe e879 

  0x000001e99a3b5324: ; ImmutableOopMap {[120]=Oop rsi=Oop [448]=Oop rdx=Oop }
                      ;*invokeinterface add {reexecute=0 rethrow=0 return_oop=0}
                      ; - jdk.internal.reflect.ClassFileAssembler::emitByte@5 (line 74)
                      ; - jdk.internal.reflect.ClassFileAssembler::emitShort@10 (line 63)
                      ; - jdk.internal.reflect.ClassFileAssembler::emitConstantPoolNameAndType@13 (line 121)
                      ; - jdk.internal.reflect.AccessorGenerator::emitBoxingContantPoolEntries@786 (line 324)
                      ;   {runtime_call throw_null_pointer_exception Runtime1 stub}
  0x000001e99a3b5324: e4b2 fee8 

  0x000001e99a3b5328: ; ImmutableOopMap {[120]=Oop rsi=Oop [448]=Oop rdx=Oop }
                      ;*invokeinterface add {reexecute=0 rethrow=0 return_oop=0}
                      ; - jdk.internal.reflect.ClassFileAssembler::emitByte@5 (line 74)
                      ; - jdk.internal.reflect.ClassFileAssembler::emitShort@10 (line 63)
                      ; - jdk.internal.reflect.ClassFileAssembler::emitConstantPoolNameAndType@13 (line 121)
                      ; - jdk.internal.reflect.AccessorGenerator::emitBoxingContantPoolEntries@786 (line 324)
  0x000001e99a3b5328: 74b1 b2fe 

  0x000001e99a3b532c: ;   {runtime_call throw_incompatible_class_change_error Runtime1 stub}
  0x000001e99a3b532c: e86f e4b2 

  0x000001e99a3b5330: ; ImmutableOopMap {[120]=Oop rsi=Oop [448]=Oop rdx=Oop }
                      ;*invokeinterface add {reexecute=0 rethrow=0 return_oop=0}
                      ; - jdk.internal.reflect.ClassFileAssembler::emitByte@5 (line 74)
                      ; - jdk.internal.reflect.ClassFileAssembler::emitShort@20 (line 64)
                      ; - jdk.internal.reflect.ClassFileAssembler::emitConstantPoolNameAndType@13 (line 121)
                      ; - jdk.internal.reflect.AccessorGenerator::emitBoxingContantPoolEntries@786 (line 324)
                      ;   {runtime_call throw_null_pointer_exception Runtime1 stub}
  0x000001e99a3b5330: fee8 6ab1 

  0x000001e99a3b5334: ; ImmutableOopMap {[120]=Oop rsi=Oop [448]=Oop rdx=Oop }
                      ;*invokeinterface add {reexecute=0 rethrow=0 return_oop=0}
                      ; - jdk.internal.reflect.ClassFileAssembler::emitByte@5 (line 74)
                      ; - jdk.internal.reflect.ClassFileAssembler::emitShort@20 (line 64)
                      ; - jdk.internal.reflect.ClassFileAssembler::emitConstantPoolNameAndType@13 (line 121)
                      ; - jdk.internal.reflect.AccessorGenerator::emitBoxingContantPoolEntries@786 (line 324)
                      ;   {runtime_call throw_null_pointer_exception Runtime1 stub}
  0x000001e99a3b5334: b2fe e865 

  0x000001e99a3b5338: ; ImmutableOopMap {rdx=Oop [120]=Oop rsi=Oop [464]=Oop }
                      ;*invokevirtual cpi {reexecute=0 rethrow=0 return_oop=0}
                      ; - jdk.internal.reflect.AccessorGenerator::emitBoxingContantPoolEntries@797 (line 325)
                      ;   {runtime_call throw_incompatible_class_change_error Runtime1 stub}
  0x000001e99a3b5338: b1b2 fee8 

  0x000001e99a3b533c: ; ImmutableOopMap {rsi=Oop [464]=Oop [120]=Oop rax=Oop }
                      ;*invokeinterface add {reexecute=0 rethrow=0 return_oop=0}
                      ; - jdk.internal.reflect.ClassFileAssembler::emitByte@5 (line 74)
                      ; - jdk.internal.reflect.ClassFileAssembler::emitConstantPoolMethodref@3 (line 137)
                      ; - jdk.internal.reflect.AccessorGenerator::emitBoxingContantPoolEntries@811 (line 325)
  0x000001e99a3b533c: 60e4 b2fe 

  0x000001e99a3b5340: ;   {runtime_call throw_null_pointer_exception Runtime1 stub}
  0x000001e99a3b5340: e85b b1b2 

  0x000001e99a3b5344: ; ImmutableOopMap {rsi=Oop [464]=Oop [120]=Oop rax=Oop }
                      ;*invokeinterface add {reexecute=0 rethrow=0 return_oop=0}
                      ; - jdk.internal.reflect.ClassFileAssembler::emitByte@5 (line 74)
                      ; - jdk.internal.reflect.ClassFileAssembler::emitConstantPoolMethodref@3 (line 137)
                      ; - jdk.internal.reflect.AccessorGenerator::emitBoxingContantPoolEntries@811 (line 325)
                      ;   {runtime_call throw_incompatible_class_change_error Runtime1 stub}
  0x000001e99a3b5344: fee8 56e4 

  0x000001e99a3b5348: ; ImmutableOopMap {[120]=Oop rsi=Oop [464]=Oop rdx=Oop }
                      ;*invokeinterface add {reexecute=0 rethrow=0 return_oop=0}
                      ; - jdk.internal.reflect.ClassFileAssembler::emitByte@5 (line 74)
                      ; - jdk.internal.reflect.ClassFileAssembler::emitShort@10 (line 63)
                      ; - jdk.internal.reflect.ClassFileAssembler::emitConstantPoolMethodref@8 (line 138)
                      ; - jdk.internal.reflect.AccessorGenerator::emitBoxingContantPoolEntries@811 (line 325)
                      ;   {runtime_call throw_null_pointer_exception Runtime1 stub}
  0x000001e99a3b5348: b2fe e851 

  0x000001e99a3b534c: ; ImmutableOopMap {[120]=Oop rsi=Oop [464]=Oop rdx=Oop }
                      ;*invokeinterface add {reexecute=0 rethrow=0 return_oop=0}
                      ; - jdk.internal.reflect.ClassFileAssembler::emitByte@5 (line 74)
                      ; - jdk.internal.reflect.ClassFileAssembler::emitShort@10 (line 63)
                      ; - jdk.internal.reflect.ClassFileAssembler::emitConstantPoolMethodref@8 (line 138)
                      ; - jdk.internal.reflect.AccessorGenerator::emitBoxingContantPoolEntries@811 (line 325)
                      ;   {runtime_call throw_incompatible_class_change_error Runtime1 stub}
  0x000001e99a3b534c: b1b2 fee8 

  0x000001e99a3b5350: ; ImmutableOopMap {[120]=Oop rsi=Oop [464]=Oop rdx=Oop }
                      ;*invokeinterface add {reexecute=0 rethrow=0 return_oop=0}
                      ; - jdk.internal.reflect.ClassFileAssembler::emitByte@5 (line 74)
                      ; - jdk.internal.reflect.ClassFileAssembler::emitShort@20 (line 64)
                      ; - jdk.internal.reflect.ClassFileAssembler::emitConstantPoolMethodref@8 (line 138)
                      ; - jdk.internal.reflect.AccessorGenerator::emitBoxingContantPoolEntries@811 (line 325)
  0x000001e99a3b5350: 4ce4 b2fe 

  0x000001e99a3b5354: ;   {runtime_call throw_null_pointer_exception Runtime1 stub}
  0x000001e99a3b5354: e847 b1b2 

  0x000001e99a3b5358: ; ImmutableOopMap {[120]=Oop rsi=Oop [464]=Oop rdx=Oop }
                      ;*invokeinterface add {reexecute=0 rethrow=0 return_oop=0}
                      ; - jdk.internal.reflect.ClassFileAssembler::emitByte@5 (line 74)
                      ; - jdk.internal.reflect.ClassFileAssembler::emitShort@20 (line 64)
                      ; - jdk.internal.reflect.ClassFileAssembler::emitConstantPoolMethodref@8 (line 138)
                      ; - jdk.internal.reflect.AccessorGenerator::emitBoxingContantPoolEntries@811 (line 325)
                      ;   {runtime_call throw_incompatible_class_change_error Runtime1 stub}
  0x000001e99a3b5358: fee8 42e4 

  0x000001e99a3b535c: ; ImmutableOopMap {[120]=Oop rsi=Oop [464]=Oop rdx=Oop }
                      ;*invokeinterface add {reexecute=0 rethrow=0 return_oop=0}
                      ; - jdk.internal.reflect.ClassFileAssembler::emitByte@5 (line 74)
                      ; - jdk.internal.reflect.ClassFileAssembler::emitShort@10 (line 63)
                      ; - jdk.internal.reflect.ClassFileAssembler::emitConstantPoolMethodref@13 (line 139)
                      ; - jdk.internal.reflect.AccessorGenerator::emitBoxingContantPoolEntries@811 (line 325)
                      ;   {runtime_call throw_null_pointer_exception Runtime1 stub}
  0x000001e99a3b535c: b2fe e83d 

  0x000001e99a3b5360: ; ImmutableOopMap {[120]=Oop rsi=Oop [464]=Oop rdx=Oop }
                      ;*invokeinterface add {reexecute=0 rethrow=0 return_oop=0}
                      ; - jdk.internal.reflect.ClassFileAssembler::emitByte@5 (line 74)
                      ; - jdk.internal.reflect.ClassFileAssembler::emitShort@10 (line 63)
                      ; - jdk.internal.reflect.ClassFileAssembler::emitConstantPoolMethodref@13 (line 139)
                      ; - jdk.internal.reflect.AccessorGenerator::emitBoxingContantPoolEntries@811 (line 325)
                      ;   {runtime_call throw_incompatible_class_change_error Runtime1 stub}
  0x000001e99a3b5360: b1b2 fee8 

  0x000001e99a3b5364: ; ImmutableOopMap {[120]=Oop rsi=Oop [464]=Oop rdx=Oop }
                      ;*invokeinterface add {reexecute=0 rethrow=0 return_oop=0}
                      ; - jdk.internal.reflect.ClassFileAssembler::emitByte@5 (line 74)
                      ; - jdk.internal.reflect.ClassFileAssembler::emitShort@20 (line 64)
                      ; - jdk.internal.reflect.ClassFileAssembler::emitConstantPoolMethodref@13 (line 139)
                      ; - jdk.internal.reflect.AccessorGenerator::emitBoxingContantPoolEntries@811 (line 325)
  0x000001e99a3b5364: 38e4 b2fe 

  0x000001e99a3b5368: ;   {runtime_call throw_null_pointer_exception Runtime1 stub}
  0x000001e99a3b5368: e833 b1b2 

  0x000001e99a3b536c: ; ImmutableOopMap {[120]=Oop rsi=Oop [464]=Oop rdx=Oop }
                      ;*invokeinterface add {reexecute=0 rethrow=0 return_oop=0}
                      ; - jdk.internal.reflect.ClassFileAssembler::emitByte@5 (line 74)
                      ; - jdk.internal.reflect.ClassFileAssembler::emitShort@20 (line 64)
                      ; - jdk.internal.reflect.ClassFileAssembler::emitConstantPoolMethodref@13 (line 139)
                      ; - jdk.internal.reflect.AccessorGenerator::emitBoxingContantPoolEntries@811 (line 325)
                      ;   {runtime_call throw_null_pointer_exception Runtime1 stub}
  0x000001e99a3b536c: fee8 2eb1 

  0x000001e99a3b5370: ; ImmutableOopMap {rdx=Oop [120]=Oop rsi=Oop }
                      ;*invokevirtual cpi {reexecute=0 rethrow=0 return_oop=0}
                      ; - jdk.internal.reflect.AccessorGenerator::emitBoxingContantPoolEntries@819 (line 326)
                      ;   {runtime_call throw_null_pointer_exception Runtime1 stub}
  0x000001e99a3b5370: b2fe e829 

  0x000001e99a3b5374: ; ImmutableOopMap {rdx=Oop [120]=Oop rsi=Oop }
                      ;*invokevirtual emitConstantPoolUTF8 {reexecute=0 rethrow=0 return_oop=0}
                      ; - jdk.internal.reflect.AccessorGenerator::emitBoxingContantPoolEntries@840 (line 328)
                      ;   {runtime_call throw_null_pointer_exception Runtime1 stub}
  0x000001e99a3b5374: b1b2 fee8 

  0x000001e99a3b5378: ; ImmutableOopMap {rdx=Oop [120]=Oop rsi=Oop [480]=Oop }
                      ;*invokevirtual cpi {reexecute=0 rethrow=0 return_oop=0}
                      ; - jdk.internal.reflect.AccessorGenerator::emitBoxingContantPoolEntries@851 (line 329)
  0x000001e99a3b5378: 24b1 b2fe 

  0x000001e99a3b537c: ;   {runtime_call throw_incompatible_class_change_error Runtime1 stub}
  0x000001e99a3b537c: e81f e4b2 

  0x000001e99a3b5380: ; ImmutableOopMap {rsi=Oop [480]=Oop [120]=Oop rax=Oop }
                      ;*invokeinterface add {reexecute=0 rethrow=0 return_oop=0}
                      ; - jdk.internal.reflect.ClassFileAssembler::emitByte@5 (line 74)
                      ; - jdk.internal.reflect.ClassFileAssembler::emitConstantPoolNameAndType@3 (line 119)
                      ; - jdk.internal.reflect.AccessorGenerator::emitBoxingContantPoolEntries@865 (line 329)
                      ;   {runtime_call throw_null_pointer_exception Runtime1 stub}
  0x000001e99a3b5380: fee8 1ab1 

  0x000001e99a3b5384: ; ImmutableOopMap {rsi=Oop [480]=Oop [120]=Oop rax=Oop }
                      ;*invokeinterface add {reexecute=0 rethrow=0 return_oop=0}
                      ; - jdk.internal.reflect.ClassFileAssembler::emitByte@5 (line 74)
                      ; - jdk.internal.reflect.ClassFileAssembler::emitConstantPoolNameAndType@3 (line 119)
                      ; - jdk.internal.reflect.AccessorGenerator::emitBoxingContantPoolEntries@865 (line 329)
                      ;   {runtime_call throw_incompatible_class_change_error Runtime1 stub}
  0x000001e99a3b5384: b2fe e815 

  0x000001e99a3b5388: ; ImmutableOopMap {[120]=Oop rsi=Oop [480]=Oop rdx=Oop }
                      ;*invokeinterface add {reexecute=0 rethrow=0 return_oop=0}
                      ; - jdk.internal.reflect.ClassFileAssembler::emitByte@5 (line 74)
                      ; - jdk.internal.reflect.ClassFileAssembler::emitShort@10 (line 63)
                      ; - jdk.internal.reflect.ClassFileAssembler::emitConstantPoolNameAndType@8 (line 120)
                      ; - jdk.internal.reflect.AccessorGenerator::emitBoxingContantPoolEntries@865 (line 329)
                      ;   {runtime_call throw_null_pointer_exception Runtime1 stub}
  0x000001e99a3b5388: e4b2 fee8 

  0x000001e99a3b538c: ; ImmutableOopMap {[120]=Oop rsi=Oop [480]=Oop rdx=Oop }
                      ;*invokeinterface add {reexecute=0 rethrow=0 return_oop=0}
                      ; - jdk.internal.reflect.ClassFileAssembler::emitByte@5 (line 74)
                      ; - jdk.internal.reflect.ClassFileAssembler::emitShort@10 (line 63)
                      ; - jdk.internal.reflect.ClassFileAssembler::emitConstantPoolNameAndType@8 (line 120)
                      ; - jdk.internal.reflect.AccessorGenerator::emitBoxingContantPoolEntries@865 (line 329)
  0x000001e99a3b538c: 10b1 b2fe 

  0x000001e99a3b5390: ;   {runtime_call throw_incompatible_class_change_error Runtime1 stub}
  0x000001e99a3b5390: e80b e4b2 

  0x000001e99a3b5394: ; ImmutableOopMap {[120]=Oop rsi=Oop [480]=Oop rdx=Oop }
                      ;*invokeinterface add {reexecute=0 rethrow=0 return_oop=0}
                      ; - jdk.internal.reflect.ClassFileAssembler::emitByte@5 (line 74)
                      ; - jdk.internal.reflect.ClassFileAssembler::emitShort@20 (line 64)
                      ; - jdk.internal.reflect.ClassFileAssembler::emitConstantPoolNameAndType@8 (line 120)
                      ; - jdk.internal.reflect.AccessorGenerator::emitBoxingContantPoolEntries@865 (line 329)
                      ;   {runtime_call throw_null_pointer_exception Runtime1 stub}
  0x000001e99a3b5394: fee8 06b1 

  0x000001e99a3b5398: ; ImmutableOopMap {[120]=Oop rsi=Oop [480]=Oop rdx=Oop }
                      ;*invokeinterface add {reexecute=0 rethrow=0 return_oop=0}
                      ; - jdk.internal.reflect.ClassFileAssembler::emitByte@5 (line 74)
                      ; - jdk.internal.reflect.ClassFileAssembler::emitShort@20 (line 64)
                      ; - jdk.internal.reflect.ClassFileAssembler::emitConstantPoolNameAndType@8 (line 120)
                      ; - jdk.internal.reflect.AccessorGenerator::emitBoxingContantPoolEntries@865 (line 329)
                      ;   {runtime_call throw_incompatible_class_change_error Runtime1 stub}
  0x000001e99a3b5398: b2fe e801 

  0x000001e99a3b539c: ; ImmutableOopMap {[120]=Oop rsi=Oop [480]=Oop rdx=Oop }
                      ;*invokeinterface add {reexecute=0 rethrow=0 return_oop=0}
                      ; - jdk.internal.reflect.ClassFileAssembler::emitByte@5 (line 74)
                      ; - jdk.internal.reflect.ClassFileAssembler::emitShort@10 (line 63)
                      ; - jdk.internal.reflect.ClassFileAssembler::emitConstantPoolNameAndType@13 (line 121)
                      ; - jdk.internal.reflect.AccessorGenerator::emitBoxingContantPoolEntries@865 (line 329)
                      ;   {runtime_call throw_null_pointer_exception Runtime1 stub}
  0x000001e99a3b539c: e4b2 fee8 

  0x000001e99a3b53a0: ; ImmutableOopMap {[120]=Oop rsi=Oop [480]=Oop rdx=Oop }
                      ;*invokeinterface add {reexecute=0 rethrow=0 return_oop=0}
                      ; - jdk.internal.reflect.ClassFileAssembler::emitByte@5 (line 74)
                      ; - jdk.internal.reflect.ClassFileAssembler::emitShort@10 (line 63)
                      ; - jdk.internal.reflect.ClassFileAssembler::emitConstantPoolNameAndType@13 (line 121)
                      ; - jdk.internal.reflect.AccessorGenerator::emitBoxingContantPoolEntries@865 (line 329)
  0x000001e99a3b53a0: fcb0 b2fe 

  0x000001e99a3b53a4: ;   {runtime_call throw_incompatible_class_change_error Runtime1 stub}
  0x000001e99a3b53a4: e8f7 e3b2 

  0x000001e99a3b53a8: ; ImmutableOopMap {[120]=Oop rsi=Oop [480]=Oop rdx=Oop }
                      ;*invokeinterface add {reexecute=0 rethrow=0 return_oop=0}
                      ; - jdk.internal.reflect.ClassFileAssembler::emitByte@5 (line 74)
                      ; - jdk.internal.reflect.ClassFileAssembler::emitShort@20 (line 64)
                      ; - jdk.internal.reflect.ClassFileAssembler::emitConstantPoolNameAndType@13 (line 121)
                      ; - jdk.internal.reflect.AccessorGenerator::emitBoxingContantPoolEntries@865 (line 329)
                      ;   {runtime_call throw_null_pointer_exception Runtime1 stub}
  0x000001e99a3b53a8: fee8 f2b0 

  0x000001e99a3b53ac: ; ImmutableOopMap {[120]=Oop rsi=Oop [480]=Oop rdx=Oop }
                      ;*invokeinterface add {reexecute=0 rethrow=0 return_oop=0}
                      ; - jdk.internal.reflect.ClassFileAssembler::emitByte@5 (line 74)
                      ; - jdk.internal.reflect.ClassFileAssembler::emitShort@20 (line 64)
                      ; - jdk.internal.reflect.ClassFileAssembler::emitConstantPoolNameAndType@13 (line 121)
                      ; - jdk.internal.reflect.AccessorGenerator::emitBoxingContantPoolEntries@865 (line 329)
                      ;   {runtime_call throw_null_pointer_exception Runtime1 stub}
  0x000001e99a3b53ac: b2fe e8ed 

  0x000001e99a3b53b0: ; ImmutableOopMap {rdx=Oop [120]=Oop rsi=Oop [496]=Oop }
                      ;*invokevirtual cpi {reexecute=0 rethrow=0 return_oop=0}
                      ; - jdk.internal.reflect.AccessorGenerator::emitBoxingContantPoolEntries@876 (line 330)
                      ;   {runtime_call throw_incompatible_class_change_error Runtime1 stub}
  0x000001e99a3b53b0: b0b2 fee8 

  0x000001e99a3b53b4: ; ImmutableOopMap {rsi=Oop [496]=Oop [120]=Oop rax=Oop }
                      ;*invokeinterface add {reexecute=0 rethrow=0 return_oop=0}
                      ; - jdk.internal.reflect.ClassFileAssembler::emitByte@5 (line 74)
                      ; - jdk.internal.reflect.ClassFileAssembler::emitConstantPoolMethodref@3 (line 137)
                      ; - jdk.internal.reflect.AccessorGenerator::emitBoxingContantPoolEntries@891 (line 330)
  0x000001e99a3b53b4: e8e3 b2fe 

  0x000001e99a3b53b8: ;   {runtime_call throw_null_pointer_exception Runtime1 stub}
  0x000001e99a3b53b8: e8e3 b0b2 

  0x000001e99a3b53bc: ; ImmutableOopMap {rsi=Oop [496]=Oop [120]=Oop rax=Oop }
                      ;*invokeinterface add {reexecute=0 rethrow=0 return_oop=0}
                      ; - jdk.internal.reflect.ClassFileAssembler::emitByte@5 (line 74)
                      ; - jdk.internal.reflect.ClassFileAssembler::emitConstantPoolMethodref@3 (line 137)
                      ; - jdk.internal.reflect.AccessorGenerator::emitBoxingContantPoolEntries@891 (line 330)
                      ;   {runtime_call throw_incompatible_class_change_error Runtime1 stub}
  0x000001e99a3b53bc: fee8 dee3 

  0x000001e99a3b53c0: ; ImmutableOopMap {[120]=Oop rsi=Oop [496]=Oop rdx=Oop }
                      ;*invokeinterface add {reexecute=0 rethrow=0 return_oop=0}
                      ; - jdk.internal.reflect.ClassFileAssembler::emitByte@5 (line 74)
                      ; - jdk.internal.reflect.ClassFileAssembler::emitShort@10 (line 63)
                      ; - jdk.internal.reflect.ClassFileAssembler::emitConstantPoolMethodref@8 (line 138)
                      ; - jdk.internal.reflect.AccessorGenerator::emitBoxingContantPoolEntries@891 (line 330)
                      ;   {runtime_call throw_null_pointer_exception Runtime1 stub}
  0x000001e99a3b53c0: b2fe e8d9 

  0x000001e99a3b53c4: ; ImmutableOopMap {[120]=Oop rsi=Oop [496]=Oop rdx=Oop }
                      ;*invokeinterface add {reexecute=0 rethrow=0 return_oop=0}
                      ; - jdk.internal.reflect.ClassFileAssembler::emitByte@5 (line 74)
                      ; - jdk.internal.reflect.ClassFileAssembler::emitShort@10 (line 63)
                      ; - jdk.internal.reflect.ClassFileAssembler::emitConstantPoolMethodref@8 (line 138)
                      ; - jdk.internal.reflect.AccessorGenerator::emitBoxingContantPoolEntries@891 (line 330)
                      ;   {runtime_call throw_incompatible_class_change_error Runtime1 stub}
  0x000001e99a3b53c4: b0b2 fee8 

  0x000001e99a3b53c8: ; ImmutableOopMap {[120]=Oop rsi=Oop [496]=Oop rdx=Oop }
                      ;*invokeinterface add {reexecute=0 rethrow=0 return_oop=0}
                      ; - jdk.internal.reflect.ClassFileAssembler::emitByte@5 (line 74)
                      ; - jdk.internal.reflect.ClassFileAssembler::emitShort@20 (line 64)
                      ; - jdk.internal.reflect.ClassFileAssembler::emitConstantPoolMethodref@8 (line 138)
                      ; - jdk.internal.reflect.AccessorGenerator::emitBoxingContantPoolEntries@891 (line 330)
  0x000001e99a3b53c8: d4e3 b2fe 

  0x000001e99a3b53cc: ;   {runtime_call throw_null_pointer_exception Runtime1 stub}
  0x000001e99a3b53cc: e8cf b0b2 

  0x000001e99a3b53d0: ; ImmutableOopMap {[120]=Oop rsi=Oop [496]=Oop rdx=Oop }
                      ;*invokeinterface add {reexecute=0 rethrow=0 return_oop=0}
                      ; - jdk.internal.reflect.ClassFileAssembler::emitByte@5 (line 74)
                      ; - jdk.internal.reflect.ClassFileAssembler::emitShort@20 (line 64)
                      ; - jdk.internal.reflect.ClassFileAssembler::emitConstantPoolMethodref@8 (line 138)
                      ; - jdk.internal.reflect.AccessorGenerator::emitBoxingContantPoolEntries@891 (line 330)
                      ;   {runtime_call throw_incompatible_class_change_error Runtime1 stub}
  0x000001e99a3b53d0: fee8 cae3 

  0x000001e99a3b53d4: ; ImmutableOopMap {[120]=Oop rsi=Oop [496]=Oop rdx=Oop }
                      ;*invokeinterface add {reexecute=0 rethrow=0 return_oop=0}
                      ; - jdk.internal.reflect.ClassFileAssembler::emitByte@5 (line 74)
                      ; - jdk.internal.reflect.ClassFileAssembler::emitShort@10 (line 63)
                      ; - jdk.internal.reflect.ClassFileAssembler::emitConstantPoolMethodref@13 (line 139)
                      ; - jdk.internal.reflect.AccessorGenerator::emitBoxingContantPoolEntries@891 (line 330)
                      ;   {runtime_call throw_null_pointer_exception Runtime1 stub}
  0x000001e99a3b53d4: b2fe e8c5 

  0x000001e99a3b53d8: ; ImmutableOopMap {[120]=Oop rsi=Oop [496]=Oop rdx=Oop }
                      ;*invokeinterface add {reexecute=0 rethrow=0 return_oop=0}
                      ; - jdk.internal.reflect.ClassFileAssembler::emitByte@5 (line 74)
                      ; - jdk.internal.reflect.ClassFileAssembler::emitShort@10 (line 63)
                      ; - jdk.internal.reflect.ClassFileAssembler::emitConstantPoolMethodref@13 (line 139)
                      ; - jdk.internal.reflect.AccessorGenerator::emitBoxingContantPoolEntries@891 (line 330)
                      ;   {runtime_call throw_incompatible_class_change_error Runtime1 stub}
  0x000001e99a3b53d8: b0b2 fee8 

  0x000001e99a3b53dc: ; ImmutableOopMap {[120]=Oop rsi=Oop [496]=Oop rdx=Oop }
                      ;*invokeinterface add {reexecute=0 rethrow=0 return_oop=0}
                      ; - jdk.internal.reflect.ClassFileAssembler::emitByte@5 (line 74)
                      ; - jdk.internal.reflect.ClassFileAssembler::emitShort@20 (line 64)
                      ; - jdk.internal.reflect.ClassFileAssembler::emitConstantPoolMethodref@13 (line 139)
                      ; - jdk.internal.reflect.AccessorGenerator::emitBoxingContantPoolEntries@891 (line 330)
  0x000001e99a3b53dc: c0e3 b2fe 

  0x000001e99a3b53e0: ;   {runtime_call throw_null_pointer_exception Runtime1 stub}
  0x000001e99a3b53e0: e8bb b0b2 

  0x000001e99a3b53e4: ; ImmutableOopMap {[120]=Oop rsi=Oop [496]=Oop rdx=Oop }
                      ;*invokeinterface add {reexecute=0 rethrow=0 return_oop=0}
                      ; - jdk.internal.reflect.ClassFileAssembler::emitByte@5 (line 74)
                      ; - jdk.internal.reflect.ClassFileAssembler::emitShort@20 (line 64)
                      ; - jdk.internal.reflect.ClassFileAssembler::emitConstantPoolMethodref@13 (line 139)
                      ; - jdk.internal.reflect.AccessorGenerator::emitBoxingContantPoolEntries@891 (line 330)
                      ;   {runtime_call throw_null_pointer_exception Runtime1 stub}
  0x000001e99a3b53e4: fee8 b6b0 

  0x000001e99a3b53e8: ; ImmutableOopMap {rdx=Oop [120]=Oop rsi=Oop }
                      ;*invokevirtual cpi {reexecute=0 rethrow=0 return_oop=0}
                      ; - jdk.internal.reflect.AccessorGenerator::emitBoxingContantPoolEntries@899 (line 331)
                      ;   {runtime_call throw_null_pointer_exception Runtime1 stub}
  0x000001e99a3b53e8: b2fe e8b1 

  0x000001e99a3b53ec: ; ImmutableOopMap {rdx=Oop [120]=Oop rsi=Oop [512]=Oop }
                      ;*invokevirtual cpi {reexecute=0 rethrow=0 return_oop=0}
                      ; - jdk.internal.reflect.AccessorGenerator::emitBoxingContantPoolEntries@922 (line 335)
                      ;   {runtime_call throw_incompatible_class_change_error Runtime1 stub}
  0x000001e99a3b53ec: b0b2 fee8 

  0x000001e99a3b53f0: ; ImmutableOopMap {rsi=Oop [512]=Oop [120]=Oop rdi=Oop }
                      ;*invokeinterface add {reexecute=0 rethrow=0 return_oop=0}
                      ; - jdk.internal.reflect.ClassFileAssembler::emitByte@5 (line 74)
                      ; - jdk.internal.reflect.ClassFileAssembler::emitConstantPoolClass@3 (line 113)
                      ; - jdk.internal.reflect.AccessorGenerator::emitBoxingContantPoolEntries@925 (line 335)
  0x000001e99a3b53f0: ace3 b2fe 

  0x000001e99a3b53f4: ;   {runtime_call throw_null_pointer_exception Runtime1 stub}
  0x000001e99a3b53f4: e8a7 b0b2 

  0x000001e99a3b53f8: ; ImmutableOopMap {rsi=Oop [512]=Oop [120]=Oop rdi=Oop }
                      ;*invokeinterface add {reexecute=0 rethrow=0 return_oop=0}
                      ; - jdk.internal.reflect.ClassFileAssembler::emitByte@5 (line 74)
                      ; - jdk.internal.reflect.ClassFileAssembler::emitConstantPoolClass@3 (line 113)
                      ; - jdk.internal.reflect.AccessorGenerator::emitBoxingContantPoolEntries@925 (line 335)
                      ;   {runtime_call throw_incompatible_class_change_error Runtime1 stub}
  0x000001e99a3b53f8: fee8 a2e3 

  0x000001e99a3b53fc: ; ImmutableOopMap {[120]=Oop rsi=Oop [512]=Oop rdx=Oop }
                      ;*invokeinterface add {reexecute=0 rethrow=0 return_oop=0}
                      ; - jdk.internal.reflect.ClassFileAssembler::emitByte@5 (line 74)
                      ; - jdk.internal.reflect.ClassFileAssembler::emitShort@10 (line 63)
                      ; - jdk.internal.reflect.ClassFileAssembler::emitConstantPoolClass@8 (line 114)
                      ; - jdk.internal.reflect.AccessorGenerator::emitBoxingContantPoolEntries@925 (line 335)
                      ;   {runtime_call throw_null_pointer_exception Runtime1 stub}
  0x000001e99a3b53fc: b2fe e89d 

  0x000001e99a3b5400: ; ImmutableOopMap {[120]=Oop rsi=Oop [512]=Oop rdx=Oop }
                      ;*invokeinterface add {reexecute=0 rethrow=0 return_oop=0}
                      ; - jdk.internal.reflect.ClassFileAssembler::emitByte@5 (line 74)
                      ; - jdk.internal.reflect.ClassFileAssembler::emitShort@10 (line 63)
                      ; - jdk.internal.reflect.ClassFileAssembler::emitConstantPoolClass@8 (line 114)
                      ; - jdk.internal.reflect.AccessorGenerator::emitBoxingContantPoolEntries@925 (line 335)
                      ;   {runtime_call throw_incompatible_class_change_error Runtime1 stub}
  0x000001e99a3b5400: b0b2 fee8 

  0x000001e99a3b5404: ; ImmutableOopMap {[120]=Oop rsi=Oop [512]=Oop rdx=Oop }
                      ;*invokeinterface add {reexecute=0 rethrow=0 return_oop=0}
                      ; - jdk.internal.reflect.ClassFileAssembler::emitByte@5 (line 74)
                      ; - jdk.internal.reflect.ClassFileAssembler::emitShort@20 (line 64)
                      ; - jdk.internal.reflect.ClassFileAssembler::emitConstantPoolClass@8 (line 114)
                      ; - jdk.internal.reflect.AccessorGenerator::emitBoxingContantPoolEntries@925 (line 335)
  0x000001e99a3b5404: 98e3 b2fe 

  0x000001e99a3b5408: ;   {runtime_call throw_null_pointer_exception Runtime1 stub}
  0x000001e99a3b5408: e893 b0b2 

  0x000001e99a3b540c: ; ImmutableOopMap {[120]=Oop rsi=Oop [512]=Oop rdx=Oop }
                      ;*invokeinterface add {reexecute=0 rethrow=0 return_oop=0}
                      ; - jdk.internal.reflect.ClassFileAssembler::emitByte@5 (line 74)
                      ; - jdk.internal.reflect.ClassFileAssembler::emitShort@20 (line 64)
                      ; - jdk.internal.reflect.ClassFileAssembler::emitConstantPoolClass@8 (line 114)
                      ; - jdk.internal.reflect.AccessorGenerator::emitBoxingContantPoolEntries@925 (line 335)
                      ;   {runtime_call throw_null_pointer_exception Runtime1 stub}
  0x000001e99a3b540c: fee8 8eb0 

  0x000001e99a3b5410: ; ImmutableOopMap {rdx=Oop [120]=Oop rsi=Oop }
                      ;*invokevirtual cpi {reexecute=0 rethrow=0 return_oop=0}
                      ; - jdk.internal.reflect.AccessorGenerator::emitBoxingContantPoolEntries@933 (line 336)
                      ;   {runtime_call throw_null_pointer_exception Runtime1 stub}
  0x000001e99a3b5410: b2fe e889 

  0x000001e99a3b5414: ; ImmutableOopMap {rdx=Oop [120]=Oop rsi=Oop [520]=Oop }
                      ;*invokevirtual cpi {reexecute=0 rethrow=0 return_oop=0}
                      ; - jdk.internal.reflect.AccessorGenerator::emitBoxingContantPoolEntries@960 (line 338)
                      ;   {runtime_call throw_incompatible_class_change_error Runtime1 stub}
  0x000001e99a3b5414: b0b2 fee8 

  0x000001e99a3b5418: ; ImmutableOopMap {rsi=Oop [520]=Oop [120]=Oop rbx=Oop }
                      ;*invokeinterface add {reexecute=0 rethrow=0 return_oop=0}
                      ; - jdk.internal.reflect.ClassFileAssembler::emitByte@5 (line 74)
                      ; - jdk.internal.reflect.ClassFileAssembler::emitConstantPoolNameAndType@3 (line 119)
                      ; - jdk.internal.reflect.AccessorGenerator::emitBoxingContantPoolEntries@963 (line 338)
  0x000001e99a3b5418: 84e3 b2fe 

  0x000001e99a3b541c: ;   {runtime_call throw_null_pointer_exception Runtime1 stub}
  0x000001e99a3b541c: e87f b0b2 

  0x000001e99a3b5420: ; ImmutableOopMap {rsi=Oop [520]=Oop [120]=Oop rbx=Oop }
                      ;*invokeinterface add {reexecute=0 rethrow=0 return_oop=0}
                      ; - jdk.internal.reflect.ClassFileAssembler::emitByte@5 (line 74)
                      ; - jdk.internal.reflect.ClassFileAssembler::emitConstantPoolNameAndType@3 (line 119)
                      ; - jdk.internal.reflect.AccessorGenerator::emitBoxingContantPoolEntries@963 (line 338)
                      ;   {runtime_call throw_incompatible_class_change_error Runtime1 stub}
  0x000001e99a3b5420: fee8 7ae3 

  0x000001e99a3b5424: ; ImmutableOopMap {[120]=Oop rsi=Oop [520]=Oop rdx=Oop }
                      ;*invokeinterface add {reexecute=0 rethrow=0 return_oop=0}
                      ; - jdk.internal.reflect.ClassFileAssembler::emitByte@5 (line 74)
                      ; - jdk.internal.reflect.ClassFileAssembler::emitShort@10 (line 63)
                      ; - jdk.internal.reflect.ClassFileAssembler::emitConstantPoolNameAndType@8 (line 120)
                      ; - jdk.internal.reflect.AccessorGenerator::emitBoxingContantPoolEntries@963 (line 338)
                      ;   {runtime_call throw_null_pointer_exception Runtime1 stub}
  0x000001e99a3b5424: b2fe e875 

  0x000001e99a3b5428: ; ImmutableOopMap {[120]=Oop rsi=Oop [520]=Oop rdx=Oop }
                      ;*invokeinterface add {reexecute=0 rethrow=0 return_oop=0}
                      ; - jdk.internal.reflect.ClassFileAssembler::emitByte@5 (line 74)
                      ; - jdk.internal.reflect.ClassFileAssembler::emitShort@10 (line 63)
                      ; - jdk.internal.reflect.ClassFileAssembler::emitConstantPoolNameAndType@8 (line 120)
                      ; - jdk.internal.reflect.AccessorGenerator::emitBoxingContantPoolEntries@963 (line 338)
                      ;   {runtime_call throw_incompatible_class_change_error Runtime1 stub}
  0x000001e99a3b5428: b0b2 fee8 

  0x000001e99a3b542c: ; ImmutableOopMap {[120]=Oop rsi=Oop [520]=Oop rdx=Oop }
                      ;*invokeinterface add {reexecute=0 rethrow=0 return_oop=0}
                      ; - jdk.internal.reflect.ClassFileAssembler::emitByte@5 (line 74)
                      ; - jdk.internal.reflect.ClassFileAssembler::emitShort@20 (line 64)
                      ; - jdk.internal.reflect.ClassFileAssembler::emitConstantPoolNameAndType@8 (line 120)
                      ; - jdk.internal.reflect.AccessorGenerator::emitBoxingContantPoolEntries@963 (line 338)
  0x000001e99a3b542c: 70e3 b2fe 

  0x000001e99a3b5430: ;   {runtime_call throw_null_pointer_exception Runtime1 stub}
  0x000001e99a3b5430: e86b b0b2 

  0x000001e99a3b5434: ; ImmutableOopMap {[120]=Oop rsi=Oop [520]=Oop rdx=Oop }
                      ;*invokeinterface add {reexecute=0 rethrow=0 return_oop=0}
                      ; - jdk.internal.reflect.ClassFileAssembler::emitByte@5 (line 74)
                      ; - jdk.internal.reflect.ClassFileAssembler::emitShort@20 (line 64)
                      ; - jdk.internal.reflect.ClassFileAssembler::emitConstantPoolNameAndType@8 (line 120)
                      ; - jdk.internal.reflect.AccessorGenerator::emitBoxingContantPoolEntries@963 (line 338)
                      ;   {runtime_call throw_incompatible_class_change_error Runtime1 stub}
  0x000001e99a3b5434: fee8 66e3 

  0x000001e99a3b5438: ; ImmutableOopMap {[120]=Oop rsi=Oop [520]=Oop rdx=Oop }
                      ;*invokeinterface add {reexecute=0 rethrow=0 return_oop=0}
                      ; - jdk.internal.reflect.ClassFileAssembler::emitByte@5 (line 74)
                      ; - jdk.internal.reflect.ClassFileAssembler::emitShort@10 (line 63)
                      ; - jdk.internal.reflect.ClassFileAssembler::emitConstantPoolNameAndType@13 (line 121)
                      ; - jdk.internal.reflect.AccessorGenerator::emitBoxingContantPoolEntries@963 (line 338)
                      ;   {runtime_call throw_null_pointer_exception Runtime1 stub}
  0x000001e99a3b5438: b2fe e861 

  0x000001e99a3b543c: ; ImmutableOopMap {[120]=Oop rsi=Oop [520]=Oop rdx=Oop }
                      ;*invokeinterface add {reexecute=0 rethrow=0 return_oop=0}
                      ; - jdk.internal.reflect.ClassFileAssembler::emitByte@5 (line 74)
                      ; - jdk.internal.reflect.ClassFileAssembler::emitShort@10 (line 63)
                      ; - jdk.internal.reflect.ClassFileAssembler::emitConstantPoolNameAndType@13 (line 121)
                      ; - jdk.internal.reflect.AccessorGenerator::emitBoxingContantPoolEntries@963 (line 338)
                      ;   {runtime_call throw_incompatible_class_change_error Runtime1 stub}
  0x000001e99a3b543c: b0b2 fee8 

  0x000001e99a3b5440: ; ImmutableOopMap {[120]=Oop rsi=Oop [520]=Oop rdx=Oop }
                      ;*invokeinterface add {reexecute=0 rethrow=0 return_oop=0}
                      ; - jdk.internal.reflect.ClassFileAssembler::emitByte@5 (line 74)
                      ; - jdk.internal.reflect.ClassFileAssembler::emitShort@20 (line 64)
                      ; - jdk.internal.reflect.ClassFileAssembler::emitConstantPoolNameAndType@13 (line 121)
                      ; - jdk.internal.reflect.AccessorGenerator::emitBoxingContantPoolEntries@963 (line 338)
  0x000001e99a3b5440: 5ce3 b2fe 

  0x000001e99a3b5444: ;   {runtime_call throw_null_pointer_exception Runtime1 stub}
  0x000001e99a3b5444: e857 b0b2 

  0x000001e99a3b5448: ; ImmutableOopMap {[120]=Oop rsi=Oop [520]=Oop rdx=Oop }
                      ;*invokeinterface add {reexecute=0 rethrow=0 return_oop=0}
                      ; - jdk.internal.reflect.ClassFileAssembler::emitByte@5 (line 74)
                      ; - jdk.internal.reflect.ClassFileAssembler::emitShort@20 (line 64)
                      ; - jdk.internal.reflect.ClassFileAssembler::emitConstantPoolNameAndType@13 (line 121)
                      ; - jdk.internal.reflect.AccessorGenerator::emitBoxingContantPoolEntries@963 (line 338)
                      ;   {runtime_call throw_null_pointer_exception Runtime1 stub}
  0x000001e99a3b5448: fee8 52b0 

  0x000001e99a3b544c: ; ImmutableOopMap {rdx=Oop [120]=Oop rsi=Oop [536]=Oop }
                      ;*invokevirtual cpi {reexecute=0 rethrow=0 return_oop=0}
                      ; - jdk.internal.reflect.AccessorGenerator::emitBoxingContantPoolEntries@974 (line 339)
                      ;   {runtime_call throw_incompatible_class_change_error Runtime1 stub}
  0x000001e99a3b544c: b2fe e84d 

  0x000001e99a3b5450: ; ImmutableOopMap {rsi=Oop [536]=Oop [120]=Oop rax=Oop }
                      ;*invokeinterface add {reexecute=0 rethrow=0 return_oop=0}
                      ; - jdk.internal.reflect.ClassFileAssembler::emitByte@5 (line 74)
                      ; - jdk.internal.reflect.ClassFileAssembler::emitConstantPoolMethodref@3 (line 137)
                      ; - jdk.internal.reflect.AccessorGenerator::emitBoxingContantPoolEntries@988 (line 339)
                      ;   {runtime_call throw_null_pointer_exception Runtime1 stub}
  0x000001e99a3b5450: e3b2 fee8 

  0x000001e99a3b5454: ; ImmutableOopMap {rsi=Oop [536]=Oop [120]=Oop rax=Oop }
                      ;*invokeinterface add {reexecute=0 rethrow=0 return_oop=0}
                      ; - jdk.internal.reflect.ClassFileAssembler::emitByte@5 (line 74)
                      ; - jdk.internal.reflect.ClassFileAssembler::emitConstantPoolMethodref@3 (line 137)
                      ; - jdk.internal.reflect.AccessorGenerator::emitBoxingContantPoolEntries@988 (line 339)
  0x000001e99a3b5454: 48b0 b2fe 

  0x000001e99a3b5458: ;   {runtime_call throw_incompatible_class_change_error Runtime1 stub}
  0x000001e99a3b5458: e843 e3b2 

  0x000001e99a3b545c: ; ImmutableOopMap {[120]=Oop rsi=Oop [536]=Oop rdx=Oop }
                      ;*invokeinterface add {reexecute=0 rethrow=0 return_oop=0}
                      ; - jdk.internal.reflect.ClassFileAssembler::emitByte@5 (line 74)
                      ; - jdk.internal.reflect.ClassFileAssembler::emitShort@10 (line 63)
                      ; - jdk.internal.reflect.ClassFileAssembler::emitConstantPoolMethodref@8 (line 138)
                      ; - jdk.internal.reflect.AccessorGenerator::emitBoxingContantPoolEntries@988 (line 339)
                      ;   {runtime_call throw_null_pointer_exception Runtime1 stub}
  0x000001e99a3b545c: fee8 3eb0 

  0x000001e99a3b5460: ; ImmutableOopMap {[120]=Oop rsi=Oop [536]=Oop rdx=Oop }
                      ;*invokeinterface add {reexecute=0 rethrow=0 return_oop=0}
                      ; - jdk.internal.reflect.ClassFileAssembler::emitByte@5 (line 74)
                      ; - jdk.internal.reflect.ClassFileAssembler::emitShort@10 (line 63)
                      ; - jdk.internal.reflect.ClassFileAssembler::emitConstantPoolMethodref@8 (line 138)
                      ; - jdk.internal.reflect.AccessorGenerator::emitBoxingContantPoolEntries@988 (line 339)
                      ;   {runtime_call throw_incompatible_class_change_error Runtime1 stub}
  0x000001e99a3b5460: b2fe e839 

  0x000001e99a3b5464: ; ImmutableOopMap {[120]=Oop rsi=Oop [536]=Oop rdx=Oop }
                      ;*invokeinterface add {reexecute=0 rethrow=0 return_oop=0}
                      ; - jdk.internal.reflect.ClassFileAssembler::emitByte@5 (line 74)
                      ; - jdk.internal.reflect.ClassFileAssembler::emitShort@20 (line 64)
                      ; - jdk.internal.reflect.ClassFileAssembler::emitConstantPoolMethodref@8 (line 138)
                      ; - jdk.internal.reflect.AccessorGenerator::emitBoxingContantPoolEntries@988 (line 339)
                      ;   {runtime_call throw_null_pointer_exception Runtime1 stub}
  0x000001e99a3b5464: e3b2 fee8 

  0x000001e99a3b5468: ; ImmutableOopMap {[120]=Oop rsi=Oop [536]=Oop rdx=Oop }
                      ;*invokeinterface add {reexecute=0 rethrow=0 return_oop=0}
                      ; - jdk.internal.reflect.ClassFileAssembler::emitByte@5 (line 74)
                      ; - jdk.internal.reflect.ClassFileAssembler::emitShort@20 (line 64)
                      ; - jdk.internal.reflect.ClassFileAssembler::emitConstantPoolMethodref@8 (line 138)
                      ; - jdk.internal.reflect.AccessorGenerator::emitBoxingContantPoolEntries@988 (line 339)
  0x000001e99a3b5468: 34b0 b2fe 

  0x000001e99a3b546c: ;   {runtime_call throw_incompatible_class_change_error Runtime1 stub}
  0x000001e99a3b546c: e82f e3b2 

  0x000001e99a3b5470: ; ImmutableOopMap {[120]=Oop rsi=Oop [536]=Oop rdx=Oop }
                      ;*invokeinterface add {reexecute=0 rethrow=0 return_oop=0}
                      ; - jdk.internal.reflect.ClassFileAssembler::emitByte@5 (line 74)
                      ; - jdk.internal.reflect.ClassFileAssembler::emitShort@10 (line 63)
                      ; - jdk.internal.reflect.ClassFileAssembler::emitConstantPoolMethodref@13 (line 139)
                      ; - jdk.internal.reflect.AccessorGenerator::emitBoxingContantPoolEntries@988 (line 339)
                      ;   {runtime_call throw_null_pointer_exception Runtime1 stub}
  0x000001e99a3b5470: fee8 2ab0 

  0x000001e99a3b5474: ; ImmutableOopMap {[120]=Oop rsi=Oop [536]=Oop rdx=Oop }
                      ;*invokeinterface add {reexecute=0 rethrow=0 return_oop=0}
                      ; - jdk.internal.reflect.ClassFileAssembler::emitByte@5 (line 74)
                      ; - jdk.internal.reflect.ClassFileAssembler::emitShort@10 (line 63)
                      ; - jdk.internal.reflect.ClassFileAssembler::emitConstantPoolMethodref@13 (line 139)
                      ; - jdk.internal.reflect.AccessorGenerator::emitBoxingContantPoolEntries@988 (line 339)
                      ;   {runtime_call throw_incompatible_class_change_error Runtime1 stub}
  0x000001e99a3b5474: b2fe e825 

  0x000001e99a3b5478: ; ImmutableOopMap {[120]=Oop rsi=Oop [536]=Oop rdx=Oop }
                      ;*invokeinterface add {reexecute=0 rethrow=0 return_oop=0}
                      ; - jdk.internal.reflect.ClassFileAssembler::emitByte@5 (line 74)
                      ; - jdk.internal.reflect.ClassFileAssembler::emitShort@20 (line 64)
                      ; - jdk.internal.reflect.ClassFileAssembler::emitConstantPoolMethodref@13 (line 139)
                      ; - jdk.internal.reflect.AccessorGenerator::emitBoxingContantPoolEntries@988 (line 339)
                      ;   {runtime_call throw_null_pointer_exception Runtime1 stub}
  0x000001e99a3b5478: e3b2 fee8 

  0x000001e99a3b547c: ; ImmutableOopMap {[120]=Oop rsi=Oop [536]=Oop rdx=Oop }
                      ;*invokeinterface add {reexecute=0 rethrow=0 return_oop=0}
                      ; - jdk.internal.reflect.ClassFileAssembler::emitByte@5 (line 74)
                      ; - jdk.internal.reflect.ClassFileAssembler::emitShort@20 (line 64)
                      ; - jdk.internal.reflect.ClassFileAssembler::emitConstantPoolMethodref@13 (line 139)
                      ; - jdk.internal.reflect.AccessorGenerator::emitBoxingContantPoolEntries@988 (line 339)
  0x000001e99a3b547c: 20b0 b2fe 

  0x000001e99a3b5480: ;   {runtime_call throw_null_pointer_exception Runtime1 stub}
  0x000001e99a3b5480: e81b b0b2 

  0x000001e99a3b5484: ; ImmutableOopMap {rdx=Oop [120]=Oop rsi=Oop }
                      ;*invokevirtual cpi {reexecute=0 rethrow=0 return_oop=0}
                      ; - jdk.internal.reflect.AccessorGenerator::emitBoxingContantPoolEntries@996 (line 340)
                      ;   {runtime_call throw_null_pointer_exception Runtime1 stub}
  0x000001e99a3b5484: fee8 16b0 

  0x000001e99a3b5488: ; ImmutableOopMap {rdx=Oop [120]=Oop rsi=Oop }
                      ;*invokevirtual emitConstantPoolUTF8 {reexecute=0 rethrow=0 return_oop=0}
                      ; - jdk.internal.reflect.AccessorGenerator::emitBoxingContantPoolEntries@1017 (line 342)
                      ;   {runtime_call throw_null_pointer_exception Runtime1 stub}
  0x000001e99a3b5488: b2fe e811 

  0x000001e99a3b548c: ; ImmutableOopMap {rdx=Oop [120]=Oop rsi=Oop [552]=Oop }
                      ;*invokevirtual cpi {reexecute=0 rethrow=0 return_oop=0}
                      ; - jdk.internal.reflect.AccessorGenerator::emitBoxingContantPoolEntries@1028 (line 343)
                      ;   {runtime_call throw_incompatible_class_change_error Runtime1 stub}
  0x000001e99a3b548c: b0b2 fee8 

  0x000001e99a3b5490: ; ImmutableOopMap {rsi=Oop [552]=Oop [120]=Oop rax=Oop }
                      ;*invokeinterface add {reexecute=0 rethrow=0 return_oop=0}
                      ; - jdk.internal.reflect.ClassFileAssembler::emitByte@5 (line 74)
                      ; - jdk.internal.reflect.ClassFileAssembler::emitConstantPoolNameAndType@3 (line 119)
                      ; - jdk.internal.reflect.AccessorGenerator::emitBoxingContantPoolEntries@1042 (line 343)
  0x000001e99a3b5490: 0ce3 b2fe 

  0x000001e99a3b5494: ;   {runtime_call throw_null_pointer_exception Runtime1 stub}
  0x000001e99a3b5494: e807 b0b2 

  0x000001e99a3b5498: ; ImmutableOopMap {rsi=Oop [552]=Oop [120]=Oop rax=Oop }
                      ;*invokeinterface add {reexecute=0 rethrow=0 return_oop=0}
                      ; - jdk.internal.reflect.ClassFileAssembler::emitByte@5 (line 74)
                      ; - jdk.internal.reflect.ClassFileAssembler::emitConstantPoolNameAndType@3 (line 119)
                      ; - jdk.internal.reflect.AccessorGenerator::emitBoxingContantPoolEntries@1042 (line 343)
                      ;   {runtime_call throw_incompatible_class_change_error Runtime1 stub}
  0x000001e99a3b5498: fee8 02e3 

  0x000001e99a3b549c: ; ImmutableOopMap {[120]=Oop rsi=Oop [552]=Oop rdx=Oop }
                      ;*invokeinterface add {reexecute=0 rethrow=0 return_oop=0}
                      ; - jdk.internal.reflect.ClassFileAssembler::emitByte@5 (line 74)
                      ; - jdk.internal.reflect.ClassFileAssembler::emitShort@10 (line 63)
                      ; - jdk.internal.reflect.ClassFileAssembler::emitConstantPoolNameAndType@8 (line 120)
                      ; - jdk.internal.reflect.AccessorGenerator::emitBoxingContantPoolEntries@1042 (line 343)
                      ;   {runtime_call throw_null_pointer_exception Runtime1 stub}
  0x000001e99a3b549c: b2fe e8fd 

  0x000001e99a3b54a0: ; ImmutableOopMap {[120]=Oop rsi=Oop [552]=Oop rdx=Oop }
                      ;*invokeinterface add {reexecute=0 rethrow=0 return_oop=0}
                      ; - jdk.internal.reflect.ClassFileAssembler::emitByte@5 (line 74)
                      ; - jdk.internal.reflect.ClassFileAssembler::emitShort@10 (line 63)
                      ; - jdk.internal.reflect.ClassFileAssembler::emitConstantPoolNameAndType@8 (line 120)
                      ; - jdk.internal.reflect.AccessorGenerator::emitBoxingContantPoolEntries@1042 (line 343)
                      ;   {runtime_call throw_incompatible_class_change_error Runtime1 stub}
  0x000001e99a3b54a0: afb2 fee8 

  0x000001e99a3b54a4: ; ImmutableOopMap {[120]=Oop rsi=Oop [552]=Oop rdx=Oop }
                      ;*invokeinterface add {reexecute=0 rethrow=0 return_oop=0}
                      ; - jdk.internal.reflect.ClassFileAssembler::emitByte@5 (line 74)
                      ; - jdk.internal.reflect.ClassFileAssembler::emitShort@20 (line 64)
                      ; - jdk.internal.reflect.ClassFileAssembler::emitConstantPoolNameAndType@8 (line 120)
                      ; - jdk.internal.reflect.AccessorGenerator::emitBoxingContantPoolEntries@1042 (line 343)
  0x000001e99a3b54a4: f8e2 b2fe 

  0x000001e99a3b54a8: ;   {runtime_call throw_null_pointer_exception Runtime1 stub}
  0x000001e99a3b54a8: e8f3 afb2 

  0x000001e99a3b54ac: ; ImmutableOopMap {[120]=Oop rsi=Oop [552]=Oop rdx=Oop }
                      ;*invokeinterface add {reexecute=0 rethrow=0 return_oop=0}
                      ; - jdk.internal.reflect.ClassFileAssembler::emitByte@5 (line 74)
                      ; - jdk.internal.reflect.ClassFileAssembler::emitShort@20 (line 64)
                      ; - jdk.internal.reflect.ClassFileAssembler::emitConstantPoolNameAndType@8 (line 120)
                      ; - jdk.internal.reflect.AccessorGenerator::emitBoxingContantPoolEntries@1042 (line 343)
                      ;   {runtime_call throw_incompatible_class_change_error Runtime1 stub}
  0x000001e99a3b54ac: fee8 eee2 

  0x000001e99a3b54b0: ; ImmutableOopMap {[120]=Oop rsi=Oop [552]=Oop rdx=Oop }
                      ;*invokeinterface add {reexecute=0 rethrow=0 return_oop=0}
                      ; - jdk.internal.reflect.ClassFileAssembler::emitByte@5 (line 74)
                      ; - jdk.internal.reflect.ClassFileAssembler::emitShort@10 (line 63)
                      ; - jdk.internal.reflect.ClassFileAssembler::emitConstantPoolNameAndType@13 (line 121)
                      ; - jdk.internal.reflect.AccessorGenerator::emitBoxingContantPoolEntries@1042 (line 343)
                      ;   {runtime_call throw_null_pointer_exception Runtime1 stub}
  0x000001e99a3b54b0: b2fe e8e9 

  0x000001e99a3b54b4: ; ImmutableOopMap {[120]=Oop rsi=Oop [552]=Oop rdx=Oop }
                      ;*invokeinterface add {reexecute=0 rethrow=0 return_oop=0}
                      ; - jdk.internal.reflect.ClassFileAssembler::emitByte@5 (line 74)
                      ; - jdk.internal.reflect.ClassFileAssembler::emitShort@10 (line 63)
                      ; - jdk.internal.reflect.ClassFileAssembler::emitConstantPoolNameAndType@13 (line 121)
                      ; - jdk.internal.reflect.AccessorGenerator::emitBoxingContantPoolEntries@1042 (line 343)
                      ;   {runtime_call throw_incompatible_class_change_error Runtime1 stub}
  0x000001e99a3b54b4: afb2 fee8 

  0x000001e99a3b54b8: ; ImmutableOopMap {[120]=Oop rsi=Oop [552]=Oop rdx=Oop }
                      ;*invokeinterface add {reexecute=0 rethrow=0 return_oop=0}
                      ; - jdk.internal.reflect.ClassFileAssembler::emitByte@5 (line 74)
                      ; - jdk.internal.reflect.ClassFileAssembler::emitShort@20 (line 64)
                      ; - jdk.internal.reflect.ClassFileAssembler::emitConstantPoolNameAndType@13 (line 121)
                      ; - jdk.internal.reflect.AccessorGenerator::emitBoxingContantPoolEntries@1042 (line 343)
  0x000001e99a3b54b8: e4e2 b2fe 

  0x000001e99a3b54bc: ;   {runtime_call throw_null_pointer_exception Runtime1 stub}
  0x000001e99a3b54bc: e8df afb2 

  0x000001e99a3b54c0: ; ImmutableOopMap {[120]=Oop rsi=Oop [552]=Oop rdx=Oop }
                      ;*invokeinterface add {reexecute=0 rethrow=0 return_oop=0}
                      ; - jdk.internal.reflect.ClassFileAssembler::emitByte@5 (line 74)
                      ; - jdk.internal.reflect.ClassFileAssembler::emitShort@20 (line 64)
                      ; - jdk.internal.reflect.ClassFileAssembler::emitConstantPoolNameAndType@13 (line 121)
                      ; - jdk.internal.reflect.AccessorGenerator::emitBoxingContantPoolEntries@1042 (line 343)
                      ;   {runtime_call throw_null_pointer_exception Runtime1 stub}
  0x000001e99a3b54c0: fee8 daaf 

  0x000001e99a3b54c4: ; ImmutableOopMap {rdx=Oop [120]=Oop rsi=Oop [568]=Oop }
                      ;*invokevirtual cpi {reexecute=0 rethrow=0 return_oop=0}
                      ; - jdk.internal.reflect.AccessorGenerator::emitBoxingContantPoolEntries@1053 (line 344)
                      ;   {runtime_call throw_incompatible_class_change_error Runtime1 stub}
  0x000001e99a3b54c4: b2fe e8d5 

  0x000001e99a3b54c8: ; ImmutableOopMap {rsi=Oop [568]=Oop [120]=Oop rax=Oop }
                      ;*invokeinterface add {reexecute=0 rethrow=0 return_oop=0}
                      ; - jdk.internal.reflect.ClassFileAssembler::emitByte@5 (line 74)
                      ; - jdk.internal.reflect.ClassFileAssembler::emitConstantPoolMethodref@3 (line 137)
                      ; - jdk.internal.reflect.AccessorGenerator::emitBoxingContantPoolEntries@1068 (line 344)
                      ;   {runtime_call throw_null_pointer_exception Runtime1 stub}
  0x000001e99a3b54c8: e2b2 fee8 

  0x000001e99a3b54cc: ; ImmutableOopMap {rsi=Oop [568]=Oop [120]=Oop rax=Oop }
                      ;*invokeinterface add {reexecute=0 rethrow=0 return_oop=0}
                      ; - jdk.internal.reflect.ClassFileAssembler::emitByte@5 (line 74)
                      ; - jdk.internal.reflect.ClassFileAssembler::emitConstantPoolMethodref@3 (line 137)
                      ; - jdk.internal.reflect.AccessorGenerator::emitBoxingContantPoolEntries@1068 (line 344)
  0x000001e99a3b54cc: d0af b2fe 

  0x000001e99a3b54d0: ;   {runtime_call throw_incompatible_class_change_error Runtime1 stub}
  0x000001e99a3b54d0: e8cb e2b2 

  0x000001e99a3b54d4: ; ImmutableOopMap {[120]=Oop rsi=Oop [568]=Oop rdx=Oop }
                      ;*invokeinterface add {reexecute=0 rethrow=0 return_oop=0}
                      ; - jdk.internal.reflect.ClassFileAssembler::emitByte@5 (line 74)
                      ; - jdk.internal.reflect.ClassFileAssembler::emitShort@10 (line 63)
                      ; - jdk.internal.reflect.ClassFileAssembler::emitConstantPoolMethodref@8 (line 138)
                      ; - jdk.internal.reflect.AccessorGenerator::emitBoxingContantPoolEntries@1068 (line 344)
                      ;   {runtime_call throw_null_pointer_exception Runtime1 stub}
  0x000001e99a3b54d4: fee8 c6af 

  0x000001e99a3b54d8: ; ImmutableOopMap {[120]=Oop rsi=Oop [568]=Oop rdx=Oop }
                      ;*invokeinterface add {reexecute=0 rethrow=0 return_oop=0}
                      ; - jdk.internal.reflect.ClassFileAssembler::emitByte@5 (line 74)
                      ; - jdk.internal.reflect.ClassFileAssembler::emitShort@10 (line 63)
                      ; - jdk.internal.reflect.ClassFileAssembler::emitConstantPoolMethodref@8 (line 138)
                      ; - jdk.internal.reflect.AccessorGenerator::emitBoxingContantPoolEntries@1068 (line 344)
                      ;   {runtime_call throw_incompatible_class_change_error Runtime1 stub}
  0x000001e99a3b54d8: b2fe e8c1 

  0x000001e99a3b54dc: ; ImmutableOopMap {[120]=Oop rsi=Oop [568]=Oop rdx=Oop }
                      ;*invokeinterface add {reexecute=0 rethrow=0 return_oop=0}
                      ; - jdk.internal.reflect.ClassFileAssembler::emitByte@5 (line 74)
                      ; - jdk.internal.reflect.ClassFileAssembler::emitShort@20 (line 64)
                      ; - jdk.internal.reflect.ClassFileAssembler::emitConstantPoolMethodref@8 (line 138)
                      ; - jdk.internal.reflect.AccessorGenerator::emitBoxingContantPoolEntries@1068 (line 344)
                      ;   {runtime_call throw_null_pointer_exception Runtime1 stub}
  0x000001e99a3b54dc: e2b2 fee8 

  0x000001e99a3b54e0: ; ImmutableOopMap {[120]=Oop rsi=Oop [568]=Oop rdx=Oop }
                      ;*invokeinterface add {reexecute=0 rethrow=0 return_oop=0}
                      ; - jdk.internal.reflect.ClassFileAssembler::emitByte@5 (line 74)
                      ; - jdk.internal.reflect.ClassFileAssembler::emitShort@20 (line 64)
                      ; - jdk.internal.reflect.ClassFileAssembler::emitConstantPoolMethodref@8 (line 138)
                      ; - jdk.internal.reflect.AccessorGenerator::emitBoxingContantPoolEntries@1068 (line 344)
  0x000001e99a3b54e0: bcaf b2fe 

  0x000001e99a3b54e4: ;   {runtime_call throw_incompatible_class_change_error Runtime1 stub}
  0x000001e99a3b54e4: e8b7 e2b2 

  0x000001e99a3b54e8: ; ImmutableOopMap {[120]=Oop rsi=Oop [568]=Oop rdx=Oop }
                      ;*invokeinterface add {reexecute=0 rethrow=0 return_oop=0}
                      ; - jdk.internal.reflect.ClassFileAssembler::emitByte@5 (line 74)
                      ; - jdk.internal.reflect.ClassFileAssembler::emitShort@10 (line 63)
                      ; - jdk.internal.reflect.ClassFileAssembler::emitConstantPoolMethodref@13 (line 139)
                      ; - jdk.internal.reflect.AccessorGenerator::emitBoxingContantPoolEntries@1068 (line 344)
                      ;   {runtime_call throw_null_pointer_exception Runtime1 stub}
  0x000001e99a3b54e8: fee8 b2af 

  0x000001e99a3b54ec: ; ImmutableOopMap {[120]=Oop rsi=Oop [568]=Oop rdx=Oop }
                      ;*invokeinterface add {reexecute=0 rethrow=0 return_oop=0}
                      ; - jdk.internal.reflect.ClassFileAssembler::emitByte@5 (line 74)
                      ; - jdk.internal.reflect.ClassFileAssembler::emitShort@10 (line 63)
                      ; - jdk.internal.reflect.ClassFileAssembler::emitConstantPoolMethodref@13 (line 139)
                      ; - jdk.internal.reflect.AccessorGenerator::emitBoxingContantPoolEntries@1068 (line 344)
                      ;   {runtime_call throw_incompatible_class_change_error Runtime1 stub}
  0x000001e99a3b54ec: b2fe e8ad 

  0x000001e99a3b54f0: ; ImmutableOopMap {[120]=Oop rsi=Oop [568]=Oop rdx=Oop }
                      ;*invokeinterface add {reexecute=0 rethrow=0 return_oop=0}
                      ; - jdk.internal.reflect.ClassFileAssembler::emitByte@5 (line 74)
                      ; - jdk.internal.reflect.ClassFileAssembler::emitShort@20 (line 64)
                      ; - jdk.internal.reflect.ClassFileAssembler::emitConstantPoolMethodref@13 (line 139)
                      ; - jdk.internal.reflect.AccessorGenerator::emitBoxingContantPoolEntries@1068 (line 344)
                      ;   {runtime_call throw_null_pointer_exception Runtime1 stub}
  0x000001e99a3b54f0: e2b2 fee8 

  0x000001e99a3b54f4: ; ImmutableOopMap {[120]=Oop rsi=Oop [568]=Oop rdx=Oop }
                      ;*invokeinterface add {reexecute=0 rethrow=0 return_oop=0}
                      ; - jdk.internal.reflect.ClassFileAssembler::emitByte@5 (line 74)
                      ; - jdk.internal.reflect.ClassFileAssembler::emitShort@20 (line 64)
                      ; - jdk.internal.reflect.ClassFileAssembler::emitConstantPoolMethodref@13 (line 139)
                      ; - jdk.internal.reflect.AccessorGenerator::emitBoxingContantPoolEntries@1068 (line 344)
  0x000001e99a3b54f4: a8af b2fe 

  0x000001e99a3b54f8: ;   {runtime_call throw_null_pointer_exception Runtime1 stub}
  0x000001e99a3b54f8: e8a3 afb2 

  0x000001e99a3b54fc: ; ImmutableOopMap {rdx=Oop [120]=Oop rsi=Oop }
                      ;*invokevirtual cpi {reexecute=0 rethrow=0 return_oop=0}
                      ; - jdk.internal.reflect.AccessorGenerator::emitBoxingContantPoolEntries@1076 (line 345)
                      ;   {runtime_call throw_null_pointer_exception Runtime1 stub}
  0x000001e99a3b54fc: fee8 9eaf 

  0x000001e99a3b5500: ; ImmutableOopMap {rdx=Oop [120]=Oop rsi=Oop [584]=Oop }
                      ;*invokevirtual cpi {reexecute=0 rethrow=0 return_oop=0}
                      ; - jdk.internal.reflect.AccessorGenerator::emitBoxingContantPoolEntries@1099 (line 349)
                      ;   {runtime_call throw_incompatible_class_change_error Runtime1 stub}
  0x000001e99a3b5500: b2fe e899 

  0x000001e99a3b5504: ; ImmutableOopMap {rsi=Oop [584]=Oop [120]=Oop rdi=Oop }
                      ;*invokeinterface add {reexecute=0 rethrow=0 return_oop=0}
                      ; - jdk.internal.reflect.ClassFileAssembler::emitByte@5 (line 74)
                      ; - jdk.internal.reflect.ClassFileAssembler::emitConstantPoolClass@3 (line 113)
                      ; - jdk.internal.reflect.AccessorGenerator::emitBoxingContantPoolEntries@1102 (line 349)
                      ;   {runtime_call throw_null_pointer_exception Runtime1 stub}
  0x000001e99a3b5504: e2b2 fee8 

  0x000001e99a3b5508: ; ImmutableOopMap {rsi=Oop [584]=Oop [120]=Oop rdi=Oop }
                      ;*invokeinterface add {reexecute=0 rethrow=0 return_oop=0}
                      ; - jdk.internal.reflect.ClassFileAssembler::emitByte@5 (line 74)
                      ; - jdk.internal.reflect.ClassFileAssembler::emitConstantPoolClass@3 (line 113)
                      ; - jdk.internal.reflect.AccessorGenerator::emitBoxingContantPoolEntries@1102 (line 349)
  0x000001e99a3b5508: 94af b2fe 

  0x000001e99a3b550c: ;   {runtime_call throw_incompatible_class_change_error Runtime1 stub}
  0x000001e99a3b550c: e88f e2b2 

  0x000001e99a3b5510: ; ImmutableOopMap {[120]=Oop rsi=Oop [584]=Oop rdx=Oop }
                      ;*invokeinterface add {reexecute=0 rethrow=0 return_oop=0}
                      ; - jdk.internal.reflect.ClassFileAssembler::emitByte@5 (line 74)
                      ; - jdk.internal.reflect.ClassFileAssembler::emitShort@10 (line 63)
                      ; - jdk.internal.reflect.ClassFileAssembler::emitConstantPoolClass@8 (line 114)
                      ; - jdk.internal.reflect.AccessorGenerator::emitBoxingContantPoolEntries@1102 (line 349)
                      ;   {runtime_call throw_null_pointer_exception Runtime1 stub}
  0x000001e99a3b5510: fee8 8aaf 

  0x000001e99a3b5514: ; ImmutableOopMap {[120]=Oop rsi=Oop [584]=Oop rdx=Oop }
                      ;*invokeinterface add {reexecute=0 rethrow=0 return_oop=0}
                      ; - jdk.internal.reflect.ClassFileAssembler::emitByte@5 (line 74)
                      ; - jdk.internal.reflect.ClassFileAssembler::emitShort@10 (line 63)
                      ; - jdk.internal.reflect.ClassFileAssembler::emitConstantPoolClass@8 (line 114)
                      ; - jdk.internal.reflect.AccessorGenerator::emitBoxingContantPoolEntries@1102 (line 349)
                      ;   {runtime_call throw_incompatible_class_change_error Runtime1 stub}
  0x000001e99a3b5514: b2fe e885 

  0x000001e99a3b5518: ; ImmutableOopMap {[120]=Oop rsi=Oop [584]=Oop rdx=Oop }
                      ;*invokeinterface add {reexecute=0 rethrow=0 return_oop=0}
                      ; - jdk.internal.reflect.ClassFileAssembler::emitByte@5 (line 74)
                      ; - jdk.internal.reflect.ClassFileAssembler::emitShort@20 (line 64)
                      ; - jdk.internal.reflect.ClassFileAssembler::emitConstantPoolClass@8 (line 114)
                      ; - jdk.internal.reflect.AccessorGenerator::emitBoxingContantPoolEntries@1102 (line 349)
                      ;   {runtime_call throw_null_pointer_exception Runtime1 stub}
  0x000001e99a3b5518: e2b2 fee8 

  0x000001e99a3b551c: ; ImmutableOopMap {[120]=Oop rsi=Oop [584]=Oop rdx=Oop }
                      ;*invokeinterface add {reexecute=0 rethrow=0 return_oop=0}
                      ; - jdk.internal.reflect.ClassFileAssembler::emitByte@5 (line 74)
                      ; - jdk.internal.reflect.ClassFileAssembler::emitShort@20 (line 64)
                      ; - jdk.internal.reflect.ClassFileAssembler::emitConstantPoolClass@8 (line 114)
                      ; - jdk.internal.reflect.AccessorGenerator::emitBoxingContantPoolEntries@1102 (line 349)
  0x000001e99a3b551c: 80af b2fe 

  0x000001e99a3b5520: ;   {runtime_call throw_null_pointer_exception Runtime1 stub}
  0x000001e99a3b5520: e87b afb2 

  0x000001e99a3b5524: ; ImmutableOopMap {rdx=Oop [120]=Oop rsi=Oop }
                      ;*invokevirtual cpi {reexecute=0 rethrow=0 return_oop=0}
                      ; - jdk.internal.reflect.AccessorGenerator::emitBoxingContantPoolEntries@1110 (line 350)
                      ;   {runtime_call throw_null_pointer_exception Runtime1 stub}
  0x000001e99a3b5524: fee8 76af 

  0x000001e99a3b5528: ; ImmutableOopMap {rdx=Oop [120]=Oop rsi=Oop [600]=Oop }
                      ;*invokevirtual cpi {reexecute=0 rethrow=0 return_oop=0}
                      ; - jdk.internal.reflect.AccessorGenerator::emitBoxingContantPoolEntries@1137 (line 352)
                      ;   {runtime_call throw_incompatible_class_change_error Runtime1 stub}
  0x000001e99a3b5528: b2fe e871 

  0x000001e99a3b552c: ; ImmutableOopMap {rsi=Oop [600]=Oop [120]=Oop rbx=Oop }
                      ;*invokeinterface add {reexecute=0 rethrow=0 return_oop=0}
                      ; - jdk.internal.reflect.ClassFileAssembler::emitByte@5 (line 74)
                      ; - jdk.internal.reflect.ClassFileAssembler::emitConstantPoolNameAndType@3 (line 119)
                      ; - jdk.internal.reflect.AccessorGenerator::emitBoxingContantPoolEntries@1140 (line 352)
                      ;   {runtime_call throw_null_pointer_exception Runtime1 stub}
  0x000001e99a3b552c: e2b2 fee8 

  0x000001e99a3b5530: ; ImmutableOopMap {rsi=Oop [600]=Oop [120]=Oop rbx=Oop }
                      ;*invokeinterface add {reexecute=0 rethrow=0 return_oop=0}
                      ; - jdk.internal.reflect.ClassFileAssembler::emitByte@5 (line 74)
                      ; - jdk.internal.reflect.ClassFileAssembler::emitConstantPoolNameAndType@3 (line 119)
                      ; - jdk.internal.reflect.AccessorGenerator::emitBoxingContantPoolEntries@1140 (line 352)
  0x000001e99a3b5530: 6caf b2fe 

  0x000001e99a3b5534: ;   {runtime_call throw_incompatible_class_change_error Runtime1 stub}
  0x000001e99a3b5534: e867 e2b2 

  0x000001e99a3b5538: ; ImmutableOopMap {[120]=Oop rsi=Oop [600]=Oop rdx=Oop }
                      ;*invokeinterface add {reexecute=0 rethrow=0 return_oop=0}
                      ; - jdk.internal.reflect.ClassFileAssembler::emitByte@5 (line 74)
                      ; - jdk.internal.reflect.ClassFileAssembler::emitShort@10 (line 63)
                      ; - jdk.internal.reflect.ClassFileAssembler::emitConstantPoolNameAndType@8 (line 120)
                      ; - jdk.internal.reflect.AccessorGenerator::emitBoxingContantPoolEntries@1140 (line 352)
                      ;   {runtime_call throw_null_pointer_exception Runtime1 stub}
  0x000001e99a3b5538: fee8 62af 

  0x000001e99a3b553c: ; ImmutableOopMap {[120]=Oop rsi=Oop [600]=Oop rdx=Oop }
                      ;*invokeinterface add {reexecute=0 rethrow=0 return_oop=0}
                      ; - jdk.internal.reflect.ClassFileAssembler::emitByte@5 (line 74)
                      ; - jdk.internal.reflect.ClassFileAssembler::emitShort@10 (line 63)
                      ; - jdk.internal.reflect.ClassFileAssembler::emitConstantPoolNameAndType@8 (line 120)
                      ; - jdk.internal.reflect.AccessorGenerator::emitBoxingContantPoolEntries@1140 (line 352)
                      ;   {runtime_call throw_incompatible_class_change_error Runtime1 stub}
  0x000001e99a3b553c: b2fe e85d 

  0x000001e99a3b5540: ; ImmutableOopMap {[120]=Oop rsi=Oop [600]=Oop rdx=Oop }
                      ;*invokeinterface add {reexecute=0 rethrow=0 return_oop=0}
                      ; - jdk.internal.reflect.ClassFileAssembler::emitByte@5 (line 74)
                      ; - jdk.internal.reflect.ClassFileAssembler::emitShort@20 (line 64)
                      ; - jdk.internal.reflect.ClassFileAssembler::emitConstantPoolNameAndType@8 (line 120)
                      ; - jdk.internal.reflect.AccessorGenerator::emitBoxingContantPoolEntries@1140 (line 352)
                      ;   {runtime_call throw_null_pointer_exception Runtime1 stub}
  0x000001e99a3b5540: e2b2 fee8 

  0x000001e99a3b5544: ; ImmutableOopMap {[120]=Oop rsi=Oop [600]=Oop rdx=Oop }
                      ;*invokeinterface add {reexecute=0 rethrow=0 return_oop=0}
                      ; - jdk.internal.reflect.ClassFileAssembler::emitByte@5 (line 74)
                      ; - jdk.internal.reflect.ClassFileAssembler::emitShort@20 (line 64)
                      ; - jdk.internal.reflect.ClassFileAssembler::emitConstantPoolNameAndType@8 (line 120)
                      ; - jdk.internal.reflect.AccessorGenerator::emitBoxingContantPoolEntries@1140 (line 352)
  0x000001e99a3b5544: 58af b2fe 

  0x000001e99a3b5548: ;   {runtime_call throw_incompatible_class_change_error Runtime1 stub}
  0x000001e99a3b5548: e853 e2b2 

  0x000001e99a3b554c: ; ImmutableOopMap {[120]=Oop rsi=Oop [600]=Oop rdx=Oop }
                      ;*invokeinterface add {reexecute=0 rethrow=0 return_oop=0}
                      ; - jdk.internal.reflect.ClassFileAssembler::emitByte@5 (line 74)
                      ; - jdk.internal.reflect.ClassFileAssembler::emitShort@10 (line 63)
                      ; - jdk.internal.reflect.ClassFileAssembler::emitConstantPoolNameAndType@13 (line 121)
                      ; - jdk.internal.reflect.AccessorGenerator::emitBoxingContantPoolEntries@1140 (line 352)
                      ;   {runtime_call throw_null_pointer_exception Runtime1 stub}
  0x000001e99a3b554c: fee8 4eaf 

  0x000001e99a3b5550: ; ImmutableOopMap {[120]=Oop rsi=Oop [600]=Oop rdx=Oop }
                      ;*invokeinterface add {reexecute=0 rethrow=0 return_oop=0}
                      ; - jdk.internal.reflect.ClassFileAssembler::emitByte@5 (line 74)
                      ; - jdk.internal.reflect.ClassFileAssembler::emitShort@10 (line 63)
                      ; - jdk.internal.reflect.ClassFileAssembler::emitConstantPoolNameAndType@13 (line 121)
                      ; - jdk.internal.reflect.AccessorGenerator::emitBoxingContantPoolEntries@1140 (line 352)
                      ;   {runtime_call throw_incompatible_class_change_error Runtime1 stub}
  0x000001e99a3b5550: b2fe e849 

  0x000001e99a3b5554: ; ImmutableOopMap {[120]=Oop rsi=Oop [600]=Oop rdx=Oop }
                      ;*invokeinterface add {reexecute=0 rethrow=0 return_oop=0}
                      ; - jdk.internal.reflect.ClassFileAssembler::emitByte@5 (line 74)
                      ; - jdk.internal.reflect.ClassFileAssembler::emitShort@20 (line 64)
                      ; - jdk.internal.reflect.ClassFileAssembler::emitConstantPoolNameAndType@13 (line 121)
                      ; - jdk.internal.reflect.AccessorGenerator::emitBoxingContantPoolEntries@1140 (line 352)
                      ;   {runtime_call throw_null_pointer_exception Runtime1 stub}
  0x000001e99a3b5554: e2b2 fee8 

  0x000001e99a3b5558: ; ImmutableOopMap {[120]=Oop rsi=Oop [600]=Oop rdx=Oop }
                      ;*invokeinterface add {reexecute=0 rethrow=0 return_oop=0}
                      ; - jdk.internal.reflect.ClassFileAssembler::emitByte@5 (line 74)
                      ; - jdk.internal.reflect.ClassFileAssembler::emitShort@20 (line 64)
                      ; - jdk.internal.reflect.ClassFileAssembler::emitConstantPoolNameAndType@13 (line 121)
                      ; - jdk.internal.reflect.AccessorGenerator::emitBoxingContantPoolEntries@1140 (line 352)
  0x000001e99a3b5558: 44af b2fe 

  0x000001e99a3b555c: ;   {runtime_call throw_null_pointer_exception Runtime1 stub}
  0x000001e99a3b555c: e83f afb2 

  0x000001e99a3b5560: ; ImmutableOopMap {rdx=Oop [120]=Oop rsi=Oop [616]=Oop }
                      ;*invokevirtual cpi {reexecute=0 rethrow=0 return_oop=0}
                      ; - jdk.internal.reflect.AccessorGenerator::emitBoxingContantPoolEntries@1151 (line 353)
                      ;   {runtime_call throw_incompatible_class_change_error Runtime1 stub}
  0x000001e99a3b5560: fee8 3ae2 

  0x000001e99a3b5564: ; ImmutableOopMap {rsi=Oop [616]=Oop [120]=Oop rax=Oop }
                      ;*invokeinterface add {reexecute=0 rethrow=0 return_oop=0}
                      ; - jdk.internal.reflect.ClassFileAssembler::emitByte@5 (line 74)
                      ; - jdk.internal.reflect.ClassFileAssembler::emitConstantPoolMethodref@3 (line 137)
                      ; - jdk.internal.reflect.AccessorGenerator::emitBoxingContantPoolEntries@1165 (line 353)
                      ;   {runtime_call throw_null_pointer_exception Runtime1 stub}
  0x000001e99a3b5564: b2fe e835 

  0x000001e99a3b5568: ; ImmutableOopMap {rsi=Oop [616]=Oop [120]=Oop rax=Oop }
                      ;*invokeinterface add {reexecute=0 rethrow=0 return_oop=0}
                      ; - jdk.internal.reflect.ClassFileAssembler::emitByte@5 (line 74)
                      ; - jdk.internal.reflect.ClassFileAssembler::emitConstantPoolMethodref@3 (line 137)
                      ; - jdk.internal.reflect.AccessorGenerator::emitBoxingContantPoolEntries@1165 (line 353)
                      ;   {runtime_call throw_incompatible_class_change_error Runtime1 stub}
  0x000001e99a3b5568: afb2 fee8 

  0x000001e99a3b556c: ; ImmutableOopMap {[120]=Oop rsi=Oop [616]=Oop rdx=Oop }
                      ;*invokeinterface add {reexecute=0 rethrow=0 return_oop=0}
                      ; - jdk.internal.reflect.ClassFileAssembler::emitByte@5 (line 74)
                      ; - jdk.internal.reflect.ClassFileAssembler::emitShort@10 (line 63)
                      ; - jdk.internal.reflect.ClassFileAssembler::emitConstantPoolMethodref@8 (line 138)
                      ; - jdk.internal.reflect.AccessorGenerator::emitBoxingContantPoolEntries@1165 (line 353)
  0x000001e99a3b556c: 30e2 b2fe 

  0x000001e99a3b5570: ;   {runtime_call throw_null_pointer_exception Runtime1 stub}
  0x000001e99a3b5570: e82b afb2 

  0x000001e99a3b5574: ; ImmutableOopMap {[120]=Oop rsi=Oop [616]=Oop rdx=Oop }
                      ;*invokeinterface add {reexecute=0 rethrow=0 return_oop=0}
                      ; - jdk.internal.reflect.ClassFileAssembler::emitByte@5 (line 74)
                      ; - jdk.internal.reflect.ClassFileAssembler::emitShort@10 (line 63)
                      ; - jdk.internal.reflect.ClassFileAssembler::emitConstantPoolMethodref@8 (line 138)
                      ; - jdk.internal.reflect.AccessorGenerator::emitBoxingContantPoolEntries@1165 (line 353)
                      ;   {runtime_call throw_incompatible_class_change_error Runtime1 stub}
  0x000001e99a3b5574: fee8 26e2 

  0x000001e99a3b5578: ; ImmutableOopMap {[120]=Oop rsi=Oop [616]=Oop rdx=Oop }
                      ;*invokeinterface add {reexecute=0 rethrow=0 return_oop=0}
                      ; - jdk.internal.reflect.ClassFileAssembler::emitByte@5 (line 74)
                      ; - jdk.internal.reflect.ClassFileAssembler::emitShort@20 (line 64)
                      ; - jdk.internal.reflect.ClassFileAssembler::emitConstantPoolMethodref@8 (line 138)
                      ; - jdk.internal.reflect.AccessorGenerator::emitBoxingContantPoolEntries@1165 (line 353)
                      ;   {runtime_call throw_null_pointer_exception Runtime1 stub}
  0x000001e99a3b5578: b2fe e821 

  0x000001e99a3b557c: ; ImmutableOopMap {[120]=Oop rsi=Oop [616]=Oop rdx=Oop }
                      ;*invokeinterface add {reexecute=0 rethrow=0 return_oop=0}
                      ; - jdk.internal.reflect.ClassFileAssembler::emitByte@5 (line 74)
                      ; - jdk.internal.reflect.ClassFileAssembler::emitShort@20 (line 64)
                      ; - jdk.internal.reflect.ClassFileAssembler::emitConstantPoolMethodref@8 (line 138)
                      ; - jdk.internal.reflect.AccessorGenerator::emitBoxingContantPoolEntries@1165 (line 353)
                      ;   {runtime_call throw_incompatible_class_change_error Runtime1 stub}
  0x000001e99a3b557c: afb2 fee8 

  0x000001e99a3b5580: ; ImmutableOopMap {[120]=Oop rsi=Oop [616]=Oop rdx=Oop }
                      ;*invokeinterface add {reexecute=0 rethrow=0 return_oop=0}
                      ; - jdk.internal.reflect.ClassFileAssembler::emitByte@5 (line 74)
                      ; - jdk.internal.reflect.ClassFileAssembler::emitShort@10 (line 63)
                      ; - jdk.internal.reflect.ClassFileAssembler::emitConstantPoolMethodref@13 (line 139)
                      ; - jdk.internal.reflect.AccessorGenerator::emitBoxingContantPoolEntries@1165 (line 353)
  0x000001e99a3b5580: 1ce2 b2fe 

  0x000001e99a3b5584: ;   {runtime_call throw_null_pointer_exception Runtime1 stub}
  0x000001e99a3b5584: e817 afb2 

  0x000001e99a3b5588: ; ImmutableOopMap {[120]=Oop rsi=Oop [616]=Oop rdx=Oop }
                      ;*invokeinterface add {reexecute=0 rethrow=0 return_oop=0}
                      ; - jdk.internal.reflect.ClassFileAssembler::emitByte@5 (line 74)
                      ; - jdk.internal.reflect.ClassFileAssembler::emitShort@10 (line 63)
                      ; - jdk.internal.reflect.ClassFileAssembler::emitConstantPoolMethodref@13 (line 139)
                      ; - jdk.internal.reflect.AccessorGenerator::emitBoxingContantPoolEntries@1165 (line 353)
                      ;   {runtime_call throw_incompatible_class_change_error Runtime1 stub}
  0x000001e99a3b5588: fee8 12e2 

  0x000001e99a3b558c: ; ImmutableOopMap {[120]=Oop rsi=Oop [616]=Oop rdx=Oop }
                      ;*invokeinterface add {reexecute=0 rethrow=0 return_oop=0}
                      ; - jdk.internal.reflect.ClassFileAssembler::emitByte@5 (line 74)
                      ; - jdk.internal.reflect.ClassFileAssembler::emitShort@20 (line 64)
                      ; - jdk.internal.reflect.ClassFileAssembler::emitConstantPoolMethodref@13 (line 139)
                      ; - jdk.internal.reflect.AccessorGenerator::emitBoxingContantPoolEntries@1165 (line 353)
                      ;   {runtime_call throw_null_pointer_exception Runtime1 stub}
  0x000001e99a3b558c: b2fe e80d 

  0x000001e99a3b5590: ; ImmutableOopMap {[120]=Oop rsi=Oop [616]=Oop rdx=Oop }
                      ;*invokeinterface add {reexecute=0 rethrow=0 return_oop=0}
                      ; - jdk.internal.reflect.ClassFileAssembler::emitByte@5 (line 74)
                      ; - jdk.internal.reflect.ClassFileAssembler::emitShort@20 (line 64)
                      ; - jdk.internal.reflect.ClassFileAssembler::emitConstantPoolMethodref@13 (line 139)
                      ; - jdk.internal.reflect.AccessorGenerator::emitBoxingContantPoolEntries@1165 (line 353)
                      ;   {runtime_call throw_null_pointer_exception Runtime1 stub}
  0x000001e99a3b5590: afb2 fee8 

  0x000001e99a3b5594: ; ImmutableOopMap {rdx=Oop [120]=Oop rsi=Oop }
                      ;*invokevirtual cpi {reexecute=0 rethrow=0 return_oop=0}
                      ; - jdk.internal.reflect.AccessorGenerator::emitBoxingContantPoolEntries@1173 (line 354)
  0x000001e99a3b5594: 08af b2fe 

  0x000001e99a3b5598: ;   {runtime_call throw_null_pointer_exception Runtime1 stub}
  0x000001e99a3b5598: e803 afb2 

  0x000001e99a3b559c: ; ImmutableOopMap {rdx=Oop [120]=Oop rsi=Oop }
                      ;*invokevirtual emitConstantPoolUTF8 {reexecute=0 rethrow=0 return_oop=0}
                      ; - jdk.internal.reflect.AccessorGenerator::emitBoxingContantPoolEntries@1194 (line 356)
                      ;   {runtime_call throw_null_pointer_exception Runtime1 stub}
  0x000001e99a3b559c: fee8 feae 

  0x000001e99a3b55a0: ; ImmutableOopMap {rdx=Oop [120]=Oop rsi=Oop [632]=Oop }
                      ;*invokevirtual cpi {reexecute=0 rethrow=0 return_oop=0}
                      ; - jdk.internal.reflect.AccessorGenerator::emitBoxingContantPoolEntries@1205 (line 357)
                      ;   {runtime_call throw_incompatible_class_change_error Runtime1 stub}
  0x000001e99a3b55a0: b2fe e8f9 

  0x000001e99a3b55a4: ; ImmutableOopMap {rsi=Oop [632]=Oop [120]=Oop rax=Oop }
                      ;*invokeinterface add {reexecute=0 rethrow=0 return_oop=0}
                      ; - jdk.internal.reflect.ClassFileAssembler::emitByte@5 (line 74)
                      ; - jdk.internal.reflect.ClassFileAssembler::emitConstantPoolNameAndType@3 (line 119)
                      ; - jdk.internal.reflect.AccessorGenerator::emitBoxingContantPoolEntries@1219 (line 357)
                      ;   {runtime_call throw_null_pointer_exception Runtime1 stub}
  0x000001e99a3b55a4: e1b2 fee8 

  0x000001e99a3b55a8: ; ImmutableOopMap {rsi=Oop [632]=Oop [120]=Oop rax=Oop }
                      ;*invokeinterface add {reexecute=0 rethrow=0 return_oop=0}
                      ; - jdk.internal.reflect.ClassFileAssembler::emitByte@5 (line 74)
                      ; - jdk.internal.reflect.ClassFileAssembler::emitConstantPoolNameAndType@3 (line 119)
                      ; - jdk.internal.reflect.AccessorGenerator::emitBoxingContantPoolEntries@1219 (line 357)
  0x000001e99a3b55a8: f4ae b2fe 

  0x000001e99a3b55ac: ;   {runtime_call throw_incompatible_class_change_error Runtime1 stub}
  0x000001e99a3b55ac: e8ef e1b2 

  0x000001e99a3b55b0: ; ImmutableOopMap {[120]=Oop rsi=Oop [632]=Oop rdx=Oop }
                      ;*invokeinterface add {reexecute=0 rethrow=0 return_oop=0}
                      ; - jdk.internal.reflect.ClassFileAssembler::emitByte@5 (line 74)
                      ; - jdk.internal.reflect.ClassFileAssembler::emitShort@10 (line 63)
                      ; - jdk.internal.reflect.ClassFileAssembler::emitConstantPoolNameAndType@8 (line 120)
                      ; - jdk.internal.reflect.AccessorGenerator::emitBoxingContantPoolEntries@1219 (line 357)
                      ;   {runtime_call throw_null_pointer_exception Runtime1 stub}
  0x000001e99a3b55b0: fee8 eaae 

  0x000001e99a3b55b4: ; ImmutableOopMap {[120]=Oop rsi=Oop [632]=Oop rdx=Oop }
                      ;*invokeinterface add {reexecute=0 rethrow=0 return_oop=0}
                      ; - jdk.internal.reflect.ClassFileAssembler::emitByte@5 (line 74)
                      ; - jdk.internal.reflect.ClassFileAssembler::emitShort@10 (line 63)
                      ; - jdk.internal.reflect.ClassFileAssembler::emitConstantPoolNameAndType@8 (line 120)
                      ; - jdk.internal.reflect.AccessorGenerator::emitBoxingContantPoolEntries@1219 (line 357)
                      ;   {runtime_call throw_incompatible_class_change_error Runtime1 stub}
  0x000001e99a3b55b4: b2fe e8e5 

  0x000001e99a3b55b8: ; ImmutableOopMap {[120]=Oop rsi=Oop [632]=Oop rdx=Oop }
                      ;*invokeinterface add {reexecute=0 rethrow=0 return_oop=0}
                      ; - jdk.internal.reflect.ClassFileAssembler::emitByte@5 (line 74)
                      ; - jdk.internal.reflect.ClassFileAssembler::emitShort@20 (line 64)
                      ; - jdk.internal.reflect.ClassFileAssembler::emitConstantPoolNameAndType@8 (line 120)
                      ; - jdk.internal.reflect.AccessorGenerator::emitBoxingContantPoolEntries@1219 (line 357)
                      ;   {runtime_call throw_null_pointer_exception Runtime1 stub}
  0x000001e99a3b55b8: e1b2 fee8 

  0x000001e99a3b55bc: ; ImmutableOopMap {[120]=Oop rsi=Oop [632]=Oop rdx=Oop }
                      ;*invokeinterface add {reexecute=0 rethrow=0 return_oop=0}
                      ; - jdk.internal.reflect.ClassFileAssembler::emitByte@5 (line 74)
                      ; - jdk.internal.reflect.ClassFileAssembler::emitShort@20 (line 64)
                      ; - jdk.internal.reflect.ClassFileAssembler::emitConstantPoolNameAndType@8 (line 120)
                      ; - jdk.internal.reflect.AccessorGenerator::emitBoxingContantPoolEntries@1219 (line 357)
  0x000001e99a3b55bc: e0ae b2fe 

  0x000001e99a3b55c0: ;   {runtime_call throw_incompatible_class_change_error Runtime1 stub}
  0x000001e99a3b55c0: e8db e1b2 

  0x000001e99a3b55c4: ; ImmutableOopMap {[120]=Oop rsi=Oop [632]=Oop rdx=Oop }
                      ;*invokeinterface add {reexecute=0 rethrow=0 return_oop=0}
                      ; - jdk.internal.reflect.ClassFileAssembler::emitByte@5 (line 74)
                      ; - jdk.internal.reflect.ClassFileAssembler::emitShort@10 (line 63)
                      ; - jdk.internal.reflect.ClassFileAssembler::emitConstantPoolNameAndType@13 (line 121)
                      ; - jdk.internal.reflect.AccessorGenerator::emitBoxingContantPoolEntries@1219 (line 357)
                      ;   {runtime_call throw_null_pointer_exception Runtime1 stub}
  0x000001e99a3b55c4: fee8 d6ae 

  0x000001e99a3b55c8: ; ImmutableOopMap {[120]=Oop rsi=Oop [632]=Oop rdx=Oop }
                      ;*invokeinterface add {reexecute=0 rethrow=0 return_oop=0}
                      ; - jdk.internal.reflect.ClassFileAssembler::emitByte@5 (line 74)
                      ; - jdk.internal.reflect.ClassFileAssembler::emitShort@10 (line 63)
                      ; - jdk.internal.reflect.ClassFileAssembler::emitConstantPoolNameAndType@13 (line 121)
                      ; - jdk.internal.reflect.AccessorGenerator::emitBoxingContantPoolEntries@1219 (line 357)
                      ;   {runtime_call throw_incompatible_class_change_error Runtime1 stub}
  0x000001e99a3b55c8: b2fe e8d1 

  0x000001e99a3b55cc: ; ImmutableOopMap {[120]=Oop rsi=Oop [632]=Oop rdx=Oop }
                      ;*invokeinterface add {reexecute=0 rethrow=0 return_oop=0}
                      ; - jdk.internal.reflect.ClassFileAssembler::emitByte@5 (line 74)
                      ; - jdk.internal.reflect.ClassFileAssembler::emitShort@20 (line 64)
                      ; - jdk.internal.reflect.ClassFileAssembler::emitConstantPoolNameAndType@13 (line 121)
                      ; - jdk.internal.reflect.AccessorGenerator::emitBoxingContantPoolEntries@1219 (line 357)
                      ;   {runtime_call throw_null_pointer_exception Runtime1 stub}
  0x000001e99a3b55cc: e1b2 fee8 

  0x000001e99a3b55d0: ; ImmutableOopMap {[120]=Oop rsi=Oop [632]=Oop rdx=Oop }
                      ;*invokeinterface add {reexecute=0 rethrow=0 return_oop=0}
                      ; - jdk.internal.reflect.ClassFileAssembler::emitByte@5 (line 74)
                      ; - jdk.internal.reflect.ClassFileAssembler::emitShort@20 (line 64)
                      ; - jdk.internal.reflect.ClassFileAssembler::emitConstantPoolNameAndType@13 (line 121)
                      ; - jdk.internal.reflect.AccessorGenerator::emitBoxingContantPoolEntries@1219 (line 357)
  0x000001e99a3b55d0: ccae b2fe 

  0x000001e99a3b55d4: ;   {runtime_call throw_null_pointer_exception Runtime1 stub}
  0x000001e99a3b55d4: e8c7 aeb2 

  0x000001e99a3b55d8: ; ImmutableOopMap {rdx=Oop [120]=Oop rsi=Oop [648]=Oop }
                      ;*invokevirtual cpi {reexecute=0 rethrow=0 return_oop=0}
                      ; - jdk.internal.reflect.AccessorGenerator::emitBoxingContantPoolEntries@1230 (line 358)
                      ;   {runtime_call throw_incompatible_class_change_error Runtime1 stub}
  0x000001e99a3b55d8: fee8 c2e1 

  0x000001e99a3b55dc: ; ImmutableOopMap {rsi=Oop [648]=Oop [120]=Oop rax=Oop }
                      ;*invokeinterface add {reexecute=0 rethrow=0 return_oop=0}
                      ; - jdk.internal.reflect.ClassFileAssembler::emitByte@5 (line 74)
                      ; - jdk.internal.reflect.ClassFileAssembler::emitConstantPoolMethodref@3 (line 137)
                      ; - jdk.internal.reflect.AccessorGenerator::emitBoxingContantPoolEntries@1245 (line 358)
                      ;   {runtime_call throw_null_pointer_exception Runtime1 stub}
  0x000001e99a3b55dc: b2fe e8bd 

  0x000001e99a3b55e0: ; ImmutableOopMap {rsi=Oop [648]=Oop [120]=Oop rax=Oop }
                      ;*invokeinterface add {reexecute=0 rethrow=0 return_oop=0}
                      ; - jdk.internal.reflect.ClassFileAssembler::emitByte@5 (line 74)
                      ; - jdk.internal.reflect.ClassFileAssembler::emitConstantPoolMethodref@3 (line 137)
                      ; - jdk.internal.reflect.AccessorGenerator::emitBoxingContantPoolEntries@1245 (line 358)
                      ;   {runtime_call throw_incompatible_class_change_error Runtime1 stub}
  0x000001e99a3b55e0: aeb2 fee8 

  0x000001e99a3b55e4: ; ImmutableOopMap {[120]=Oop rsi=Oop [648]=Oop rdx=Oop }
                      ;*invokeinterface add {reexecute=0 rethrow=0 return_oop=0}
                      ; - jdk.internal.reflect.ClassFileAssembler::emitByte@5 (line 74)
                      ; - jdk.internal.reflect.ClassFileAssembler::emitShort@10 (line 63)
                      ; - jdk.internal.reflect.ClassFileAssembler::emitConstantPoolMethodref@8 (line 138)
                      ; - jdk.internal.reflect.AccessorGenerator::emitBoxingContantPoolEntries@1245 (line 358)
  0x000001e99a3b55e4: b8e1 b2fe 

  0x000001e99a3b55e8: ;   {runtime_call throw_null_pointer_exception Runtime1 stub}
  0x000001e99a3b55e8: e8b3 aeb2 

  0x000001e99a3b55ec: ; ImmutableOopMap {[120]=Oop rsi=Oop [648]=Oop rdx=Oop }
                      ;*invokeinterface add {reexecute=0 rethrow=0 return_oop=0}
                      ; - jdk.internal.reflect.ClassFileAssembler::emitByte@5 (line 74)
                      ; - jdk.internal.reflect.ClassFileAssembler::emitShort@10 (line 63)
                      ; - jdk.internal.reflect.ClassFileAssembler::emitConstantPoolMethodref@8 (line 138)
                      ; - jdk.internal.reflect.AccessorGenerator::emitBoxingContantPoolEntries@1245 (line 358)
                      ;   {runtime_call throw_incompatible_class_change_error Runtime1 stub}
  0x000001e99a3b55ec: fee8 aee1 

  0x000001e99a3b55f0: ; ImmutableOopMap {[120]=Oop rsi=Oop [648]=Oop rdx=Oop }
                      ;*invokeinterface add {reexecute=0 rethrow=0 return_oop=0}
                      ; - jdk.internal.reflect.ClassFileAssembler::emitByte@5 (line 74)
                      ; - jdk.internal.reflect.ClassFileAssembler::emitShort@20 (line 64)
                      ; - jdk.internal.reflect.ClassFileAssembler::emitConstantPoolMethodref@8 (line 138)
                      ; - jdk.internal.reflect.AccessorGenerator::emitBoxingContantPoolEntries@1245 (line 358)
                      ;   {runtime_call throw_null_pointer_exception Runtime1 stub}
  0x000001e99a3b55f0: b2fe e8a9 

  0x000001e99a3b55f4: ; ImmutableOopMap {[120]=Oop rsi=Oop [648]=Oop rdx=Oop }
                      ;*invokeinterface add {reexecute=0 rethrow=0 return_oop=0}
                      ; - jdk.internal.reflect.ClassFileAssembler::emitByte@5 (line 74)
                      ; - jdk.internal.reflect.ClassFileAssembler::emitShort@20 (line 64)
                      ; - jdk.internal.reflect.ClassFileAssembler::emitConstantPoolMethodref@8 (line 138)
                      ; - jdk.internal.reflect.AccessorGenerator::emitBoxingContantPoolEntries@1245 (line 358)
                      ;   {runtime_call throw_incompatible_class_change_error Runtime1 stub}
  0x000001e99a3b55f4: aeb2 fee8 

  0x000001e99a3b55f8: ; ImmutableOopMap {[120]=Oop rsi=Oop [648]=Oop rdx=Oop }
                      ;*invokeinterface add {reexecute=0 rethrow=0 return_oop=0}
                      ; - jdk.internal.reflect.ClassFileAssembler::emitByte@5 (line 74)
                      ; - jdk.internal.reflect.ClassFileAssembler::emitShort@10 (line 63)
                      ; - jdk.internal.reflect.ClassFileAssembler::emitConstantPoolMethodref@13 (line 139)
                      ; - jdk.internal.reflect.AccessorGenerator::emitBoxingContantPoolEntries@1245 (line 358)
  0x000001e99a3b55f8: a4e1 b2fe 

  0x000001e99a3b55fc: ;   {runtime_call throw_null_pointer_exception Runtime1 stub}
  0x000001e99a3b55fc: e89f aeb2 

  0x000001e99a3b5600: ; ImmutableOopMap {[120]=Oop rsi=Oop [648]=Oop rdx=Oop }
                      ;*invokeinterface add {reexecute=0 rethrow=0 return_oop=0}
                      ; - jdk.internal.reflect.ClassFileAssembler::emitByte@5 (line 74)
                      ; - jdk.internal.reflect.ClassFileAssembler::emitShort@10 (line 63)
                      ; - jdk.internal.reflect.ClassFileAssembler::emitConstantPoolMethodref@13 (line 139)
                      ; - jdk.internal.reflect.AccessorGenerator::emitBoxingContantPoolEntries@1245 (line 358)
                      ;   {runtime_call throw_incompatible_class_change_error Runtime1 stub}
  0x000001e99a3b5600: fee8 9ae1 

  0x000001e99a3b5604: ; ImmutableOopMap {[120]=Oop rsi=Oop [648]=Oop rdx=Oop }
                      ;*invokeinterface add {reexecute=0 rethrow=0 return_oop=0}
                      ; - jdk.internal.reflect.ClassFileAssembler::emitByte@5 (line 74)
                      ; - jdk.internal.reflect.ClassFileAssembler::emitShort@20 (line 64)
                      ; - jdk.internal.reflect.ClassFileAssembler::emitConstantPoolMethodref@13 (line 139)
                      ; - jdk.internal.reflect.AccessorGenerator::emitBoxingContantPoolEntries@1245 (line 358)
                      ;   {runtime_call throw_null_pointer_exception Runtime1 stub}
  0x000001e99a3b5604: b2fe e895 

  0x000001e99a3b5608: ; ImmutableOopMap {[120]=Oop rsi=Oop [648]=Oop rdx=Oop }
                      ;*invokeinterface add {reexecute=0 rethrow=0 return_oop=0}
                      ; - jdk.internal.reflect.ClassFileAssembler::emitByte@5 (line 74)
                      ; - jdk.internal.reflect.ClassFileAssembler::emitShort@20 (line 64)
                      ; - jdk.internal.reflect.ClassFileAssembler::emitConstantPoolMethodref@13 (line 139)
                      ; - jdk.internal.reflect.AccessorGenerator::emitBoxingContantPoolEntries@1245 (line 358)
                      ;   {runtime_call throw_null_pointer_exception Runtime1 stub}
  0x000001e99a3b5608: aeb2 fee8 

  0x000001e99a3b560c: ; ImmutableOopMap {rdx=Oop [120]=Oop rsi=Oop }
                      ;*invokevirtual cpi {reexecute=0 rethrow=0 return_oop=0}
                      ; - jdk.internal.reflect.AccessorGenerator::emitBoxingContantPoolEntries@1253 (line 359)
  0x000001e99a3b560c: 90ae b2fe 

  0x000001e99a3b5610: ;   {runtime_call throw_null_pointer_exception Runtime1 stub}
  0x000001e99a3b5610: e88b aeb2 

  0x000001e99a3b5614: ; ImmutableOopMap {rdx=Oop [120]=Oop rsi=Oop [664]=Oop }
                      ;*invokevirtual cpi {reexecute=0 rethrow=0 return_oop=0}
                      ; - jdk.internal.reflect.AccessorGenerator::emitBoxingContantPoolEntries@1276 (line 363)
                      ;   {runtime_call throw_incompatible_class_change_error Runtime1 stub}
  0x000001e99a3b5614: fee8 86e1 

  0x000001e99a3b5618: ; ImmutableOopMap {rsi=Oop [664]=Oop [120]=Oop rdi=Oop }
                      ;*invokeinterface add {reexecute=0 rethrow=0 return_oop=0}
                      ; - jdk.internal.reflect.ClassFileAssembler::emitByte@5 (line 74)
                      ; - jdk.internal.reflect.ClassFileAssembler::emitConstantPoolClass@3 (line 113)
                      ; - jdk.internal.reflect.AccessorGenerator::emitBoxingContantPoolEntries@1279 (line 363)
                      ;   {runtime_call throw_null_pointer_exception Runtime1 stub}
  0x000001e99a3b5618: b2fe e881 

  0x000001e99a3b561c: ; ImmutableOopMap {rsi=Oop [664]=Oop [120]=Oop rdi=Oop }
                      ;*invokeinterface add {reexecute=0 rethrow=0 return_oop=0}
                      ; - jdk.internal.reflect.ClassFileAssembler::emitByte@5 (line 74)
                      ; - jdk.internal.reflect.ClassFileAssembler::emitConstantPoolClass@3 (line 113)
                      ; - jdk.internal.reflect.AccessorGenerator::emitBoxingContantPoolEntries@1279 (line 363)
                      ;   {runtime_call throw_incompatible_class_change_error Runtime1 stub}
  0x000001e99a3b561c: aeb2 fee8 

  0x000001e99a3b5620: ; ImmutableOopMap {[120]=Oop rsi=Oop [664]=Oop rdx=Oop }
                      ;*invokeinterface add {reexecute=0 rethrow=0 return_oop=0}
                      ; - jdk.internal.reflect.ClassFileAssembler::emitByte@5 (line 74)
                      ; - jdk.internal.reflect.ClassFileAssembler::emitShort@10 (line 63)
                      ; - jdk.internal.reflect.ClassFileAssembler::emitConstantPoolClass@8 (line 114)
                      ; - jdk.internal.reflect.AccessorGenerator::emitBoxingContantPoolEntries@1279 (line 363)
  0x000001e99a3b5620: 7ce1 b2fe 

  0x000001e99a3b5624: ;   {runtime_call throw_null_pointer_exception Runtime1 stub}
  0x000001e99a3b5624: e877 aeb2 

  0x000001e99a3b5628: ; ImmutableOopMap {[120]=Oop rsi=Oop [664]=Oop rdx=Oop }
                      ;*invokeinterface add {reexecute=0 rethrow=0 return_oop=0}
                      ; - jdk.internal.reflect.ClassFileAssembler::emitByte@5 (line 74)
                      ; - jdk.internal.reflect.ClassFileAssembler::emitShort@10 (line 63)
                      ; - jdk.internal.reflect.ClassFileAssembler::emitConstantPoolClass@8 (line 114)
                      ; - jdk.internal.reflect.AccessorGenerator::emitBoxingContantPoolEntries@1279 (line 363)
                      ;   {runtime_call throw_incompatible_class_change_error Runtime1 stub}
  0x000001e99a3b5628: fee8 72e1 

  0x000001e99a3b562c: ; ImmutableOopMap {[120]=Oop rsi=Oop [664]=Oop rdx=Oop }
                      ;*invokeinterface add {reexecute=0 rethrow=0 return_oop=0}
                      ; - jdk.internal.reflect.ClassFileAssembler::emitByte@5 (line 74)
                      ; - jdk.internal.reflect.ClassFileAssembler::emitShort@20 (line 64)
                      ; - jdk.internal.reflect.ClassFileAssembler::emitConstantPoolClass@8 (line 114)
                      ; - jdk.internal.reflect.AccessorGenerator::emitBoxingContantPoolEntries@1279 (line 363)
                      ;   {runtime_call throw_null_pointer_exception Runtime1 stub}
  0x000001e99a3b562c: b2fe e86d 

  0x000001e99a3b5630: ; ImmutableOopMap {[120]=Oop rsi=Oop [664]=Oop rdx=Oop }
                      ;*invokeinterface add {reexecute=0 rethrow=0 return_oop=0}
                      ; - jdk.internal.reflect.ClassFileAssembler::emitByte@5 (line 74)
                      ; - jdk.internal.reflect.ClassFileAssembler::emitShort@20 (line 64)
                      ; - jdk.internal.reflect.ClassFileAssembler::emitConstantPoolClass@8 (line 114)
                      ; - jdk.internal.reflect.AccessorGenerator::emitBoxingContantPoolEntries@1279 (line 363)
                      ;   {runtime_call throw_null_pointer_exception Runtime1 stub}
  0x000001e99a3b5630: aeb2 fee8 

  0x000001e99a3b5634: ; ImmutableOopMap {rdx=Oop [120]=Oop rsi=Oop }
                      ;*invokevirtual cpi {reexecute=0 rethrow=0 return_oop=0}
                      ; - jdk.internal.reflect.AccessorGenerator::emitBoxingContantPoolEntries@1287 (line 364)
  0x000001e99a3b5634: 68ae b2fe 

  0x000001e99a3b5638: ;   {runtime_call throw_null_pointer_exception Runtime1 stub}
  0x000001e99a3b5638: e863 aeb2 

  0x000001e99a3b563c: ; ImmutableOopMap {rdx=Oop [120]=Oop rsi=Oop [672]=Oop }
                      ;*invokevirtual cpi {reexecute=0 rethrow=0 return_oop=0}
                      ; - jdk.internal.reflect.AccessorGenerator::emitBoxingContantPoolEntries@1314 (line 366)
                      ;   {runtime_call throw_incompatible_class_change_error Runtime1 stub}
  0x000001e99a3b563c: fee8 5ee1 

  0x000001e99a3b5640: ; ImmutableOopMap {rsi=Oop [672]=Oop [120]=Oop rbx=Oop }
                      ;*invokeinterface add {reexecute=0 rethrow=0 return_oop=0}
                      ; - jdk.internal.reflect.ClassFileAssembler::emitByte@5 (line 74)
                      ; - jdk.internal.reflect.ClassFileAssembler::emitConstantPoolNameAndType@3 (line 119)
                      ; - jdk.internal.reflect.AccessorGenerator::emitBoxingContantPoolEntries@1317 (line 366)
                      ;   {runtime_call throw_null_pointer_exception Runtime1 stub}
  0x000001e99a3b5640: b2fe e859 

  0x000001e99a3b5644: ; ImmutableOopMap {rsi=Oop [672]=Oop [120]=Oop rbx=Oop }
                      ;*invokeinterface add {reexecute=0 rethrow=0 return_oop=0}
                      ; - jdk.internal.reflect.ClassFileAssembler::emitByte@5 (line 74)
                      ; - jdk.internal.reflect.ClassFileAssembler::emitConstantPoolNameAndType@3 (line 119)
                      ; - jdk.internal.reflect.AccessorGenerator::emitBoxingContantPoolEntries@1317 (line 366)
                      ;   {runtime_call throw_incompatible_class_change_error Runtime1 stub}
  0x000001e99a3b5644: aeb2 fee8 

  0x000001e99a3b5648: ; ImmutableOopMap {[120]=Oop rsi=Oop [672]=Oop rdx=Oop }
                      ;*invokeinterface add {reexecute=0 rethrow=0 return_oop=0}
                      ; - jdk.internal.reflect.ClassFileAssembler::emitByte@5 (line 74)
                      ; - jdk.internal.reflect.ClassFileAssembler::emitShort@10 (line 63)
                      ; - jdk.internal.reflect.ClassFileAssembler::emitConstantPoolNameAndType@8 (line 120)
                      ; - jdk.internal.reflect.AccessorGenerator::emitBoxingContantPoolEntries@1317 (line 366)
  0x000001e99a3b5648: 54e1 b2fe 

  0x000001e99a3b564c: ;   {runtime_call throw_null_pointer_exception Runtime1 stub}
  0x000001e99a3b564c: e84f aeb2 

  0x000001e99a3b5650: ; ImmutableOopMap {[120]=Oop rsi=Oop [672]=Oop rdx=Oop }
                      ;*invokeinterface add {reexecute=0 rethrow=0 return_oop=0}
                      ; - jdk.internal.reflect.ClassFileAssembler::emitByte@5 (line 74)
                      ; - jdk.internal.reflect.ClassFileAssembler::emitShort@10 (line 63)
                      ; - jdk.internal.reflect.ClassFileAssembler::emitConstantPoolNameAndType@8 (line 120)
                      ; - jdk.internal.reflect.AccessorGenerator::emitBoxingContantPoolEntries@1317 (line 366)
                      ;   {runtime_call throw_incompatible_class_change_error Runtime1 stub}
  0x000001e99a3b5650: fee8 4ae1 

  0x000001e99a3b5654: ; ImmutableOopMap {[120]=Oop rsi=Oop [672]=Oop rdx=Oop }
                      ;*invokeinterface add {reexecute=0 rethrow=0 return_oop=0}
                      ; - jdk.internal.reflect.ClassFileAssembler::emitByte@5 (line 74)
                      ; - jdk.internal.reflect.ClassFileAssembler::emitShort@20 (line 64)
                      ; - jdk.internal.reflect.ClassFileAssembler::emitConstantPoolNameAndType@8 (line 120)
                      ; - jdk.internal.reflect.AccessorGenerator::emitBoxingContantPoolEntries@1317 (line 366)
                      ;   {runtime_call throw_null_pointer_exception Runtime1 stub}
  0x000001e99a3b5654: b2fe e845 

  0x000001e99a3b5658: ; ImmutableOopMap {[120]=Oop rsi=Oop [672]=Oop rdx=Oop }
                      ;*invokeinterface add {reexecute=0 rethrow=0 return_oop=0}
                      ; - jdk.internal.reflect.ClassFileAssembler::emitByte@5 (line 74)
                      ; - jdk.internal.reflect.ClassFileAssembler::emitShort@20 (line 64)
                      ; - jdk.internal.reflect.ClassFileAssembler::emitConstantPoolNameAndType@8 (line 120)
                      ; - jdk.internal.reflect.AccessorGenerator::emitBoxingContantPoolEntries@1317 (line 366)
                      ;   {runtime_call throw_incompatible_class_change_error Runtime1 stub}
  0x000001e99a3b5658: aeb2 fee8 

  0x000001e99a3b565c: ; ImmutableOopMap {[120]=Oop rsi=Oop [672]=Oop rdx=Oop }
                      ;*invokeinterface add {reexecute=0 rethrow=0 return_oop=0}
                      ; - jdk.internal.reflect.ClassFileAssembler::emitByte@5 (line 74)
                      ; - jdk.internal.reflect.ClassFileAssembler::emitShort@10 (line 63)
                      ; - jdk.internal.reflect.ClassFileAssembler::emitConstantPoolNameAndType@13 (line 121)
                      ; - jdk.internal.reflect.AccessorGenerator::emitBoxingContantPoolEntries@1317 (line 366)
  0x000001e99a3b565c: 40e1 b2fe 

  0x000001e99a3b5660: ;   {runtime_call throw_null_pointer_exception Runtime1 stub}
  0x000001e99a3b5660: e83b aeb2 

  0x000001e99a3b5664: ; ImmutableOopMap {[120]=Oop rsi=Oop [672]=Oop rdx=Oop }
                      ;*invokeinterface add {reexecute=0 rethrow=0 return_oop=0}
                      ; - jdk.internal.reflect.ClassFileAssembler::emitByte@5 (line 74)
                      ; - jdk.internal.reflect.ClassFileAssembler::emitShort@10 (line 63)
                      ; - jdk.internal.reflect.ClassFileAssembler::emitConstantPoolNameAndType@13 (line 121)
                      ; - jdk.internal.reflect.AccessorGenerator::emitBoxingContantPoolEntries@1317 (line 366)
                      ;   {runtime_call throw_incompatible_class_change_error Runtime1 stub}
  0x000001e99a3b5664: fee8 36e1 

  0x000001e99a3b5668: ; ImmutableOopMap {[120]=Oop rsi=Oop [672]=Oop rdx=Oop }
                      ;*invokeinterface add {reexecute=0 rethrow=0 return_oop=0}
                      ; - jdk.internal.reflect.ClassFileAssembler::emitByte@5 (line 74)
                      ; - jdk.internal.reflect.ClassFileAssembler::emitShort@20 (line 64)
                      ; - jdk.internal.reflect.ClassFileAssembler::emitConstantPoolNameAndType@13 (line 121)
                      ; - jdk.internal.reflect.AccessorGenerator::emitBoxingContantPoolEntries@1317 (line 366)
                      ;   {runtime_call throw_null_pointer_exception Runtime1 stub}
  0x000001e99a3b5668: b2fe e831 

  0x000001e99a3b566c: ; ImmutableOopMap {[120]=Oop rsi=Oop [672]=Oop rdx=Oop }
                      ;*invokeinterface add {reexecute=0 rethrow=0 return_oop=0}
                      ; - jdk.internal.reflect.ClassFileAssembler::emitByte@5 (line 74)
                      ; - jdk.internal.reflect.ClassFileAssembler::emitShort@20 (line 64)
                      ; - jdk.internal.reflect.ClassFileAssembler::emitConstantPoolNameAndType@13 (line 121)
                      ; - jdk.internal.reflect.AccessorGenerator::emitBoxingContantPoolEntries@1317 (line 366)
                      ;   {runtime_call throw_null_pointer_exception Runtime1 stub}
  0x000001e99a3b566c: aeb2 fee8 

  0x000001e99a3b5670: ; ImmutableOopMap {rdx=Oop [120]=Oop rsi=Oop [688]=Oop }
                      ;*invokevirtual cpi {reexecute=0 rethrow=0 return_oop=0}
                      ; - jdk.internal.reflect.AccessorGenerator::emitBoxingContantPoolEntries@1328 (line 367)
  0x000001e99a3b5670: 2cae b2fe 

  0x000001e99a3b5674: ;   {runtime_call throw_incompatible_class_change_error Runtime1 stub}
  0x000001e99a3b5674: e827 e1b2 

  0x000001e99a3b5678: ; ImmutableOopMap {rsi=Oop [688]=Oop [120]=Oop rax=Oop }
                      ;*invokeinterface add {reexecute=0 rethrow=0 return_oop=0}
                      ; - jdk.internal.reflect.ClassFileAssembler::emitByte@5 (line 74)
                      ; - jdk.internal.reflect.ClassFileAssembler::emitConstantPoolMethodref@3 (line 137)
                      ; - jdk.internal.reflect.AccessorGenerator::emitBoxingContantPoolEntries@1342 (line 367)
                      ;   {runtime_call throw_null_pointer_exception Runtime1 stub}
  0x000001e99a3b5678: fee8 22ae 

  0x000001e99a3b567c: ; ImmutableOopMap {rsi=Oop [688]=Oop [120]=Oop rax=Oop }
                      ;*invokeinterface add {reexecute=0 rethrow=0 return_oop=0}
                      ; - jdk.internal.reflect.ClassFileAssembler::emitByte@5 (line 74)
                      ; - jdk.internal.reflect.ClassFileAssembler::emitConstantPoolMethodref@3 (line 137)
                      ; - jdk.internal.reflect.AccessorGenerator::emitBoxingContantPoolEntries@1342 (line 367)
                      ;   {runtime_call throw_incompatible_class_change_error Runtime1 stub}
  0x000001e99a3b567c: b2fe e81d 

  0x000001e99a3b5680: ; ImmutableOopMap {[120]=Oop rsi=Oop [688]=Oop rdx=Oop }
                      ;*invokeinterface add {reexecute=0 rethrow=0 return_oop=0}
                      ; - jdk.internal.reflect.ClassFileAssembler::emitByte@5 (line 74)
                      ; - jdk.internal.reflect.ClassFileAssembler::emitShort@10 (line 63)
                      ; - jdk.internal.reflect.ClassFileAssembler::emitConstantPoolMethodref@8 (line 138)
                      ; - jdk.internal.reflect.AccessorGenerator::emitBoxingContantPoolEntries@1342 (line 367)
                      ;   {runtime_call throw_null_pointer_exception Runtime1 stub}
  0x000001e99a3b5680: e1b2 fee8 

  0x000001e99a3b5684: ; ImmutableOopMap {[120]=Oop rsi=Oop [688]=Oop rdx=Oop }
                      ;*invokeinterface add {reexecute=0 rethrow=0 return_oop=0}
                      ; - jdk.internal.reflect.ClassFileAssembler::emitByte@5 (line 74)
                      ; - jdk.internal.reflect.ClassFileAssembler::emitShort@10 (line 63)
                      ; - jdk.internal.reflect.ClassFileAssembler::emitConstantPoolMethodref@8 (line 138)
                      ; - jdk.internal.reflect.AccessorGenerator::emitBoxingContantPoolEntries@1342 (line 367)
  0x000001e99a3b5684: 18ae b2fe 

  0x000001e99a3b5688: ;   {runtime_call throw_incompatible_class_change_error Runtime1 stub}
  0x000001e99a3b5688: e813 e1b2 

  0x000001e99a3b568c: ; ImmutableOopMap {[120]=Oop rsi=Oop [688]=Oop rdx=Oop }
                      ;*invokeinterface add {reexecute=0 rethrow=0 return_oop=0}
                      ; - jdk.internal.reflect.ClassFileAssembler::emitByte@5 (line 74)
                      ; - jdk.internal.reflect.ClassFileAssembler::emitShort@20 (line 64)
                      ; - jdk.internal.reflect.ClassFileAssembler::emitConstantPoolMethodref@8 (line 138)
                      ; - jdk.internal.reflect.AccessorGenerator::emitBoxingContantPoolEntries@1342 (line 367)
                      ;   {runtime_call throw_null_pointer_exception Runtime1 stub}
  0x000001e99a3b568c: fee8 0eae 

  0x000001e99a3b5690: ; ImmutableOopMap {[120]=Oop rsi=Oop [688]=Oop rdx=Oop }
                      ;*invokeinterface add {reexecute=0 rethrow=0 return_oop=0}
                      ; - jdk.internal.reflect.ClassFileAssembler::emitByte@5 (line 74)
                      ; - jdk.internal.reflect.ClassFileAssembler::emitShort@20 (line 64)
                      ; - jdk.internal.reflect.ClassFileAssembler::emitConstantPoolMethodref@8 (line 138)
                      ; - jdk.internal.reflect.AccessorGenerator::emitBoxingContantPoolEntries@1342 (line 367)
                      ;   {runtime_call throw_incompatible_class_change_error Runtime1 stub}
  0x000001e99a3b5690: b2fe e809 

  0x000001e99a3b5694: ; ImmutableOopMap {[120]=Oop rsi=Oop [688]=Oop rdx=Oop }
                      ;*invokeinterface add {reexecute=0 rethrow=0 return_oop=0}
                      ; - jdk.internal.reflect.ClassFileAssembler::emitByte@5 (line 74)
                      ; - jdk.internal.reflect.ClassFileAssembler::emitShort@10 (line 63)
                      ; - jdk.internal.reflect.ClassFileAssembler::emitConstantPoolMethodref@13 (line 139)
                      ; - jdk.internal.reflect.AccessorGenerator::emitBoxingContantPoolEntries@1342 (line 367)
                      ;   {runtime_call throw_null_pointer_exception Runtime1 stub}
  0x000001e99a3b5694: e1b2 fee8 

  0x000001e99a3b5698: ; ImmutableOopMap {[120]=Oop rsi=Oop [688]=Oop rdx=Oop }
                      ;*invokeinterface add {reexecute=0 rethrow=0 return_oop=0}
                      ; - jdk.internal.reflect.ClassFileAssembler::emitByte@5 (line 74)
                      ; - jdk.internal.reflect.ClassFileAssembler::emitShort@10 (line 63)
                      ; - jdk.internal.reflect.ClassFileAssembler::emitConstantPoolMethodref@13 (line 139)
                      ; - jdk.internal.reflect.AccessorGenerator::emitBoxingContantPoolEntries@1342 (line 367)
  0x000001e99a3b5698: 04ae b2fe 

  0x000001e99a3b569c: ;   {runtime_call throw_incompatible_class_change_error Runtime1 stub}
  0x000001e99a3b569c: e8ff e0b2 

  0x000001e99a3b56a0: ; ImmutableOopMap {[120]=Oop rsi=Oop [688]=Oop rdx=Oop }
                      ;*invokeinterface add {reexecute=0 rethrow=0 return_oop=0}
                      ; - jdk.internal.reflect.ClassFileAssembler::emitByte@5 (line 74)
                      ; - jdk.internal.reflect.ClassFileAssembler::emitShort@20 (line 64)
                      ; - jdk.internal.reflect.ClassFileAssembler::emitConstantPoolMethodref@13 (line 139)
                      ; - jdk.internal.reflect.AccessorGenerator::emitBoxingContantPoolEntries@1342 (line 367)
                      ;   {runtime_call throw_null_pointer_exception Runtime1 stub}
  0x000001e99a3b56a0: fee8 faad 

  0x000001e99a3b56a4: ; ImmutableOopMap {[120]=Oop rsi=Oop [688]=Oop rdx=Oop }
                      ;*invokeinterface add {reexecute=0 rethrow=0 return_oop=0}
                      ; - jdk.internal.reflect.ClassFileAssembler::emitByte@5 (line 74)
                      ; - jdk.internal.reflect.ClassFileAssembler::emitShort@20 (line 64)
                      ; - jdk.internal.reflect.ClassFileAssembler::emitConstantPoolMethodref@13 (line 139)
                      ; - jdk.internal.reflect.AccessorGenerator::emitBoxingContantPoolEntries@1342 (line 367)
                      ;   {runtime_call throw_null_pointer_exception Runtime1 stub}
  0x000001e99a3b56a4: b2fe e8f5 

  0x000001e99a3b56a8: ; ImmutableOopMap {rdx=Oop [120]=Oop rsi=Oop }
                      ;*invokevirtual cpi {reexecute=0 rethrow=0 return_oop=0}
                      ; - jdk.internal.reflect.AccessorGenerator::emitBoxingContantPoolEntries@1350 (line 368)
                      ;   {runtime_call throw_null_pointer_exception Runtime1 stub}
  0x000001e99a3b56a8: adb2 fee8 

  0x000001e99a3b56ac: ; ImmutableOopMap {rdx=Oop [120]=Oop rsi=Oop }
                      ;*invokevirtual emitConstantPoolUTF8 {reexecute=0 rethrow=0 return_oop=0}
                      ; - jdk.internal.reflect.AccessorGenerator::emitBoxingContantPoolEntries@1373 (line 370)
  0x000001e99a3b56ac: f0ad b2fe 

  0x000001e99a3b56b0: ;   {runtime_call throw_null_pointer_exception Runtime1 stub}
  0x000001e99a3b56b0: e8eb adb2 

  0x000001e99a3b56b4: ; ImmutableOopMap {rdx=Oop [120]=Oop rsi=Oop [704]=Oop }
                      ;*invokevirtual cpi {reexecute=0 rethrow=0 return_oop=0}
                      ; - jdk.internal.reflect.AccessorGenerator::emitBoxingContantPoolEntries@1384 (line 371)
                      ;   {runtime_call throw_incompatible_class_change_error Runtime1 stub}
  0x000001e99a3b56b4: fee8 e6e0 

  0x000001e99a3b56b8: ; ImmutableOopMap {rsi=Oop [704]=Oop [120]=Oop rax=Oop }
                      ;*invokeinterface add {reexecute=0 rethrow=0 return_oop=0}
                      ; - jdk.internal.reflect.ClassFileAssembler::emitByte@5 (line 74)
                      ; - jdk.internal.reflect.ClassFileAssembler::emitConstantPoolNameAndType@3 (line 119)
                      ; - jdk.internal.reflect.AccessorGenerator::emitBoxingContantPoolEntries@1398 (line 371)
                      ;   {runtime_call throw_null_pointer_exception Runtime1 stub}
  0x000001e99a3b56b8: b2fe e8e1 

  0x000001e99a3b56bc: ; ImmutableOopMap {rsi=Oop [704]=Oop [120]=Oop rax=Oop }
                      ;*invokeinterface add {reexecute=0 rethrow=0 return_oop=0}
                      ; - jdk.internal.reflect.ClassFileAssembler::emitByte@5 (line 74)
                      ; - jdk.internal.reflect.ClassFileAssembler::emitConstantPoolNameAndType@3 (line 119)
                      ; - jdk.internal.reflect.AccessorGenerator::emitBoxingContantPoolEntries@1398 (line 371)
                      ;   {runtime_call throw_incompatible_class_change_error Runtime1 stub}
  0x000001e99a3b56bc: adb2 fee8 

  0x000001e99a3b56c0: ; ImmutableOopMap {[120]=Oop rsi=Oop [704]=Oop rdx=Oop }
                      ;*invokeinterface add {reexecute=0 rethrow=0 return_oop=0}
                      ; - jdk.internal.reflect.ClassFileAssembler::emitByte@5 (line 74)
                      ; - jdk.internal.reflect.ClassFileAssembler::emitShort@10 (line 63)
                      ; - jdk.internal.reflect.ClassFileAssembler::emitConstantPoolNameAndType@8 (line 120)
                      ; - jdk.internal.reflect.AccessorGenerator::emitBoxingContantPoolEntries@1398 (line 371)
  0x000001e99a3b56c0: dce0 b2fe 

  0x000001e99a3b56c4: ;   {runtime_call throw_null_pointer_exception Runtime1 stub}
  0x000001e99a3b56c4: e8d7 adb2 

  0x000001e99a3b56c8: ; ImmutableOopMap {[120]=Oop rsi=Oop [704]=Oop rdx=Oop }
                      ;*invokeinterface add {reexecute=0 rethrow=0 return_oop=0}
                      ; - jdk.internal.reflect.ClassFileAssembler::emitByte@5 (line 74)
                      ; - jdk.internal.reflect.ClassFileAssembler::emitShort@10 (line 63)
                      ; - jdk.internal.reflect.ClassFileAssembler::emitConstantPoolNameAndType@8 (line 120)
                      ; - jdk.internal.reflect.AccessorGenerator::emitBoxingContantPoolEntries@1398 (line 371)
                      ;   {runtime_call throw_incompatible_class_change_error Runtime1 stub}
  0x000001e99a3b56c8: fee8 d2e0 

  0x000001e99a3b56cc: ; ImmutableOopMap {[120]=Oop rsi=Oop [704]=Oop rdx=Oop }
                      ;*invokeinterface add {reexecute=0 rethrow=0 return_oop=0}
                      ; - jdk.internal.reflect.ClassFileAssembler::emitByte@5 (line 74)
                      ; - jdk.internal.reflect.ClassFileAssembler::emitShort@20 (line 64)
                      ; - jdk.internal.reflect.ClassFileAssembler::emitConstantPoolNameAndType@8 (line 120)
                      ; - jdk.internal.reflect.AccessorGenerator::emitBoxingContantPoolEntries@1398 (line 371)
                      ;   {runtime_call throw_null_pointer_exception Runtime1 stub}
  0x000001e99a3b56cc: b2fe e8cd 

  0x000001e99a3b56d0: ; ImmutableOopMap {[120]=Oop rsi=Oop [704]=Oop rdx=Oop }
                      ;*invokeinterface add {reexecute=0 rethrow=0 return_oop=0}
                      ; - jdk.internal.reflect.ClassFileAssembler::emitByte@5 (line 74)
                      ; - jdk.internal.reflect.ClassFileAssembler::emitShort@20 (line 64)
                      ; - jdk.internal.reflect.ClassFileAssembler::emitConstantPoolNameAndType@8 (line 120)
                      ; - jdk.internal.reflect.AccessorGenerator::emitBoxingContantPoolEntries@1398 (line 371)
                      ;   {runtime_call throw_incompatible_class_change_error Runtime1 stub}
  0x000001e99a3b56d0: adb2 fee8 

  0x000001e99a3b56d4: ; ImmutableOopMap {[120]=Oop rsi=Oop [704]=Oop rdx=Oop }
                      ;*invokeinterface add {reexecute=0 rethrow=0 return_oop=0}
                      ; - jdk.internal.reflect.ClassFileAssembler::emitByte@5 (line 74)
                      ; - jdk.internal.reflect.ClassFileAssembler::emitShort@10 (line 63)
                      ; - jdk.internal.reflect.ClassFileAssembler::emitConstantPoolNameAndType@13 (line 121)
                      ; - jdk.internal.reflect.AccessorGenerator::emitBoxingContantPoolEntries@1398 (line 371)
  0x000001e99a3b56d4: c8e0 b2fe 

  0x000001e99a3b56d8: ;   {runtime_call throw_null_pointer_exception Runtime1 stub}
  0x000001e99a3b56d8: e8c3 adb2 

  0x000001e99a3b56dc: ; ImmutableOopMap {[120]=Oop rsi=Oop [704]=Oop rdx=Oop }
                      ;*invokeinterface add {reexecute=0 rethrow=0 return_oop=0}
                      ; - jdk.internal.reflect.ClassFileAssembler::emitByte@5 (line 74)
                      ; - jdk.internal.reflect.ClassFileAssembler::emitShort@10 (line 63)
                      ; - jdk.internal.reflect.ClassFileAssembler::emitConstantPoolNameAndType@13 (line 121)
                      ; - jdk.internal.reflect.AccessorGenerator::emitBoxingContantPoolEntries@1398 (line 371)
                      ;   {runtime_call throw_incompatible_class_change_error Runtime1 stub}
  0x000001e99a3b56dc: fee8 bee0 

  0x000001e99a3b56e0: ; ImmutableOopMap {[120]=Oop rsi=Oop [704]=Oop rdx=Oop }
                      ;*invokeinterface add {reexecute=0 rethrow=0 return_oop=0}
                      ; - jdk.internal.reflect.ClassFileAssembler::emitByte@5 (line 74)
                      ; - jdk.internal.reflect.ClassFileAssembler::emitShort@20 (line 64)
                      ; - jdk.internal.reflect.ClassFileAssembler::emitConstantPoolNameAndType@13 (line 121)
                      ; - jdk.internal.reflect.AccessorGenerator::emitBoxingContantPoolEntries@1398 (line 371)
                      ;   {runtime_call throw_null_pointer_exception Runtime1 stub}
  0x000001e99a3b56e0: b2fe e8b9 

  0x000001e99a3b56e4: ; ImmutableOopMap {[120]=Oop rsi=Oop [704]=Oop rdx=Oop }
                      ;*invokeinterface add {reexecute=0 rethrow=0 return_oop=0}
                      ; - jdk.internal.reflect.ClassFileAssembler::emitByte@5 (line 74)
                      ; - jdk.internal.reflect.ClassFileAssembler::emitShort@20 (line 64)
                      ; - jdk.internal.reflect.ClassFileAssembler::emitConstantPoolNameAndType@13 (line 121)
                      ; - jdk.internal.reflect.AccessorGenerator::emitBoxingContantPoolEntries@1398 (line 371)
                      ;   {runtime_call throw_null_pointer_exception Runtime1 stub}
  0x000001e99a3b56e4: adb2 fee8 

  0x000001e99a3b56e8: ; ImmutableOopMap {rdx=Oop [120]=Oop rsi=Oop [720]=Oop }
                      ;*invokevirtual cpi {reexecute=0 rethrow=0 return_oop=0}
                      ; - jdk.internal.reflect.AccessorGenerator::emitBoxingContantPoolEntries@1409 (line 372)
  0x000001e99a3b56e8: b4ad b2fe 

  0x000001e99a3b56ec: ;   {runtime_call throw_incompatible_class_change_error Runtime1 stub}
  0x000001e99a3b56ec: e8af e0b2 

  0x000001e99a3b56f0: ; ImmutableOopMap {rsi=Oop [720]=Oop [120]=Oop rax=Oop }
                      ;*invokeinterface add {reexecute=0 rethrow=0 return_oop=0}
                      ; - jdk.internal.reflect.ClassFileAssembler::emitByte@5 (line 74)
                      ; - jdk.internal.reflect.ClassFileAssembler::emitConstantPoolMethodref@3 (line 137)
                      ; - jdk.internal.reflect.AccessorGenerator::emitBoxingContantPoolEntries@1424 (line 372)
                      ;   {runtime_call throw_null_pointer_exception Runtime1 stub}
  0x000001e99a3b56f0: fee8 aaad 

  0x000001e99a3b56f4: ; ImmutableOopMap {rsi=Oop [720]=Oop [120]=Oop rax=Oop }
                      ;*invokeinterface add {reexecute=0 rethrow=0 return_oop=0}
                      ; - jdk.internal.reflect.ClassFileAssembler::emitByte@5 (line 74)
                      ; - jdk.internal.reflect.ClassFileAssembler::emitConstantPoolMethodref@3 (line 137)
                      ; - jdk.internal.reflect.AccessorGenerator::emitBoxingContantPoolEntries@1424 (line 372)
                      ;   {runtime_call throw_incompatible_class_change_error Runtime1 stub}
  0x000001e99a3b56f4: b2fe e8a5 

  0x000001e99a3b56f8: ; ImmutableOopMap {[120]=Oop rsi=Oop [720]=Oop rdx=Oop }
                      ;*invokeinterface add {reexecute=0 rethrow=0 return_oop=0}
                      ; - jdk.internal.reflect.ClassFileAssembler::emitByte@5 (line 74)
                      ; - jdk.internal.reflect.ClassFileAssembler::emitShort@10 (line 63)
                      ; - jdk.internal.reflect.ClassFileAssembler::emitConstantPoolMethodref@8 (line 138)
                      ; - jdk.internal.reflect.AccessorGenerator::emitBoxingContantPoolEntries@1424 (line 372)
                      ;   {runtime_call throw_null_pointer_exception Runtime1 stub}
  0x000001e99a3b56f8: e0b2 fee8 

  0x000001e99a3b56fc: ; ImmutableOopMap {[120]=Oop rsi=Oop [720]=Oop rdx=Oop }
                      ;*invokeinterface add {reexecute=0 rethrow=0 return_oop=0}
                      ; - jdk.internal.reflect.ClassFileAssembler::emitByte@5 (line 74)
                      ; - jdk.internal.reflect.ClassFileAssembler::emitShort@10 (line 63)
                      ; - jdk.internal.reflect.ClassFileAssembler::emitConstantPoolMethodref@8 (line 138)
                      ; - jdk.internal.reflect.AccessorGenerator::emitBoxingContantPoolEntries@1424 (line 372)
  0x000001e99a3b56fc: a0ad b2fe 

  0x000001e99a3b5700: ;   {runtime_call throw_incompatible_class_change_error Runtime1 stub}
  0x000001e99a3b5700: e89b e0b2 

  0x000001e99a3b5704: ; ImmutableOopMap {[120]=Oop rsi=Oop [720]=Oop rdx=Oop }
                      ;*invokeinterface add {reexecute=0 rethrow=0 return_oop=0}
                      ; - jdk.internal.reflect.ClassFileAssembler::emitByte@5 (line 74)
                      ; - jdk.internal.reflect.ClassFileAssembler::emitShort@20 (line 64)
                      ; - jdk.internal.reflect.ClassFileAssembler::emitConstantPoolMethodref@8 (line 138)
                      ; - jdk.internal.reflect.AccessorGenerator::emitBoxingContantPoolEntries@1424 (line 372)
                      ;   {runtime_call throw_null_pointer_exception Runtime1 stub}
  0x000001e99a3b5704: fee8 96ad 

  0x000001e99a3b5708: ; ImmutableOopMap {[120]=Oop rsi=Oop [720]=Oop rdx=Oop }
                      ;*invokeinterface add {reexecute=0 rethrow=0 return_oop=0}
                      ; - jdk.internal.reflect.ClassFileAssembler::emitByte@5 (line 74)
                      ; - jdk.internal.reflect.ClassFileAssembler::emitShort@20 (line 64)
                      ; - jdk.internal.reflect.ClassFileAssembler::emitConstantPoolMethodref@8 (line 138)
                      ; - jdk.internal.reflect.AccessorGenerator::emitBoxingContantPoolEntries@1424 (line 372)
                      ;   {runtime_call throw_incompatible_class_change_error Runtime1 stub}
  0x000001e99a3b5708: b2fe e891 

  0x000001e99a3b570c: ; ImmutableOopMap {[120]=Oop rsi=Oop [720]=Oop rdx=Oop }
                      ;*invokeinterface add {reexecute=0 rethrow=0 return_oop=0}
                      ; - jdk.internal.reflect.ClassFileAssembler::emitByte@5 (line 74)
                      ; - jdk.internal.reflect.ClassFileAssembler::emitShort@10 (line 63)
                      ; - jdk.internal.reflect.ClassFileAssembler::emitConstantPoolMethodref@13 (line 139)
                      ; - jdk.internal.reflect.AccessorGenerator::emitBoxingContantPoolEntries@1424 (line 372)
                      ;   {runtime_call throw_null_pointer_exception Runtime1 stub}
  0x000001e99a3b570c: e0b2 fee8 

  0x000001e99a3b5710: ; ImmutableOopMap {[120]=Oop rsi=Oop [720]=Oop rdx=Oop }
                      ;*invokeinterface add {reexecute=0 rethrow=0 return_oop=0}
                      ; - jdk.internal.reflect.ClassFileAssembler::emitByte@5 (line 74)
                      ; - jdk.internal.reflect.ClassFileAssembler::emitShort@10 (line 63)
                      ; - jdk.internal.reflect.ClassFileAssembler::emitConstantPoolMethodref@13 (line 139)
                      ; - jdk.internal.reflect.AccessorGenerator::emitBoxingContantPoolEntries@1424 (line 372)
  0x000001e99a3b5710: 8cad b2fe 

  0x000001e99a3b5714: ;   {runtime_call throw_incompatible_class_change_error Runtime1 stub}
  0x000001e99a3b5714: e887 e0b2 

  0x000001e99a3b5718: ; ImmutableOopMap {[120]=Oop rsi=Oop [720]=Oop rdx=Oop }
                      ;*invokeinterface add {reexecute=0 rethrow=0 return_oop=0}
                      ; - jdk.internal.reflect.ClassFileAssembler::emitByte@5 (line 74)
                      ; - jdk.internal.reflect.ClassFileAssembler::emitShort@20 (line 64)
                      ; - jdk.internal.reflect.ClassFileAssembler::emitConstantPoolMethodref@13 (line 139)
                      ; - jdk.internal.reflect.AccessorGenerator::emitBoxingContantPoolEntries@1424 (line 372)
                      ;   {runtime_call throw_null_pointer_exception Runtime1 stub}
  0x000001e99a3b5718: fee8 82ad 

  0x000001e99a3b571c: ; ImmutableOopMap {[120]=Oop rsi=Oop [720]=Oop rdx=Oop }
                      ;*invokeinterface add {reexecute=0 rethrow=0 return_oop=0}
                      ; - jdk.internal.reflect.ClassFileAssembler::emitByte@5 (line 74)
                      ; - jdk.internal.reflect.ClassFileAssembler::emitShort@20 (line 64)
                      ; - jdk.internal.reflect.ClassFileAssembler::emitConstantPoolMethodref@13 (line 139)
                      ; - jdk.internal.reflect.AccessorGenerator::emitBoxingContantPoolEntries@1424 (line 372)
                      ;   {runtime_call throw_null_pointer_exception Runtime1 stub}
  0x000001e99a3b571c: b2fe e87d 

  0x000001e99a3b5720: ; ImmutableOopMap {rdx=Oop [120]=Oop }
                      ;*invokevirtual cpi {reexecute=0 rethrow=0 return_oop=0}
                      ; - jdk.internal.reflect.AccessorGenerator::emitBoxingContantPoolEntries@1432 (line 373)
                      ;   {internal_word}
  0x000001e99a3b5720: adb2 fe49 | baed 213b | 9ae9 0100 | 004d 8997 | 6003 0000 

  0x000001e99a3b5734: ;   {runtime_call SafepointBlob}
  0x000001e99a3b5734: e947 d8a8 | fe48 8bd2 

  0x000001e99a3b573c: ;   {runtime_call fast_new_instance Runtime1 stub}
  0x000001e99a3b573c: e83f b6b2 

  0x000001e99a3b5740: ; ImmutableOopMap {[120]=Oop }
                      ;*new {reexecute=0 rethrow=0 return_oop=0}
                      ; - jdk.internal.reflect.ClassFileAssembler::cpi@7 (line 95)
                      ; - jdk.internal.reflect.AccessorGenerator::emitBoxingContantPoolEntries@1432 (line 373)
  0x000001e99a3b5740: fee9 0dcb | ffff 488b 

  0x000001e99a3b5748: ;   {runtime_call fast_new_instance Runtime1 stub}
  0x000001e99a3b5748: d2e8 32b6 

  0x000001e99a3b574c: ; ImmutableOopMap {[120]=Oop [720]=Oop }
                      ;*new {reexecute=0 rethrow=0 return_oop=0}
                      ; - jdk.internal.reflect.ClassFileAssembler::cpi@7 (line 95)
                      ; - jdk.internal.reflect.AccessorGenerator::emitBoxingContantPoolEntries@1421 (line 372)
  0x000001e99a3b574c: b2fe e986 | cbff ff48 

  0x000001e99a3b5754: ;   {runtime_call fast_new_instance Runtime1 stub}
  0x000001e99a3b5754: 8bd2 e825 

  0x000001e99a3b5758: ; ImmutableOopMap {[120]=Oop [720]=Oop }
                      ;*new {reexecute=0 rethrow=0 return_oop=0}
                      ; - jdk.internal.reflect.ClassFileAssembler::cpi@7 (line 95)
                      ; - jdk.internal.reflect.AccessorGenerator::emitBoxingContantPoolEntries@1409 (line 372)
  0x000001e99a3b5758: b6b2 fee9 | f9cb ffff 

  0x000001e99a3b5760: ;   {runtime_call fast_new_instance Runtime1 stub}
  0x000001e99a3b5760: 488b d2e8 

  0x000001e99a3b5764: ; ImmutableOopMap {[120]=Oop [704]=Oop }
                      ;*new {reexecute=0 rethrow=0 return_oop=0}
                      ; - jdk.internal.reflect.ClassFileAssembler::cpi@7 (line 95)
                      ; - jdk.internal.reflect.AccessorGenerator::emitBoxingContantPoolEntries@1395 (line 371)
  0x000001e99a3b5764: 18b6 b2fe | e96c ccff | ff48 8bd2 

  0x000001e99a3b5770: ;   {runtime_call fast_new_instance Runtime1 stub}
  0x000001e99a3b5770: e80b b6b2 

  0x000001e99a3b5774: ; ImmutableOopMap {[120]=Oop [704]=Oop }
                      ;*new {reexecute=0 rethrow=0 return_oop=0}
                      ; - jdk.internal.reflect.ClassFileAssembler::cpi@7 (line 95)
                      ; - jdk.internal.reflect.AccessorGenerator::emitBoxingContantPoolEntries@1384 (line 371)
  0x000001e99a3b5774: fee9 dfcc | ffff 488b 

  0x000001e99a3b577c: ;   {runtime_call fast_new_instance Runtime1 stub}
  0x000001e99a3b577c: d2e8 feb5 

  0x000001e99a3b5780: ; ImmutableOopMap {[120]=Oop }
                      ;*new {reexecute=0 rethrow=0 return_oop=0}
                      ; - jdk.internal.reflect.ClassFileAssembler::cpi@7 (line 95)
                      ; - jdk.internal.reflect.AccessorGenerator::emitBoxingContantPoolEntries@1350 (line 368)
  0x000001e99a3b5780: b2fe e952 | cdff ff48 

  0x000001e99a3b5788: ;   {runtime_call fast_new_instance Runtime1 stub}
  0x000001e99a3b5788: 8bd2 e8f1 

  0x000001e99a3b578c: ; ImmutableOopMap {[120]=Oop [688]=Oop }
                      ;*new {reexecute=0 rethrow=0 return_oop=0}
                      ; - jdk.internal.reflect.ClassFileAssembler::cpi@7 (line 95)
                      ; - jdk.internal.reflect.AccessorGenerator::emitBoxingContantPoolEntries@1339 (line 367)
  0x000001e99a3b578c: b5b2 fee9 | c5cd ffff 

  0x000001e99a3b5794: ;   {runtime_call fast_new_instance Runtime1 stub}
  0x000001e99a3b5794: 488b d2e8 

  0x000001e99a3b5798: ; ImmutableOopMap {[120]=Oop [688]=Oop }
                      ;*new {reexecute=0 rethrow=0 return_oop=0}
                      ; - jdk.internal.reflect.ClassFileAssembler::cpi@7 (line 95)
                      ; - jdk.internal.reflect.AccessorGenerator::emitBoxingContantPoolEntries@1328 (line 367)
  0x000001e99a3b5798: e4b5 b2fe | e938 ceff | ff48 8bd2 

  0x000001e99a3b57a4: ;   {runtime_call fast_new_instance Runtime1 stub}
  0x000001e99a3b57a4: e8d7 b5b2 

  0x000001e99a3b57a8: ; ImmutableOopMap {[120]=Oop [672]=Oop }
                      ;*new {reexecute=0 rethrow=0 return_oop=0}
                      ; - jdk.internal.reflect.ClassFileAssembler::cpi@7 (line 95)
                      ; - jdk.internal.reflect.AccessorGenerator::emitBoxingContantPoolEntries@1314 (line 366)
  0x000001e99a3b57a8: fee9 abce | ffff 488b 

  0x000001e99a3b57b0: ;   {runtime_call fast_new_instance Runtime1 stub}
  0x000001e99a3b57b0: d2e8 cab5 

  0x000001e99a3b57b4: ; ImmutableOopMap {[120]=Oop }
                      ;*new {reexecute=0 rethrow=0 return_oop=0}
                      ; - jdk.internal.reflect.ClassFileAssembler::cpi@7 (line 95)
                      ; - jdk.internal.reflect.AccessorGenerator::emitBoxingContantPoolEntries@1287 (line 364)
  0x000001e99a3b57b4: b2fe e91e | cfff ff48 

  0x000001e99a3b57bc: ;   {runtime_call fast_new_instance Runtime1 stub}
  0x000001e99a3b57bc: 8bd2 e8bd 

  0x000001e99a3b57c0: ; ImmutableOopMap {[120]=Oop [664]=Oop }
                      ;*new {reexecute=0 rethrow=0 return_oop=0}
                      ; - jdk.internal.reflect.ClassFileAssembler::cpi@7 (line 95)
                      ; - jdk.internal.reflect.AccessorGenerator::emitBoxingContantPoolEntries@1276 (line 363)
  0x000001e99a3b57c0: b5b2 fee9 | 91cf ffff 

  0x000001e99a3b57c8: ;   {runtime_call fast_new_instance Runtime1 stub}
  0x000001e99a3b57c8: 488b d2e8 

  0x000001e99a3b57cc: ; ImmutableOopMap {[120]=Oop }
                      ;*new {reexecute=0 rethrow=0 return_oop=0}
                      ; - jdk.internal.reflect.ClassFileAssembler::cpi@7 (line 95)
                      ; - jdk.internal.reflect.AccessorGenerator::emitBoxingContantPoolEntries@1253 (line 359)
  0x000001e99a3b57cc: b0b5 b2fe | e904 d0ff | ff48 8bd2 

  0x000001e99a3b57d8: ;   {runtime_call fast_new_instance Runtime1 stub}
  0x000001e99a3b57d8: e8a3 b5b2 

  0x000001e99a3b57dc: ; ImmutableOopMap {[120]=Oop [648]=Oop }
                      ;*new {reexecute=0 rethrow=0 return_oop=0}
                      ; - jdk.internal.reflect.ClassFileAssembler::cpi@7 (line 95)
                      ; - jdk.internal.reflect.AccessorGenerator::emitBoxingContantPoolEntries@1242 (line 358)
  0x000001e99a3b57dc: fee9 77d0 | ffff 488b 

  0x000001e99a3b57e4: ;   {runtime_call fast_new_instance Runtime1 stub}
  0x000001e99a3b57e4: d2e8 96b5 

  0x000001e99a3b57e8: ; ImmutableOopMap {[120]=Oop [648]=Oop }
                      ;*new {reexecute=0 rethrow=0 return_oop=0}
                      ; - jdk.internal.reflect.ClassFileAssembler::cpi@7 (line 95)
                      ; - jdk.internal.reflect.AccessorGenerator::emitBoxingContantPoolEntries@1230 (line 358)
  0x000001e99a3b57e8: b2fe e9ea | d0ff ff48 

  0x000001e99a3b57f0: ;   {runtime_call fast_new_instance Runtime1 stub}
  0x000001e99a3b57f0: 8bd2 e889 

  0x000001e99a3b57f4: ; ImmutableOopMap {[120]=Oop [632]=Oop }
                      ;*new {reexecute=0 rethrow=0 return_oop=0}
                      ; - jdk.internal.reflect.ClassFileAssembler::cpi@7 (line 95)
                      ; - jdk.internal.reflect.AccessorGenerator::emitBoxingContantPoolEntries@1216 (line 357)
  0x000001e99a3b57f4: b5b2 fee9 | 5dd1 ffff 

  0x000001e99a3b57fc: ;   {runtime_call fast_new_instance Runtime1 stub}
  0x000001e99a3b57fc: 488b d2e8 

  0x000001e99a3b5800: ; ImmutableOopMap {[120]=Oop [632]=Oop }
                      ;*new {reexecute=0 rethrow=0 return_oop=0}
                      ; - jdk.internal.reflect.ClassFileAssembler::cpi@7 (line 95)
                      ; - jdk.internal.reflect.AccessorGenerator::emitBoxingContantPoolEntries@1205 (line 357)
  0x000001e99a3b5800: 7cb5 b2fe | e9d0 d1ff | ff48 8bd2 

  0x000001e99a3b580c: ;   {runtime_call fast_new_instance Runtime1 stub}
  0x000001e99a3b580c: e86f b5b2 

  0x000001e99a3b5810: ; ImmutableOopMap {[120]=Oop }
                      ;*new {reexecute=0 rethrow=0 return_oop=0}
                      ; - jdk.internal.reflect.ClassFileAssembler::cpi@7 (line 95)
                      ; - jdk.internal.reflect.AccessorGenerator::emitBoxingContantPoolEntries@1173 (line 354)
  0x000001e99a3b5810: fee9 43d2 | ffff 488b 

  0x000001e99a3b5818: ;   {runtime_call fast_new_instance Runtime1 stub}
  0x000001e99a3b5818: d2e8 62b5 

  0x000001e99a3b581c: ; ImmutableOopMap {[120]=Oop [616]=Oop }
                      ;*new {reexecute=0 rethrow=0 return_oop=0}
                      ; - jdk.internal.reflect.ClassFileAssembler::cpi@7 (line 95)
                      ; - jdk.internal.reflect.AccessorGenerator::emitBoxingContantPoolEntries@1162 (line 353)
  0x000001e99a3b581c: b2fe e9b6 | d2ff ff48 

  0x000001e99a3b5824: ;   {runtime_call fast_new_instance Runtime1 stub}
  0x000001e99a3b5824: 8bd2 e855 

  0x000001e99a3b5828: ; ImmutableOopMap {[120]=Oop [616]=Oop }
                      ;*new {reexecute=0 rethrow=0 return_oop=0}
                      ; - jdk.internal.reflect.ClassFileAssembler::cpi@7 (line 95)
                      ; - jdk.internal.reflect.AccessorGenerator::emitBoxingContantPoolEntries@1151 (line 353)
  0x000001e99a3b5828: b5b2 fee9 | 29d3 ffff 

  0x000001e99a3b5830: ;   {runtime_call fast_new_instance Runtime1 stub}
  0x000001e99a3b5830: 488b d2e8 

  0x000001e99a3b5834: ; ImmutableOopMap {[120]=Oop [600]=Oop }
                      ;*new {reexecute=0 rethrow=0 return_oop=0}
                      ; - jdk.internal.reflect.ClassFileAssembler::cpi@7 (line 95)
                      ; - jdk.internal.reflect.AccessorGenerator::emitBoxingContantPoolEntries@1137 (line 352)
  0x000001e99a3b5834: 48b5 b2fe | e99c d3ff | ff48 8bd2 

  0x000001e99a3b5840: ;   {runtime_call fast_new_instance Runtime1 stub}
  0x000001e99a3b5840: e83b b5b2 

  0x000001e99a3b5844: ; ImmutableOopMap {[120]=Oop }
                      ;*new {reexecute=0 rethrow=0 return_oop=0}
                      ; - jdk.internal.reflect.ClassFileAssembler::cpi@7 (line 95)
                      ; - jdk.internal.reflect.AccessorGenerator::emitBoxingContantPoolEntries@1110 (line 350)
  0x000001e99a3b5844: fee9 0fd4 | ffff 488b 

  0x000001e99a3b584c: ;   {runtime_call fast_new_instance Runtime1 stub}
  0x000001e99a3b584c: d2e8 2eb5 

  0x000001e99a3b5850: ; ImmutableOopMap {[120]=Oop [584]=Oop }
                      ;*new {reexecute=0 rethrow=0 return_oop=0}
                      ; - jdk.internal.reflect.ClassFileAssembler::cpi@7 (line 95)
                      ; - jdk.internal.reflect.AccessorGenerator::emitBoxingContantPoolEntries@1099 (line 349)
  0x000001e99a3b5850: b2fe e982 | d4ff ff48 

  0x000001e99a3b5858: ;   {runtime_call fast_new_instance Runtime1 stub}
  0x000001e99a3b5858: 8bd2 e821 

  0x000001e99a3b585c: ; ImmutableOopMap {[120]=Oop }
                      ;*new {reexecute=0 rethrow=0 return_oop=0}
                      ; - jdk.internal.reflect.ClassFileAssembler::cpi@7 (line 95)
                      ; - jdk.internal.reflect.AccessorGenerator::emitBoxingContantPoolEntries@1076 (line 345)
  0x000001e99a3b585c: b5b2 fee9 | f5d4 ffff 

  0x000001e99a3b5864: ;   {runtime_call fast_new_instance Runtime1 stub}
  0x000001e99a3b5864: 488b d2e8 

  0x000001e99a3b5868: ; ImmutableOopMap {[120]=Oop [568]=Oop }
                      ;*new {reexecute=0 rethrow=0 return_oop=0}
                      ; - jdk.internal.reflect.ClassFileAssembler::cpi@7 (line 95)
                      ; - jdk.internal.reflect.AccessorGenerator::emitBoxingContantPoolEntries@1065 (line 344)
  0x000001e99a3b5868: 14b5 b2fe | e968 d5ff | ff48 8bd2 

  0x000001e99a3b5874: ;   {runtime_call fast_new_instance Runtime1 stub}
  0x000001e99a3b5874: e807 b5b2 

  0x000001e99a3b5878: ; ImmutableOopMap {[120]=Oop [568]=Oop }
                      ;*new {reexecute=0 rethrow=0 return_oop=0}
                      ; - jdk.internal.reflect.ClassFileAssembler::cpi@7 (line 95)
                      ; - jdk.internal.reflect.AccessorGenerator::emitBoxingContantPoolEntries@1053 (line 344)
  0x000001e99a3b5878: fee9 dbd5 | ffff 488b 

  0x000001e99a3b5880: ;   {runtime_call fast_new_instance Runtime1 stub}
  0x000001e99a3b5880: d2e8 fab4 

  0x000001e99a3b5884: ; ImmutableOopMap {[120]=Oop [552]=Oop }
                      ;*new {reexecute=0 rethrow=0 return_oop=0}
                      ; - jdk.internal.reflect.ClassFileAssembler::cpi@7 (line 95)
                      ; - jdk.internal.reflect.AccessorGenerator::emitBoxingContantPoolEntries@1039 (line 343)
  0x000001e99a3b5884: b2fe e94e | d6ff ff48 

  0x000001e99a3b588c: ;   {runtime_call fast_new_instance Runtime1 stub}
  0x000001e99a3b588c: 8bd2 e8ed 

  0x000001e99a3b5890: ; ImmutableOopMap {[120]=Oop [552]=Oop }
                      ;*new {reexecute=0 rethrow=0 return_oop=0}
                      ; - jdk.internal.reflect.ClassFileAssembler::cpi@7 (line 95)
                      ; - jdk.internal.reflect.AccessorGenerator::emitBoxingContantPoolEntries@1028 (line 343)
  0x000001e99a3b5890: b4b2 fee9 | c1d6 ffff 

  0x000001e99a3b5898: ;   {runtime_call fast_new_instance Runtime1 stub}
  0x000001e99a3b5898: 488b d2e8 

  0x000001e99a3b589c: ; ImmutableOopMap {[120]=Oop }
                      ;*new {reexecute=0 rethrow=0 return_oop=0}
                      ; - jdk.internal.reflect.ClassFileAssembler::cpi@7 (line 95)
                      ; - jdk.internal.reflect.AccessorGenerator::emitBoxingContantPoolEntries@996 (line 340)
  0x000001e99a3b589c: e0b4 b2fe | e934 d7ff | ff48 8bd2 

  0x000001e99a3b58a8: ;   {runtime_call fast_new_instance Runtime1 stub}
  0x000001e99a3b58a8: e8d3 b4b2 

  0x000001e99a3b58ac: ; ImmutableOopMap {[120]=Oop [536]=Oop }
                      ;*new {reexecute=0 rethrow=0 return_oop=0}
                      ; - jdk.internal.reflect.ClassFileAssembler::cpi@7 (line 95)
                      ; - jdk.internal.reflect.AccessorGenerator::emitBoxingContantPoolEntries@985 (line 339)
  0x000001e99a3b58ac: fee9 a7d7 | ffff 488b 

  0x000001e99a3b58b4: ;   {runtime_call fast_new_instance Runtime1 stub}
  0x000001e99a3b58b4: d2e8 c6b4 

  0x000001e99a3b58b8: ; ImmutableOopMap {[120]=Oop [536]=Oop }
                      ;*new {reexecute=0 rethrow=0 return_oop=0}
                      ; - jdk.internal.reflect.ClassFileAssembler::cpi@7 (line 95)
                      ; - jdk.internal.reflect.AccessorGenerator::emitBoxingContantPoolEntries@974 (line 339)
  0x000001e99a3b58b8: b2fe e91a | d8ff ff48 

  0x000001e99a3b58c0: ;   {runtime_call fast_new_instance Runtime1 stub}
  0x000001e99a3b58c0: 8bd2 e8b9 

  0x000001e99a3b58c4: ; ImmutableOopMap {[120]=Oop [520]=Oop }
                      ;*new {reexecute=0 rethrow=0 return_oop=0}
                      ; - jdk.internal.reflect.ClassFileAssembler::cpi@7 (line 95)
                      ; - jdk.internal.reflect.AccessorGenerator::emitBoxingContantPoolEntries@960 (line 338)
  0x000001e99a3b58c4: b4b2 fee9 | 8dd8 ffff 

  0x000001e99a3b58cc: ;   {runtime_call fast_new_instance Runtime1 stub}
  0x000001e99a3b58cc: 488b d2e8 

  0x000001e99a3b58d0: ; ImmutableOopMap {[120]=Oop }
                      ;*new {reexecute=0 rethrow=0 return_oop=0}
                      ; - jdk.internal.reflect.ClassFileAssembler::cpi@7 (line 95)
                      ; - jdk.internal.reflect.AccessorGenerator::emitBoxingContantPoolEntries@933 (line 336)
  0x000001e99a3b58d0: acb4 b2fe | e900 d9ff | ff48 8bd2 

  0x000001e99a3b58dc: ;   {runtime_call fast_new_instance Runtime1 stub}
  0x000001e99a3b58dc: e89f b4b2 

  0x000001e99a3b58e0: ; ImmutableOopMap {[120]=Oop [512]=Oop }
                      ;*new {reexecute=0 rethrow=0 return_oop=0}
                      ; - jdk.internal.reflect.ClassFileAssembler::cpi@7 (line 95)
                      ; - jdk.internal.reflect.AccessorGenerator::emitBoxingContantPoolEntries@922 (line 335)
  0x000001e99a3b58e0: fee9 73d9 | ffff 488b 

  0x000001e99a3b58e8: ;   {runtime_call fast_new_instance Runtime1 stub}
  0x000001e99a3b58e8: d2e8 92b4 

  0x000001e99a3b58ec: ; ImmutableOopMap {[120]=Oop }
                      ;*new {reexecute=0 rethrow=0 return_oop=0}
                      ; - jdk.internal.reflect.ClassFileAssembler::cpi@7 (line 95)
                      ; - jdk.internal.reflect.AccessorGenerator::emitBoxingContantPoolEntries@899 (line 331)
  0x000001e99a3b58ec: b2fe e9e6 | d9ff ff48 

  0x000001e99a3b58f4: ;   {runtime_call fast_new_instance Runtime1 stub}
  0x000001e99a3b58f4: 8bd2 e885 

  0x000001e99a3b58f8: ; ImmutableOopMap {[120]=Oop [496]=Oop }
                      ;*new {reexecute=0 rethrow=0 return_oop=0}
                      ; - jdk.internal.reflect.ClassFileAssembler::cpi@7 (line 95)
                      ; - jdk.internal.reflect.AccessorGenerator::emitBoxingContantPoolEntries@888 (line 330)
  0x000001e99a3b58f8: b4b2 fee9 | 59da ffff 

  0x000001e99a3b5900: ;   {runtime_call fast_new_instance Runtime1 stub}
  0x000001e99a3b5900: 488b d2e8 

  0x000001e99a3b5904: ; ImmutableOopMap {[120]=Oop [496]=Oop }
                      ;*new {reexecute=0 rethrow=0 return_oop=0}
                      ; - jdk.internal.reflect.ClassFileAssembler::cpi@7 (line 95)
                      ; - jdk.internal.reflect.AccessorGenerator::emitBoxingContantPoolEntries@876 (line 330)
  0x000001e99a3b5904: 78b4 b2fe | e9cc daff | ff48 8bd2 

  0x000001e99a3b5910: ;   {runtime_call fast_new_instance Runtime1 stub}
  0x000001e99a3b5910: e86b b4b2 

  0x000001e99a3b5914: ; ImmutableOopMap {[120]=Oop [480]=Oop }
                      ;*new {reexecute=0 rethrow=0 return_oop=0}
                      ; - jdk.internal.reflect.ClassFileAssembler::cpi@7 (line 95)
                      ; - jdk.internal.reflect.AccessorGenerator::emitBoxingContantPoolEntries@862 (line 329)
  0x000001e99a3b5914: fee9 3fdb | ffff 488b 

  0x000001e99a3b591c: ;   {runtime_call fast_new_instance Runtime1 stub}
  0x000001e99a3b591c: d2e8 5eb4 

  0x000001e99a3b5920: ; ImmutableOopMap {[120]=Oop [480]=Oop }
                      ;*new {reexecute=0 rethrow=0 return_oop=0}
                      ; - jdk.internal.reflect.ClassFileAssembler::cpi@7 (line 95)
                      ; - jdk.internal.reflect.AccessorGenerator::emitBoxingContantPoolEntries@851 (line 329)
  0x000001e99a3b5920: b2fe e9b2 | dbff ff48 

  0x000001e99a3b5928: ;   {runtime_call fast_new_instance Runtime1 stub}
  0x000001e99a3b5928: 8bd2 e851 

  0x000001e99a3b592c: ; ImmutableOopMap {[120]=Oop }
                      ;*new {reexecute=0 rethrow=0 return_oop=0}
                      ; - jdk.internal.reflect.ClassFileAssembler::cpi@7 (line 95)
                      ; - jdk.internal.reflect.AccessorGenerator::emitBoxingContantPoolEntries@819 (line 326)
  0x000001e99a3b592c: b4b2 fee9 | 25dc ffff 

  0x000001e99a3b5934: ;   {runtime_call fast_new_instance Runtime1 stub}
  0x000001e99a3b5934: 488b d2e8 

  0x000001e99a3b5938: ; ImmutableOopMap {[120]=Oop [464]=Oop }
                      ;*new {reexecute=0 rethrow=0 return_oop=0}
                      ; - jdk.internal.reflect.ClassFileAssembler::cpi@7 (line 95)
                      ; - jdk.internal.reflect.AccessorGenerator::emitBoxingContantPoolEntries@808 (line 325)
  0x000001e99a3b5938: 44b4 b2fe | e998 dcff | ff48 8bd2 

  0x000001e99a3b5944: ;   {runtime_call fast_new_instance Runtime1 stub}
  0x000001e99a3b5944: e837 b4b2 

  0x000001e99a3b5948: ; ImmutableOopMap {[120]=Oop [464]=Oop }
                      ;*new {reexecute=0 rethrow=0 return_oop=0}
                      ; - jdk.internal.reflect.ClassFileAssembler::cpi@7 (line 95)
                      ; - jdk.internal.reflect.AccessorGenerator::emitBoxingContantPoolEntries@797 (line 325)
  0x000001e99a3b5948: fee9 0bdd | ffff 488b 

  0x000001e99a3b5950: ;   {runtime_call fast_new_instance Runtime1 stub}
  0x000001e99a3b5950: d2e8 2ab4 

  0x000001e99a3b5954: ; ImmutableOopMap {[120]=Oop [448]=Oop }
                      ;*new {reexecute=0 rethrow=0 return_oop=0}
                      ; - jdk.internal.reflect.ClassFileAssembler::cpi@7 (line 95)
                      ; - jdk.internal.reflect.AccessorGenerator::emitBoxingContantPoolEntries@783 (line 324)
  0x000001e99a3b5954: b2fe e97e | ddff ff48 

  0x000001e99a3b595c: ;   {runtime_call fast_new_instance Runtime1 stub}
  0x000001e99a3b595c: 8bd2 e81d 

  0x000001e99a3b5960: ; ImmutableOopMap {[120]=Oop }
                      ;*new {reexecute=0 rethrow=0 return_oop=0}
                      ; - jdk.internal.reflect.ClassFileAssembler::cpi@7 (line 95)
                      ; - jdk.internal.reflect.AccessorGenerator::emitBoxingContantPoolEntries@756 (line 322)
  0x000001e99a3b5960: b4b2 fee9 | f1dd ffff 

  0x000001e99a3b5968: ;   {runtime_call fast_new_instance Runtime1 stub}
  0x000001e99a3b5968: 488b d2e8 

  0x000001e99a3b596c: ; ImmutableOopMap {[120]=Oop [432]=Oop }
                      ;*new {reexecute=0 rethrow=0 return_oop=0}
                      ; - jdk.internal.reflect.ClassFileAssembler::cpi@7 (line 95)
                      ; - jdk.internal.reflect.AccessorGenerator::emitBoxingContantPoolEntries@745 (line 321)
  0x000001e99a3b596c: 10b4 b2fe | e964 deff | ff48 8bd2 

  0x000001e99a3b5978: ;   {runtime_call fast_new_instance Runtime1 stub}
  0x000001e99a3b5978: e803 b4b2 

  0x000001e99a3b597c: ; ImmutableOopMap {[120]=Oop }
                      ;*new {reexecute=0 rethrow=0 return_oop=0}
                      ; - jdk.internal.reflect.ClassFileAssembler::cpi@7 (line 95)
                      ; - jdk.internal.reflect.AccessorGenerator::emitBoxingContantPoolEntries@722 (line 317)
  0x000001e99a3b597c: fee9 d7de | ffff 488b 

  0x000001e99a3b5984: ;   {runtime_call fast_new_instance Runtime1 stub}
  0x000001e99a3b5984: d2e8 f6b3 

  0x000001e99a3b5988: ; ImmutableOopMap {[120]=Oop [416]=Oop }
                      ;*new {reexecute=0 rethrow=0 return_oop=0}
                      ; - jdk.internal.reflect.ClassFileAssembler::cpi@7 (line 95)
                      ; - jdk.internal.reflect.AccessorGenerator::emitBoxingContantPoolEntries@711 (line 316)
  0x000001e99a3b5988: b2fe e94a | dfff ff48 

  0x000001e99a3b5990: ;   {runtime_call fast_new_instance Runtime1 stub}
  0x000001e99a3b5990: 8bd2 e8e9 

  0x000001e99a3b5994: ; ImmutableOopMap {[120]=Oop [416]=Oop }
                      ;*new {reexecute=0 rethrow=0 return_oop=0}
                      ; - jdk.internal.reflect.ClassFileAssembler::cpi@7 (line 95)
                      ; - jdk.internal.reflect.AccessorGenerator::emitBoxingContantPoolEntries@699 (line 316)
  0x000001e99a3b5994: b3b2 fee9 | bddf ffff 

  0x000001e99a3b599c: ;   {runtime_call fast_new_instance Runtime1 stub}
  0x000001e99a3b599c: 488b d2e8 

  0x000001e99a3b59a0: ; ImmutableOopMap {[120]=Oop [400]=Oop }
                      ;*new {reexecute=0 rethrow=0 return_oop=0}
                      ; - jdk.internal.reflect.ClassFileAssembler::cpi@7 (line 95)
                      ; - jdk.internal.reflect.AccessorGenerator::emitBoxingContantPoolEntries@685 (line 315)
  0x000001e99a3b59a0: dcb3 b2fe | e930 e0ff | ff48 8bd2 

  0x000001e99a3b59ac: ;   {runtime_call fast_new_instance Runtime1 stub}
  0x000001e99a3b59ac: e8cf b3b2 

  0x000001e99a3b59b0: ; ImmutableOopMap {[120]=Oop [400]=Oop }
                      ;*new {reexecute=0 rethrow=0 return_oop=0}
                      ; - jdk.internal.reflect.ClassFileAssembler::cpi@7 (line 95)
                      ; - jdk.internal.reflect.AccessorGenerator::emitBoxingContantPoolEntries@674 (line 315)
  0x000001e99a3b59b0: fee9 a3e0 | ffff 488b 

  0x000001e99a3b59b8: ;   {runtime_call fast_new_instance Runtime1 stub}
  0x000001e99a3b59b8: d2e8 c2b3 

  0x000001e99a3b59bc: ; ImmutableOopMap {[120]=Oop }
                      ;*new {reexecute=0 rethrow=0 return_oop=0}
                      ; - jdk.internal.reflect.ClassFileAssembler::cpi@7 (line 95)
                      ; - jdk.internal.reflect.AccessorGenerator::emitBoxingContantPoolEntries@642 (line 312)
  0x000001e99a3b59bc: b2fe e916 | e1ff ff48 

  0x000001e99a3b59c4: ;   {runtime_call fast_new_instance Runtime1 stub}
  0x000001e99a3b59c4: 8bd2 e8b5 

  0x000001e99a3b59c8: ; ImmutableOopMap {[120]=Oop [384]=Oop }
                      ;*new {reexecute=0 rethrow=0 return_oop=0}
                      ; - jdk.internal.reflect.ClassFileAssembler::cpi@7 (line 95)
                      ; - jdk.internal.reflect.AccessorGenerator::emitBoxingContantPoolEntries@631 (line 311)
  0x000001e99a3b59c8: b3b2 fee9 | 89e1 ffff 

  0x000001e99a3b59d0: ;   {runtime_call fast_new_instance Runtime1 stub}
  0x000001e99a3b59d0: 488b d2e8 

  0x000001e99a3b59d4: ; ImmutableOopMap {[120]=Oop [384]=Oop }
                      ;*new {reexecute=0 rethrow=0 return_oop=0}
                      ; - jdk.internal.reflect.ClassFileAssembler::cpi@7 (line 95)
                      ; - jdk.internal.reflect.AccessorGenerator::emitBoxingContantPoolEntries@620 (line 311)
  0x000001e99a3b59d4: a8b3 b2fe | e9fc e1ff | ff48 8bd2 

  0x000001e99a3b59e0: ;   {runtime_call fast_new_instance Runtime1 stub}
  0x000001e99a3b59e0: e89b b3b2 

  0x000001e99a3b59e4: ; ImmutableOopMap {[120]=Oop [368]=Oop }
                      ;*new {reexecute=0 rethrow=0 return_oop=0}
                      ; - jdk.internal.reflect.ClassFileAssembler::cpi@7 (line 95)
                      ; - jdk.internal.reflect.AccessorGenerator::emitBoxingContantPoolEntries@606 (line 310)
  0x000001e99a3b59e4: fee9 6fe2 | ffff 488b 

  0x000001e99a3b59ec: ;   {runtime_call fast_new_instance Runtime1 stub}
  0x000001e99a3b59ec: d2e8 8eb3 

  0x000001e99a3b59f0: ; ImmutableOopMap {[120]=Oop }
                      ;*new {reexecute=0 rethrow=0 return_oop=0}
                      ; - jdk.internal.reflect.ClassFileAssembler::cpi@7 (line 95)
                      ; - jdk.internal.reflect.AccessorGenerator::emitBoxingContantPoolEntries@579 (line 308)
  0x000001e99a3b59f0: b2fe e9e2 | e2ff ff48 

  0x000001e99a3b59f8: ;   {runtime_call fast_new_instance Runtime1 stub}
  0x000001e99a3b59f8: 8bd2 e881 

  0x000001e99a3b59fc: ; ImmutableOopMap {[120]=Oop [360]=Oop }
                      ;*new {reexecute=0 rethrow=0 return_oop=0}
                      ; - jdk.internal.reflect.ClassFileAssembler::cpi@7 (line 95)
                      ; - jdk.internal.reflect.AccessorGenerator::emitBoxingContantPoolEntries@568 (line 307)
  0x000001e99a3b59fc: b3b2 fee9 | 55e3 ffff 

  0x000001e99a3b5a04: ;   {runtime_call fast_new_instance Runtime1 stub}
  0x000001e99a3b5a04: 488b d2e8 

  0x000001e99a3b5a08: ; ImmutableOopMap {[120]=Oop }
                      ;*new {reexecute=0 rethrow=0 return_oop=0}
                      ; - jdk.internal.reflect.ClassFileAssembler::cpi@7 (line 95)
                      ; - jdk.internal.reflect.AccessorGenerator::emitBoxingContantPoolEntries@545 (line 303)
  0x000001e99a3b5a08: 74b3 b2fe | e9c8 e3ff | ff48 8bd2 

  0x000001e99a3b5a14: ;   {runtime_call fast_new_instance Runtime1 stub}
  0x000001e99a3b5a14: e867 b3b2 

  0x000001e99a3b5a18: ; ImmutableOopMap {[120]=Oop [344]=Oop }
                      ;*new {reexecute=0 rethrow=0 return_oop=0}
                      ; - jdk.internal.reflect.ClassFileAssembler::cpi@7 (line 95)
                      ; - jdk.internal.reflect.AccessorGenerator::emitBoxingContantPoolEntries@534 (line 302)
  0x000001e99a3b5a18: fee9 3be4 | ffff 488b 

  0x000001e99a3b5a20: ;   {runtime_call fast_new_instance Runtime1 stub}
  0x000001e99a3b5a20: d2e8 5ab3 

  0x000001e99a3b5a24: ; ImmutableOopMap {[120]=Oop [344]=Oop }
                      ;*new {reexecute=0 rethrow=0 return_oop=0}
                      ; - jdk.internal.reflect.ClassFileAssembler::cpi@7 (line 95)
                      ; - jdk.internal.reflect.AccessorGenerator::emitBoxingContantPoolEntries@522 (line 302)
  0x000001e99a3b5a24: b2fe e9ae | e4ff ff48 

  0x000001e99a3b5a2c: ;   {runtime_call fast_new_instance Runtime1 stub}
  0x000001e99a3b5a2c: 8bd2 e84d 

  0x000001e99a3b5a30: ; ImmutableOopMap {[120]=Oop [328]=Oop }
                      ;*new {reexecute=0 rethrow=0 return_oop=0}
                      ; - jdk.internal.reflect.ClassFileAssembler::cpi@7 (line 95)
                      ; - jdk.internal.reflect.AccessorGenerator::emitBoxingContantPoolEntries@508 (line 301)
  0x000001e99a3b5a30: b3b2 fee9 | 21e5 ffff 

  0x000001e99a3b5a38: ;   {runtime_call fast_new_instance Runtime1 stub}
  0x000001e99a3b5a38: 488b d2e8 

  0x000001e99a3b5a3c: ; ImmutableOopMap {[120]=Oop [328]=Oop }
                      ;*new {reexecute=0 rethrow=0 return_oop=0}
                      ; - jdk.internal.reflect.ClassFileAssembler::cpi@7 (line 95)
                      ; - jdk.internal.reflect.AccessorGenerator::emitBoxingContantPoolEntries@497 (line 301)
  0x000001e99a3b5a3c: 40b3 b2fe | e994 e5ff | ff48 8bd2 

  0x000001e99a3b5a48: ;   {runtime_call fast_new_instance Runtime1 stub}
  0x000001e99a3b5a48: e833 b3b2 

  0x000001e99a3b5a4c: ; ImmutableOopMap {[120]=Oop }
                      ;*new {reexecute=0 rethrow=0 return_oop=0}
                      ; - jdk.internal.reflect.ClassFileAssembler::cpi@7 (line 95)
                      ; - jdk.internal.reflect.AccessorGenerator::emitBoxingContantPoolEntries@465 (line 298)
  0x000001e99a3b5a4c: fee9 07e6 | ffff 488b 

  0x000001e99a3b5a54: ;   {runtime_call fast_new_instance Runtime1 stub}
  0x000001e99a3b5a54: d2e8 26b3 

  0x000001e99a3b5a58: ; ImmutableOopMap {[120]=Oop [312]=Oop }
                      ;*new {reexecute=0 rethrow=0 return_oop=0}
                      ; - jdk.internal.reflect.ClassFileAssembler::cpi@7 (line 95)
                      ; - jdk.internal.reflect.AccessorGenerator::emitBoxingContantPoolEntries@454 (line 297)
  0x000001e99a3b5a58: b2fe e97a | e6ff ff48 

  0x000001e99a3b5a60: ;   {runtime_call fast_new_instance Runtime1 stub}
  0x000001e99a3b5a60: 8bd2 e819 

  0x000001e99a3b5a64: ; ImmutableOopMap {[120]=Oop [312]=Oop }
                      ;*new {reexecute=0 rethrow=0 return_oop=0}
                      ; - jdk.internal.reflect.ClassFileAssembler::cpi@7 (line 95)
                      ; - jdk.internal.reflect.AccessorGenerator::emitBoxingContantPoolEntries@443 (line 297)
  0x000001e99a3b5a64: b3b2 fee9 | ede6 ffff 

  0x000001e99a3b5a6c: ;   {runtime_call fast_new_instance Runtime1 stub}
  0x000001e99a3b5a6c: 488b d2e8 

  0x000001e99a3b5a70: ; ImmutableOopMap {[120]=Oop [296]=Oop }
                      ;*new {reexecute=0 rethrow=0 return_oop=0}
                      ; - jdk.internal.reflect.ClassFileAssembler::cpi@7 (line 95)
                      ; - jdk.internal.reflect.AccessorGenerator::emitBoxingContantPoolEntries@429 (line 296)
  0x000001e99a3b5a70: 0cb3 b2fe | e960 e7ff | ff48 8bd2 

  0x000001e99a3b5a7c: ;   {runtime_call fast_new_instance Runtime1 stub}
  0x000001e99a3b5a7c: e8ff b2b2 

  0x000001e99a3b5a80: ; ImmutableOopMap {[120]=Oop }
                      ;*new {reexecute=0 rethrow=0 return_oop=0}
                      ; - jdk.internal.reflect.ClassFileAssembler::cpi@7 (line 95)
                      ; - jdk.internal.reflect.AccessorGenerator::emitBoxingContantPoolEntries@402 (line 294)
  0x000001e99a3b5a80: fee9 d3e7 | ffff 488b 

  0x000001e99a3b5a88: ;   {runtime_call fast_new_instance Runtime1 stub}
  0x000001e99a3b5a88: d2e8 f2b2 

  0x000001e99a3b5a8c: ; ImmutableOopMap {[120]=Oop [280]=Oop }
                      ;*new {reexecute=0 rethrow=0 return_oop=0}
                      ; - jdk.internal.reflect.ClassFileAssembler::cpi@7 (line 95)
                      ; - jdk.internal.reflect.AccessorGenerator::emitBoxingContantPoolEntries@391 (line 293)
  0x000001e99a3b5a8c: b2fe e946 | e8ff ff48 

  0x000001e99a3b5a94: ;   {runtime_call fast_new_instance Runtime1 stub}
  0x000001e99a3b5a94: 8bd2 e8e5 

  0x000001e99a3b5a98: ; ImmutableOopMap {[120]=Oop }
                      ;*new {reexecute=0 rethrow=0 return_oop=0}
                      ; - jdk.internal.reflect.ClassFileAssembler::cpi@7 (line 95)
                      ; - jdk.internal.reflect.AccessorGenerator::emitBoxingContantPoolEntries@368 (line 289)
  0x000001e99a3b5a98: b2b2 fee9 | b9e8 ffff 

  0x000001e99a3b5aa0: ;   {runtime_call fast_new_instance Runtime1 stub}
  0x000001e99a3b5aa0: 488b d2e8 

  0x000001e99a3b5aa4: ; ImmutableOopMap {[120]=Oop [264]=Oop }
                      ;*new {reexecute=0 rethrow=0 return_oop=0}
                      ; - jdk.internal.reflect.ClassFileAssembler::cpi@7 (line 95)
                      ; - jdk.internal.reflect.AccessorGenerator::emitBoxingContantPoolEntries@357 (line 288)
  0x000001e99a3b5aa4: d8b2 b2fe | e92c e9ff | ff48 8bd2 

  0x000001e99a3b5ab0: ;   {runtime_call fast_new_instance Runtime1 stub}
  0x000001e99a3b5ab0: e8cb b2b2 

  0x000001e99a3b5ab4: ; ImmutableOopMap {[120]=Oop [264]=Oop }
                      ;*new {reexecute=0 rethrow=0 return_oop=0}
                      ; - jdk.internal.reflect.ClassFileAssembler::cpi@7 (line 95)
                      ; - jdk.internal.reflect.AccessorGenerator::emitBoxingContantPoolEntries@345 (line 288)
  0x000001e99a3b5ab4: fee9 9fe9 | ffff 488b 

  0x000001e99a3b5abc: ;   {runtime_call fast_new_instance Runtime1 stub}
  0x000001e99a3b5abc: d2e8 beb2 

  0x000001e99a3b5ac0: ; ImmutableOopMap {[120]=Oop [248]=Oop }
                      ;*new {reexecute=0 rethrow=0 return_oop=0}
                      ; - jdk.internal.reflect.ClassFileAssembler::cpi@7 (line 95)
                      ; - jdk.internal.reflect.AccessorGenerator::emitBoxingContantPoolEntries@331 (line 287)
  0x000001e99a3b5ac0: b2fe e912 | eaff ff48 

  0x000001e99a3b5ac8: ;   {runtime_call fast_new_instance Runtime1 stub}
  0x000001e99a3b5ac8: 8bd2 e8b1 

  0x000001e99a3b5acc: ; ImmutableOopMap {[120]=Oop [248]=Oop }
                      ;*new {reexecute=0 rethrow=0 return_oop=0}
                      ; - jdk.internal.reflect.ClassFileAssembler::cpi@7 (line 95)
                      ; - jdk.internal.reflect.AccessorGenerator::emitBoxingContantPoolEntries@320 (line 287)
  0x000001e99a3b5acc: b2b2 fee9 | 85ea ffff 

  0x000001e99a3b5ad4: ;   {runtime_call fast_new_instance Runtime1 stub}
  0x000001e99a3b5ad4: 488b d2e8 

  0x000001e99a3b5ad8: ; ImmutableOopMap {[120]=Oop }
                      ;*new {reexecute=0 rethrow=0 return_oop=0}
                      ; - jdk.internal.reflect.ClassFileAssembler::cpi@7 (line 95)
                      ; - jdk.internal.reflect.AccessorGenerator::emitBoxingContantPoolEntries@288 (line 284)
  0x000001e99a3b5ad8: a4b2 b2fe | e9f8 eaff | ff48 8bd2 

  0x000001e99a3b5ae4: ;   {runtime_call fast_new_instance Runtime1 stub}
  0x000001e99a3b5ae4: e897 b2b2 

  0x000001e99a3b5ae8: ; ImmutableOopMap {[120]=Oop [232]=Oop }
                      ;*new {reexecute=0 rethrow=0 return_oop=0}
                      ; - jdk.internal.reflect.ClassFileAssembler::cpi@7 (line 95)
                      ; - jdk.internal.reflect.AccessorGenerator::emitBoxingContantPoolEntries@277 (line 283)
  0x000001e99a3b5ae8: fee9 6beb | ffff 488b 

  0x000001e99a3b5af0: ;   {runtime_call fast_new_instance Runtime1 stub}
  0x000001e99a3b5af0: d2e8 8ab2 

  0x000001e99a3b5af4: ; ImmutableOopMap {[120]=Oop [232]=Oop }
                      ;*new {reexecute=0 rethrow=0 return_oop=0}
                      ; - jdk.internal.reflect.ClassFileAssembler::cpi@7 (line 95)
                      ; - jdk.internal.reflect.AccessorGenerator::emitBoxingContantPoolEntries@266 (line 283)
  0x000001e99a3b5af4: b2fe e9de | ebff ff48 

  0x000001e99a3b5afc: ;   {runtime_call fast_new_instance Runtime1 stub}
  0x000001e99a3b5afc: 8bd2 e87d 

  0x000001e99a3b5b00: ; ImmutableOopMap {[120]=Oop [216]=Oop }
                      ;*new {reexecute=0 rethrow=0 return_oop=0}
                      ; - jdk.internal.reflect.ClassFileAssembler::cpi@7 (line 95)
                      ; - jdk.internal.reflect.AccessorGenerator::emitBoxingContantPoolEntries@252 (line 282)
  0x000001e99a3b5b00: b2b2 fee9 | 51ec ffff 

  0x000001e99a3b5b08: ;   {runtime_call fast_new_instance Runtime1 stub}
  0x000001e99a3b5b08: 488b d2e8 

  0x000001e99a3b5b0c: ; ImmutableOopMap {[120]=Oop }
                      ;*new {reexecute=0 rethrow=0 return_oop=0}
                      ; - jdk.internal.reflect.ClassFileAssembler::cpi@7 (line 95)
                      ; - jdk.internal.reflect.AccessorGenerator::emitBoxingContantPoolEntries@225 (line 280)
  0x000001e99a3b5b0c: 70b2 b2fe | e9c4 ecff | ff48 8bd2 

  0x000001e99a3b5b18: ;   {runtime_call fast_new_instance Runtime1 stub}
  0x000001e99a3b5b18: e863 b2b2 

  0x000001e99a3b5b1c: ; ImmutableOopMap {[120]=Oop [208]=Oop }
                      ;*new {reexecute=0 rethrow=0 return_oop=0}
                      ; - jdk.internal.reflect.ClassFileAssembler::cpi@7 (line 95)
                      ; - jdk.internal.reflect.AccessorGenerator::emitBoxingContantPoolEntries@214 (line 279)
  0x000001e99a3b5b1c: fee9 37ed | ffff 488b 

  0x000001e99a3b5b24: ;   {runtime_call fast_new_instance Runtime1 stub}
  0x000001e99a3b5b24: d2e8 56b2 

  0x000001e99a3b5b28: ; ImmutableOopMap {[120]=Oop }
                      ;*new {reexecute=0 rethrow=0 return_oop=0}
                      ; - jdk.internal.reflect.ClassFileAssembler::cpi@7 (line 95)
                      ; - jdk.internal.reflect.AccessorGenerator::emitBoxingContantPoolEntries@191 (line 275)
  0x000001e99a3b5b28: b2fe e9aa | edff ff48 

  0x000001e99a3b5b30: ;   {runtime_call fast_new_instance Runtime1 stub}
  0x000001e99a3b5b30: 8bd2 e849 

  0x000001e99a3b5b34: ; ImmutableOopMap {[120]=Oop [192]=Oop }
                      ;*new {reexecute=0 rethrow=0 return_oop=0}
                      ; - jdk.internal.reflect.ClassFileAssembler::cpi@7 (line 95)
                      ; - jdk.internal.reflect.AccessorGenerator::emitBoxingContantPoolEntries@180 (line 274)
  0x000001e99a3b5b34: b2b2 fee9 | 1dee ffff 

  0x000001e99a3b5b3c: ;   {runtime_call fast_new_instance Runtime1 stub}
  0x000001e99a3b5b3c: 488b d2e8 

  0x000001e99a3b5b40: ; ImmutableOopMap {[120]=Oop [192]=Oop }
                      ;*new {reexecute=0 rethrow=0 return_oop=0}
                      ; - jdk.internal.reflect.ClassFileAssembler::cpi@7 (line 95)
                      ; - jdk.internal.reflect.AccessorGenerator::emitBoxingContantPoolEntries@168 (line 274)
  0x000001e99a3b5b40: 3cb2 b2fe | e990 eeff | ff48 8bd2 

  0x000001e99a3b5b4c: ;   {runtime_call fast_new_instance Runtime1 stub}
  0x000001e99a3b5b4c: e82f b2b2 

  0x000001e99a3b5b50: ; ImmutableOopMap {[120]=Oop [176]=Oop }
                      ;*new {reexecute=0 rethrow=0 return_oop=0}
                      ; - jdk.internal.reflect.ClassFileAssembler::cpi@7 (line 95)
                      ; - jdk.internal.reflect.AccessorGenerator::emitBoxingContantPoolEntries@154 (line 273)
  0x000001e99a3b5b50: fee9 03ef | ffff 488b 

  0x000001e99a3b5b58: ;   {runtime_call fast_new_instance Runtime1 stub}
  0x000001e99a3b5b58: d2e8 22b2 

  0x000001e99a3b5b5c: ; ImmutableOopMap {[120]=Oop [176]=Oop }
                      ;*new {reexecute=0 rethrow=0 return_oop=0}
                      ; - jdk.internal.reflect.ClassFileAssembler::cpi@7 (line 95)
                      ; - jdk.internal.reflect.AccessorGenerator::emitBoxingContantPoolEntries@143 (line 273)
  0x000001e99a3b5b5c: b2fe e976 | efff ff48 

  0x000001e99a3b5b64: ;   {runtime_call fast_new_instance Runtime1 stub}
  0x000001e99a3b5b64: 8bd2 e815 

  0x000001e99a3b5b68: ; ImmutableOopMap {[120]=Oop }
                      ;*new {reexecute=0 rethrow=0 return_oop=0}
                      ; - jdk.internal.reflect.ClassFileAssembler::cpi@7 (line 95)
                      ; - jdk.internal.reflect.AccessorGenerator::emitBoxingContantPoolEntries@111 (line 270)
  0x000001e99a3b5b68: b2b2 fee9 | e9ef ffff 

  0x000001e99a3b5b70: ;   {runtime_call fast_new_instance Runtime1 stub}
  0x000001e99a3b5b70: 488b d2e8 

  0x000001e99a3b5b74: ; ImmutableOopMap {[120]=Oop [160]=Oop }
                      ;*new {reexecute=0 rethrow=0 return_oop=0}
                      ; - jdk.internal.reflect.ClassFileAssembler::cpi@7 (line 95)
                      ; - jdk.internal.reflect.AccessorGenerator::emitBoxingContantPoolEntries@100 (line 269)
  0x000001e99a3b5b74: 08b2 b2fe | e95c f0ff | ff48 8bd2 

  0x000001e99a3b5b80: ;   {runtime_call fast_new_instance Runtime1 stub}
  0x000001e99a3b5b80: e8fb b1b2 

  0x000001e99a3b5b84: ; ImmutableOopMap {[120]=Oop [160]=Oop }
                      ;*new {reexecute=0 rethrow=0 return_oop=0}
                      ; - jdk.internal.reflect.ClassFileAssembler::cpi@7 (line 95)
                      ; - jdk.internal.reflect.AccessorGenerator::emitBoxingContantPoolEntries@89 (line 269)
  0x000001e99a3b5b84: fee9 cff0 | ffff 488b 

  0x000001e99a3b5b8c: ;   {runtime_call fast_new_instance Runtime1 stub}
  0x000001e99a3b5b8c: d2e8 eeb1 

  0x000001e99a3b5b90: ; ImmutableOopMap {[120]=Oop [144]=Oop }
                      ;*new {reexecute=0 rethrow=0 return_oop=0}
                      ; - jdk.internal.reflect.ClassFileAssembler::cpi@7 (line 95)
                      ; - jdk.internal.reflect.AccessorGenerator::emitBoxingContantPoolEntries@75 (line 268)
  0x000001e99a3b5b90: b2fe e942 | f1ff ff48 

  0x000001e99a3b5b98: ;   {runtime_call fast_new_instance Runtime1 stub}
  0x000001e99a3b5b98: 8bd2 e8e1 

  0x000001e99a3b5b9c: ; ImmutableOopMap {[120]=Oop }
                      ;*new {reexecute=0 rethrow=0 return_oop=0}
                      ; - jdk.internal.reflect.ClassFileAssembler::cpi@7 (line 95)
                      ; - jdk.internal.reflect.AccessorGenerator::emitBoxingContantPoolEntries@48 (line 266)
  0x000001e99a3b5b9c: b1b2 fee9 | b5f1 ffff 

  0x000001e99a3b5ba4: ;   {runtime_call fast_new_instance Runtime1 stub}
  0x000001e99a3b5ba4: 488b d2e8 

  0x000001e99a3b5ba8: ; ImmutableOopMap {[120]=Oop [128]=Oop }
                      ;*new {reexecute=0 rethrow=0 return_oop=0}
                      ; - jdk.internal.reflect.ClassFileAssembler::cpi@7 (line 95)
                      ; - jdk.internal.reflect.AccessorGenerator::emitBoxingContantPoolEntries@37 (line 265)
  0x000001e99a3b5ba8: d4b1 b2fe | e928 f2ff | ff48 8bd2 

  0x000001e99a3b5bb4: ;   {runtime_call fast_new_instance Runtime1 stub}
  0x000001e99a3b5bb4: e8c7 b1b2 

  0x000001e99a3b5bb8: ; ImmutableOopMap {[120]=Oop }
                      ;*new {reexecute=0 rethrow=0 return_oop=0}
                      ; - jdk.internal.reflect.ClassFileAssembler::cpi@7 (line 95)
                      ; - jdk.internal.reflect.AccessorGenerator::emitBoxingContantPoolEntries@14 (line 261)
  0x000001e99a3b5bb8: fee9 9bf2 | ffff 9090 | 498b 87d8 | 0300 0049 | c787 d803 | 0000 0000 | 0000 49c7 | 87e0 0300 
  0x000001e99a3b5bd8: 0000 0000 | 0048 81c4 | b005 0000 

  0x000001e99a3b5be4: ;   {runtime_call unwind_exception Runtime1 stub}
  0x000001e99a3b5be4: 5de9 9699 | b2fe f4f4 | f4f4 f4f4 | f4f4 f4f4 | f4f4 f4f4 | f4f4 f4f4 | f4f4 f4f4 
[Stub Code]
  0x000001e99a3b5c00: ;   {no_reloc}
  0x000001e99a3b5c00: 0f1f 4400 

  0x000001e99a3b5c04: ;   {static_stub}
  0x000001e99a3b5c04: 0048 bb00 | 0000 0000 

  0x000001e99a3b5c0c: ;   {runtime_call}
  0x000001e99a3b5c0c: 0000 00e9 | fbff ffff 

  0x000001e99a3b5c14: ;   {static_stub}
  0x000001e99a3b5c14: 9048 bb00 | 0000 0000 

  0x000001e99a3b5c1c: ;   {runtime_call}
  0x000001e99a3b5c1c: 0000 00e9 | fbff ffff 

  0x000001e99a3b5c24: ;   {static_stub}
  0x000001e99a3b5c24: 9048 bb00 | 0000 0000 

  0x000001e99a3b5c2c: ;   {runtime_call}
  0x000001e99a3b5c2c: 0000 00e9 | fbff ffff 

  0x000001e99a3b5c34: ;   {static_stub}
  0x000001e99a3b5c34: 9048 bb00 | 0000 0000 

  0x000001e99a3b5c3c: ;   {runtime_call}
  0x000001e99a3b5c3c: 0000 00e9 | fbff ffff 

  0x000001e99a3b5c44: ;   {static_stub}
  0x000001e99a3b5c44: 9048 bb00 | 0000 0000 

  0x000001e99a3b5c4c: ;   {runtime_call}
  0x000001e99a3b5c4c: 0000 00e9 | fbff ffff 

  0x000001e99a3b5c54: ;   {static_stub}
  0x000001e99a3b5c54: 9048 bb00 | 0000 0000 

  0x000001e99a3b5c5c: ;   {runtime_call}
  0x000001e99a3b5c5c: 0000 00e9 | fbff ffff 

  0x000001e99a3b5c64: ;   {static_stub}
  0x000001e99a3b5c64: 9048 bb00 | 0000 0000 

  0x000001e99a3b5c6c: ;   {runtime_call}
  0x000001e99a3b5c6c: 0000 00e9 | fbff ffff 

  0x000001e99a3b5c74: ;   {static_stub}
  0x000001e99a3b5c74: 9048 bb00 | 0000 0000 

  0x000001e99a3b5c7c: ;   {runtime_call}
  0x000001e99a3b5c7c: 0000 00e9 | fbff ffff 

  0x000001e99a3b5c84: ;   {static_stub}
  0x000001e99a3b5c84: 9048 bb00 | 0000 0000 

  0x000001e99a3b5c8c: ;   {runtime_call}
  0x000001e99a3b5c8c: 0000 00e9 | fbff ffff 

  0x000001e99a3b5c94: ;   {static_stub}
  0x000001e99a3b5c94: 9048 bb00 | 0000 0000 

  0x000001e99a3b5c9c: ;   {runtime_call}
  0x000001e99a3b5c9c: 0000 00e9 | fbff ffff 

  0x000001e99a3b5ca4: ;   {static_stub}
  0x000001e99a3b5ca4: 9048 bb00 | 0000 0000 

  0x000001e99a3b5cac: ;   {runtime_call}
  0x000001e99a3b5cac: 0000 00e9 | fbff ffff 

  0x000001e99a3b5cb4: ;   {static_stub}
  0x000001e99a3b5cb4: 9048 bb00 | 0000 0000 

  0x000001e99a3b5cbc: ;   {runtime_call}
  0x000001e99a3b5cbc: 0000 00e9 | fbff ffff 

  0x000001e99a3b5cc4: ;   {static_stub}
  0x000001e99a3b5cc4: 9048 bb00 | 0000 0000 

  0x000001e99a3b5ccc: ;   {runtime_call}
  0x000001e99a3b5ccc: 0000 00e9 | fbff ffff 

  0x000001e99a3b5cd4: ;   {static_stub}
  0x000001e99a3b5cd4: 9048 bb00 | 0000 0000 

  0x000001e99a3b5cdc: ;   {runtime_call}
  0x000001e99a3b5cdc: 0000 00e9 | fbff ffff 

  0x000001e99a3b5ce4: ;   {static_stub}
  0x000001e99a3b5ce4: 9048 bb00 | 0000 0000 

  0x000001e99a3b5cec: ;   {runtime_call}
  0x000001e99a3b5cec: 0000 00e9 | fbff ffff 

  0x000001e99a3b5cf4: ;   {static_stub}
  0x000001e99a3b5cf4: 9048 bb00 | 0000 0000 

  0x000001e99a3b5cfc: ;   {runtime_call}
  0x000001e99a3b5cfc: 0000 00e9 | fbff ffff 

  0x000001e99a3b5d04: ;   {static_stub}
  0x000001e99a3b5d04: 9048 bb00 | 0000 0000 

  0x000001e99a3b5d0c: ;   {runtime_call}
  0x000001e99a3b5d0c: 0000 00e9 | fbff ffff 

  0x000001e99a3b5d14: ;   {static_stub}
  0x000001e99a3b5d14: 9048 bb00 | 0000 0000 

  0x000001e99a3b5d1c: ;   {runtime_call}
  0x000001e99a3b5d1c: 0000 00e9 | fbff ffff 

  0x000001e99a3b5d24: ;   {static_stub}
  0x000001e99a3b5d24: 9048 bb00 | 0000 0000 

  0x000001e99a3b5d2c: ;   {runtime_call}
  0x000001e99a3b5d2c: 0000 00e9 | fbff ffff 

  0x000001e99a3b5d34: ;   {static_stub}
  0x000001e99a3b5d34: 9048 bb00 | 0000 0000 

  0x000001e99a3b5d3c: ;   {runtime_call}
  0x000001e99a3b5d3c: 0000 00e9 | fbff ffff 

  0x000001e99a3b5d44: ;   {static_stub}
  0x000001e99a3b5d44: 9048 bb00 | 0000 0000 

  0x000001e99a3b5d4c: ;   {runtime_call}
  0x000001e99a3b5d4c: 0000 00e9 | fbff ffff 

  0x000001e99a3b5d54: ;   {static_stub}
  0x000001e99a3b5d54: 9048 bb00 | 0000 0000 

  0x000001e99a3b5d5c: ;   {runtime_call}
  0x000001e99a3b5d5c: 0000 00e9 | fbff ffff 

  0x000001e99a3b5d64: ;   {static_stub}
  0x000001e99a3b5d64: 9048 bb00 | 0000 0000 

  0x000001e99a3b5d6c: ;   {runtime_call}
  0x000001e99a3b5d6c: 0000 00e9 | fbff ffff 

  0x000001e99a3b5d74: ;   {static_stub}
  0x000001e99a3b5d74: 9048 bb00 | 0000 0000 

  0x000001e99a3b5d7c: ;   {runtime_call}
  0x000001e99a3b5d7c: 0000 00e9 | fbff ffff 

  0x000001e99a3b5d84: ;   {static_stub}
  0x000001e99a3b5d84: 9048 bb00 | 0000 0000 

  0x000001e99a3b5d8c: ;   {runtime_call}
  0x000001e99a3b5d8c: 0000 00e9 | fbff ffff 

  0x000001e99a3b5d94: ;   {static_stub}
  0x000001e99a3b5d94: 9048 bb00 | 0000 0000 

  0x000001e99a3b5d9c: ;   {runtime_call}
  0x000001e99a3b5d9c: 0000 00e9 | fbff ffff 

  0x000001e99a3b5da4: ;   {static_stub}
  0x000001e99a3b5da4: 9048 bb00 | 0000 0000 

  0x000001e99a3b5dac: ;   {runtime_call}
  0x000001e99a3b5dac: 0000 00e9 | fbff ffff 

  0x000001e99a3b5db4: ;   {static_stub}
  0x000001e99a3b5db4: 9048 bb00 | 0000 0000 

  0x000001e99a3b5dbc: ;   {runtime_call}
  0x000001e99a3b5dbc: 0000 00e9 | fbff ffff 

  0x000001e99a3b5dc4: ;   {static_stub}
  0x000001e99a3b5dc4: 9048 bb00 | 0000 0000 

  0x000001e99a3b5dcc: ;   {runtime_call}
  0x000001e99a3b5dcc: 0000 00e9 | fbff ffff 

  0x000001e99a3b5dd4: ;   {static_stub}
  0x000001e99a3b5dd4: 9048 bb00 | 0000 0000 

  0x000001e99a3b5ddc: ;   {runtime_call}
  0x000001e99a3b5ddc: 0000 00e9 | fbff ffff 

  0x000001e99a3b5de4: ;   {static_stub}
  0x000001e99a3b5de4: 9048 bb00 | 0000 0000 

  0x000001e99a3b5dec: ;   {runtime_call}
  0x000001e99a3b5dec: 0000 00e9 | fbff ffff 

  0x000001e99a3b5df4: ;   {static_stub}
  0x000001e99a3b5df4: 9048 bb00 | 0000 0000 

  0x000001e99a3b5dfc: ;   {runtime_call}
  0x000001e99a3b5dfc: 0000 00e9 | fbff ffff 

  0x000001e99a3b5e04: ;   {static_stub}
  0x000001e99a3b5e04: 9048 bb00 | 0000 0000 

  0x000001e99a3b5e0c: ;   {runtime_call}
  0x000001e99a3b5e0c: 0000 00e9 | fbff ffff 

  0x000001e99a3b5e14: ;   {static_stub}
  0x000001e99a3b5e14: 9048 bb00 | 0000 0000 

  0x000001e99a3b5e1c: ;   {runtime_call}
  0x000001e99a3b5e1c: 0000 00e9 | fbff ffff 

  0x000001e99a3b5e24: ;   {static_stub}
  0x000001e99a3b5e24: 9048 bb00 | 0000 0000 

  0x000001e99a3b5e2c: ;   {runtime_call}
  0x000001e99a3b5e2c: 0000 00e9 | fbff ffff 

  0x000001e99a3b5e34: ;   {static_stub}
  0x000001e99a3b5e34: 9048 bb00 | 0000 0000 

  0x000001e99a3b5e3c: ;   {runtime_call}
  0x000001e99a3b5e3c: 0000 00e9 | fbff ffff 

  0x000001e99a3b5e44: ;   {static_stub}
  0x000001e99a3b5e44: 9048 bb00 | 0000 0000 

  0x000001e99a3b5e4c: ;   {runtime_call}
  0x000001e99a3b5e4c: 0000 00e9 | fbff ffff 

  0x000001e99a3b5e54: ;   {static_stub}
  0x000001e99a3b5e54: 9048 bb00 | 0000 0000 

  0x000001e99a3b5e5c: ;   {runtime_call}
  0x000001e99a3b5e5c: 0000 00e9 | fbff ffff 

  0x000001e99a3b5e64: ;   {static_stub}
  0x000001e99a3b5e64: 9048 bb00 | 0000 0000 

  0x000001e99a3b5e6c: ;   {runtime_call}
  0x000001e99a3b5e6c: 0000 00e9 | fbff ffff 

  0x000001e99a3b5e74: ;   {static_stub}
  0x000001e99a3b5e74: 9048 bb00 | 0000 0000 

  0x000001e99a3b5e7c: ;   {runtime_call}
  0x000001e99a3b5e7c: 0000 00e9 | fbff ffff 

  0x000001e99a3b5e84: ;   {static_stub}
  0x000001e99a3b5e84: 9048 bb00 | 0000 0000 

  0x000001e99a3b5e8c: ;   {runtime_call}
  0x000001e99a3b5e8c: 0000 00e9 | fbff ffff 

  0x000001e99a3b5e94: ;   {static_stub}
  0x000001e99a3b5e94: 9048 bb00 | 0000 0000 

  0x000001e99a3b5e9c: ;   {runtime_call}
  0x000001e99a3b5e9c: 0000 00e9 | fbff ffff 

  0x000001e99a3b5ea4: ;   {static_stub}
  0x000001e99a3b5ea4: 9048 bb00 | 0000 0000 

  0x000001e99a3b5eac: ;   {runtime_call}
  0x000001e99a3b5eac: 0000 00e9 | fbff ffff 

  0x000001e99a3b5eb4: ;   {static_stub}
  0x000001e99a3b5eb4: 9048 bb00 | 0000 0000 

  0x000001e99a3b5ebc: ;   {runtime_call}
  0x000001e99a3b5ebc: 0000 00e9 | fbff ffff 

  0x000001e99a3b5ec4: ;   {static_stub}
  0x000001e99a3b5ec4: 9048 bb00 | 0000 0000 

  0x000001e99a3b5ecc: ;   {runtime_call}
  0x000001e99a3b5ecc: 0000 00e9 | fbff ffff 

  0x000001e99a3b5ed4: ;   {static_stub}
  0x000001e99a3b5ed4: 9048 bb00 | 0000 0000 

  0x000001e99a3b5edc: ;   {runtime_call}
  0x000001e99a3b5edc: 0000 00e9 | fbff ffff 

  0x000001e99a3b5ee4: ;   {static_stub}
  0x000001e99a3b5ee4: 9048 bb00 | 0000 0000 

  0x000001e99a3b5eec: ;   {runtime_call}
  0x000001e99a3b5eec: 0000 00e9 | fbff ffff 

  0x000001e99a3b5ef4: ;   {static_stub}
  0x000001e99a3b5ef4: 9048 bb00 | 0000 0000 

  0x000001e99a3b5efc: ;   {runtime_call}
  0x000001e99a3b5efc: 0000 00e9 | fbff ffff 

  0x000001e99a3b5f04: ;   {static_stub}
  0x000001e99a3b5f04: 9048 bb00 | 0000 0000 

  0x000001e99a3b5f0c: ;   {runtime_call}
  0x000001e99a3b5f0c: 0000 00e9 | fbff ffff 

  0x000001e99a3b5f14: ;   {static_stub}
  0x000001e99a3b5f14: 9048 bb00 | 0000 0000 

  0x000001e99a3b5f1c: ;   {runtime_call}
  0x000001e99a3b5f1c: 0000 00e9 | fbff ffff 

  0x000001e99a3b5f24: ;   {static_stub}
  0x000001e99a3b5f24: 9048 bb00 | 0000 0000 

  0x000001e99a3b5f2c: ;   {runtime_call}
  0x000001e99a3b5f2c: 0000 00e9 | fbff ffff 

  0x000001e99a3b5f34: ;   {static_stub}
  0x000001e99a3b5f34: 9048 bb00 | 0000 0000 

  0x000001e99a3b5f3c: ;   {runtime_call}
  0x000001e99a3b5f3c: 0000 00e9 | fbff ffff 

  0x000001e99a3b5f44: ;   {static_stub}
  0x000001e99a3b5f44: 9048 bb00 | 0000 0000 

  0x000001e99a3b5f4c: ;   {runtime_call}
  0x000001e99a3b5f4c: 0000 00e9 | fbff ffff 

  0x000001e99a3b5f54: ;   {static_stub}
  0x000001e99a3b5f54: 9048 bb00 | 0000 0000 

  0x000001e99a3b5f5c: ;   {runtime_call}
  0x000001e99a3b5f5c: 0000 00e9 | fbff ffff 

  0x000001e99a3b5f64: ;   {static_stub}
  0x000001e99a3b5f64: 9048 bb00 | 0000 0000 

  0x000001e99a3b5f6c: ;   {runtime_call}
  0x000001e99a3b5f6c: 0000 00e9 | fbff ffff 

  0x000001e99a3b5f74: ;   {static_stub}
  0x000001e99a3b5f74: 9048 bb00 | 0000 0000 

  0x000001e99a3b5f7c: ;   {runtime_call}
  0x000001e99a3b5f7c: 0000 00e9 | fbff ffff 

  0x000001e99a3b5f84: ;   {static_stub}
  0x000001e99a3b5f84: 9048 bb00 | 0000 0000 

  0x000001e99a3b5f8c: ;   {runtime_call}
  0x000001e99a3b5f8c: 0000 00e9 | fbff ffff 

  0x000001e99a3b5f94: ;   {static_stub}
  0x000001e99a3b5f94: 9048 bb00 | 0000 0000 

  0x000001e99a3b5f9c: ;   {runtime_call}
  0x000001e99a3b5f9c: 0000 00e9 | fbff ffff 

  0x000001e99a3b5fa4: ;   {static_stub}
  0x000001e99a3b5fa4: 9048 bb00 | 0000 0000 

  0x000001e99a3b5fac: ;   {runtime_call}
  0x000001e99a3b5fac: 0000 00e9 | fbff ffff 

  0x000001e99a3b5fb4: ;   {static_stub}
  0x000001e99a3b5fb4: 9048 bb00 | 0000 0000 

  0x000001e99a3b5fbc: ;   {runtime_call}
  0x000001e99a3b5fbc: 0000 00e9 | fbff ffff 

  0x000001e99a3b5fc4: ;   {static_stub}
  0x000001e99a3b5fc4: 9048 bb00 | 0000 0000 

  0x000001e99a3b5fcc: ;   {runtime_call}
  0x000001e99a3b5fcc: 0000 00e9 | fbff ffff 

  0x000001e99a3b5fd4: ;   {static_stub}
  0x000001e99a3b5fd4: 9048 bb00 | 0000 0000 

  0x000001e99a3b5fdc: ;   {runtime_call}
  0x000001e99a3b5fdc: 0000 00e9 | fbff ffff 

  0x000001e99a3b5fe4: ;   {static_stub}
  0x000001e99a3b5fe4: 9048 bb00 | 0000 0000 

  0x000001e99a3b5fec: ;   {runtime_call}
  0x000001e99a3b5fec: 0000 00e9 | fbff ffff 

  0x000001e99a3b5ff4: ;   {static_stub}
  0x000001e99a3b5ff4: 9048 bb00 | 0000 0000 

  0x000001e99a3b5ffc: ;   {runtime_call}
  0x000001e99a3b5ffc: 0000 00e9 | fbff ffff 

  0x000001e99a3b6004: ;   {static_stub}
  0x000001e99a3b6004: 9048 bb00 | 0000 0000 

  0x000001e99a3b600c: ;   {runtime_call}
  0x000001e99a3b600c: 0000 00e9 | fbff ffff 

  0x000001e99a3b6014: ;   {static_stub}
  0x000001e99a3b6014: 9048 bb00 | 0000 0000 

  0x000001e99a3b601c: ;   {runtime_call}
  0x000001e99a3b601c: 0000 00e9 | fbff ffff 

  0x000001e99a3b6024: ;   {static_stub}
  0x000001e99a3b6024: 9048 bb00 | 0000 0000 

  0x000001e99a3b602c: ;   {runtime_call}
  0x000001e99a3b602c: 0000 00e9 | fbff ffff 

  0x000001e99a3b6034: ;   {static_stub}
  0x000001e99a3b6034: 9048 bb00 | 0000 0000 

  0x000001e99a3b603c: ;   {runtime_call}
  0x000001e99a3b603c: 0000 00e9 | fbff ffff 

  0x000001e99a3b6044: ;   {static_stub}
  0x000001e99a3b6044: 9048 bb00 | 0000 0000 

  0x000001e99a3b604c: ;   {runtime_call}
  0x000001e99a3b604c: 0000 00e9 | fbff ffff 

  0x000001e99a3b6054: ;   {static_stub}
  0x000001e99a3b6054: 9048 bb00 | 0000 0000 

  0x000001e99a3b605c: ;   {runtime_call}
  0x000001e99a3b605c: 0000 00e9 | fbff ffff 

  0x000001e99a3b6064: ;   {static_stub}
  0x000001e99a3b6064: 9048 bb00 | 0000 0000 

  0x000001e99a3b606c: ;   {runtime_call}
  0x000001e99a3b606c: 0000 00e9 | fbff ffff 

  0x000001e99a3b6074: ;   {static_stub}
  0x000001e99a3b6074: 9048 bb00 | 0000 0000 

  0x000001e99a3b607c: ;   {runtime_call}
  0x000001e99a3b607c: 0000 00e9 | fbff ffff 

  0x000001e99a3b6084: ;   {static_stub}
  0x000001e99a3b6084: 9048 bb00 | 0000 0000 

  0x000001e99a3b608c: ;   {runtime_call}
  0x000001e99a3b608c: 0000 00e9 | fbff ffff 

  0x000001e99a3b6094: ;   {static_stub}
  0x000001e99a3b6094: 9048 bb00 | 0000 0000 

  0x000001e99a3b609c: ;   {runtime_call}
  0x000001e99a3b609c: 0000 00e9 | fbff ffff 

  0x000001e99a3b60a4: ;   {static_stub}
  0x000001e99a3b60a4: 9048 bb00 | 0000 0000 

  0x000001e99a3b60ac: ;   {runtime_call}
  0x000001e99a3b60ac: 0000 00e9 | fbff ffff 

  0x000001e99a3b60b4: ;   {static_stub}
  0x000001e99a3b60b4: 9048 bb00 | 0000 0000 

  0x000001e99a3b60bc: ;   {runtime_call}
  0x000001e99a3b60bc: 0000 00e9 | fbff ffff 

  0x000001e99a3b60c4: ;   {static_stub}
  0x000001e99a3b60c4: 9048 bb00 | 0000 0000 

  0x000001e99a3b60cc: ;   {runtime_call}
  0x000001e99a3b60cc: 0000 00e9 | fbff ffff 

  0x000001e99a3b60d4: ;   {static_stub}
  0x000001e99a3b60d4: 9048 bb00 | 0000 0000 

  0x000001e99a3b60dc: ;   {runtime_call}
  0x000001e99a3b60dc: 0000 00e9 | fbff ffff 

  0x000001e99a3b60e4: ;   {static_stub}
  0x000001e99a3b60e4: 9048 bb00 | 0000 0000 

  0x000001e99a3b60ec: ;   {runtime_call}
  0x000001e99a3b60ec: 0000 00e9 | fbff ffff 

  0x000001e99a3b60f4: ;   {static_stub}
  0x000001e99a3b60f4: 9048 bb00 | 0000 0000 

  0x000001e99a3b60fc: ;   {runtime_call}
  0x000001e99a3b60fc: 0000 00e9 | fbff ffff 

  0x000001e99a3b6104: ;   {static_stub}
  0x000001e99a3b6104: 9048 bb00 | 0000 0000 

  0x000001e99a3b610c: ;   {runtime_call}
  0x000001e99a3b610c: 0000 00e9 | fbff ffff 

  0x000001e99a3b6114: ;   {static_stub}
  0x000001e99a3b6114: 9048 bb00 | 0000 0000 

  0x000001e99a3b611c: ;   {runtime_call}
  0x000001e99a3b611c: 0000 00e9 | fbff ffff 

  0x000001e99a3b6124: ;   {static_stub}
  0x000001e99a3b6124: 9048 bb00 | 0000 0000 

  0x000001e99a3b612c: ;   {runtime_call}
  0x000001e99a3b612c: 0000 00e9 | fbff ffff 

  0x000001e99a3b6134: ;   {static_stub}
  0x000001e99a3b6134: 9048 bb00 | 0000 0000 

  0x000001e99a3b613c: ;   {runtime_call}
  0x000001e99a3b613c: 0000 00e9 | fbff ffff 

  0x000001e99a3b6144: ;   {static_stub}
  0x000001e99a3b6144: 9048 bb00 | 0000 0000 

  0x000001e99a3b614c: ;   {runtime_call}
  0x000001e99a3b614c: 0000 00e9 | fbff ffff 

  0x000001e99a3b6154: ;   {static_stub}
  0x000001e99a3b6154: 9048 bb00 | 0000 0000 

  0x000001e99a3b615c: ;   {runtime_call}
  0x000001e99a3b615c: 0000 00e9 | fbff ffff 

  0x000001e99a3b6164: ;   {static_stub}
  0x000001e99a3b6164: 9048 bb00 | 0000 0000 

  0x000001e99a3b616c: ;   {runtime_call}
  0x000001e99a3b616c: 0000 00e9 | fbff ffff 

  0x000001e99a3b6174: ;   {static_stub}
  0x000001e99a3b6174: 9048 bb00 | 0000 0000 

  0x000001e99a3b617c: ;   {runtime_call}
  0x000001e99a3b617c: 0000 00e9 | fbff ffff 

  0x000001e99a3b6184: ;   {static_stub}
  0x000001e99a3b6184: 9048 bb00 | 0000 0000 

  0x000001e99a3b618c: ;   {runtime_call}
  0x000001e99a3b618c: 0000 00e9 | fbff ffff 

  0x000001e99a3b6194: ;   {static_stub}
  0x000001e99a3b6194: 9048 bb00 | 0000 0000 

  0x000001e99a3b619c: ;   {runtime_call}
  0x000001e99a3b619c: 0000 00e9 | fbff ffff 

  0x000001e99a3b61a4: ;   {static_stub}
  0x000001e99a3b61a4: 9048 bb00 | 0000 0000 

  0x000001e99a3b61ac: ;   {runtime_call}
  0x000001e99a3b61ac: 0000 00e9 | fbff ffff 

  0x000001e99a3b61b4: ;   {static_stub}
  0x000001e99a3b61b4: 9048 bb00 | 0000 0000 

  0x000001e99a3b61bc: ;   {runtime_call}
  0x000001e99a3b61bc: 0000 00e9 | fbff ffff 

  0x000001e99a3b61c4: ;   {static_stub}
  0x000001e99a3b61c4: 9048 bb00 | 0000 0000 

  0x000001e99a3b61cc: ;   {runtime_call}
  0x000001e99a3b61cc: 0000 00e9 | fbff ffff 

  0x000001e99a3b61d4: ;   {static_stub}
  0x000001e99a3b61d4: 9048 bb00 | 0000 0000 

  0x000001e99a3b61dc: ;   {runtime_call}
  0x000001e99a3b61dc: 0000 00e9 | fbff ffff 

  0x000001e99a3b61e4: ;   {static_stub}
  0x000001e99a3b61e4: 9048 bb00 | 0000 0000 

  0x000001e99a3b61ec: ;   {runtime_call}
  0x000001e99a3b61ec: 0000 00e9 | fbff ffff 

  0x000001e99a3b61f4: ;   {static_stub}
  0x000001e99a3b61f4: 9048 bb00 | 0000 0000 

  0x000001e99a3b61fc: ;   {runtime_call}
  0x000001e99a3b61fc: 0000 00e9 | fbff ffff 

  0x000001e99a3b6204: ;   {static_stub}
  0x000001e99a3b6204: 9048 bb00 | 0000 0000 

  0x000001e99a3b620c: ;   {runtime_call}
  0x000001e99a3b620c: 0000 00e9 | fbff ffff 

  0x000001e99a3b6214: ;   {static_stub}
  0x000001e99a3b6214: 9048 bb00 | 0000 0000 

  0x000001e99a3b621c: ;   {runtime_call}
  0x000001e99a3b621c: 0000 00e9 | fbff ffff 

  0x000001e99a3b6224: ;   {static_stub}
  0x000001e99a3b6224: 9048 bb00 | 0000 0000 

  0x000001e99a3b622c: ;   {runtime_call}
  0x000001e99a3b622c: 0000 00e9 | fbff ffff 

  0x000001e99a3b6234: ;   {static_stub}
  0x000001e99a3b6234: 9048 bb00 | 0000 0000 

  0x000001e99a3b623c: ;   {runtime_call}
  0x000001e99a3b623c: 0000 00e9 | fbff ffff 

  0x000001e99a3b6244: ;   {static_stub}
  0x000001e99a3b6244: 9048 bb00 | 0000 0000 

  0x000001e99a3b624c: ;   {runtime_call}
  0x000001e99a3b624c: 0000 00e9 | fbff ffff 

  0x000001e99a3b6254: ;   {static_stub}
  0x000001e99a3b6254: 9048 bb00 | 0000 0000 

  0x000001e99a3b625c: ;   {runtime_call}
  0x000001e99a3b625c: 0000 00e9 | fbff ffff 

  0x000001e99a3b6264: ;   {static_stub}
  0x000001e99a3b6264: 9048 bb00 | 0000 0000 

  0x000001e99a3b626c: ;   {runtime_call}
  0x000001e99a3b626c: 0000 00e9 | fbff ffff 

  0x000001e99a3b6274: ;   {static_stub}
  0x000001e99a3b6274: 9048 bb00 | 0000 0000 

  0x000001e99a3b627c: ;   {runtime_call}
  0x000001e99a3b627c: 0000 00e9 | fbff ffff 

  0x000001e99a3b6284: ;   {static_stub}
  0x000001e99a3b6284: 9048 bb00 | 0000 0000 

  0x000001e99a3b628c: ;   {runtime_call}
  0x000001e99a3b628c: 0000 00e9 | fbff ffff 

  0x000001e99a3b6294: ;   {static_stub}
  0x000001e99a3b6294: 9048 bb00 | 0000 0000 

  0x000001e99a3b629c: ;   {runtime_call}
  0x000001e99a3b629c: 0000 00e9 | fbff ffff 

  0x000001e99a3b62a4: ;   {static_stub}
  0x000001e99a3b62a4: 9048 bb00 | 0000 0000 

  0x000001e99a3b62ac: ;   {runtime_call}
  0x000001e99a3b62ac: 0000 00e9 | fbff ffff 

  0x000001e99a3b62b4: ;   {static_stub}
  0x000001e99a3b62b4: 9048 bb00 | 0000 0000 

  0x000001e99a3b62bc: ;   {runtime_call}
  0x000001e99a3b62bc: 0000 00e9 | fbff ffff 

  0x000001e99a3b62c4: ;   {static_stub}
  0x000001e99a3b62c4: 9048 bb00 | 0000 0000 

  0x000001e99a3b62cc: ;   {runtime_call}
  0x000001e99a3b62cc: 0000 00e9 | fbff ffff 

  0x000001e99a3b62d4: ;   {static_stub}
  0x000001e99a3b62d4: 9048 bb00 | 0000 0000 

  0x000001e99a3b62dc: ;   {runtime_call}
  0x000001e99a3b62dc: 0000 00e9 | fbff ffff 

  0x000001e99a3b62e4: ;   {static_stub}
  0x000001e99a3b62e4: 9048 bb00 | 0000 0000 

  0x000001e99a3b62ec: ;   {runtime_call}
  0x000001e99a3b62ec: 0000 00e9 | fbff ffff 

  0x000001e99a3b62f4: ;   {static_stub}
  0x000001e99a3b62f4: 9048 bb00 | 0000 0000 

  0x000001e99a3b62fc: ;   {runtime_call}
  0x000001e99a3b62fc: 0000 00e9 | fbff ffff 

  0x000001e99a3b6304: ;   {static_stub}
  0x000001e99a3b6304: 9048 bb00 | 0000 0000 

  0x000001e99a3b630c: ;   {runtime_call}
  0x000001e99a3b630c: 0000 00e9 | fbff ffff 

  0x000001e99a3b6314: ;   {static_stub}
  0x000001e99a3b6314: 9048 bb00 | 0000 0000 

  0x000001e99a3b631c: ;   {runtime_call}
  0x000001e99a3b631c: 0000 00e9 | fbff ffff 

  0x000001e99a3b6324: ;   {static_stub}
  0x000001e99a3b6324: 9048 bb00 | 0000 0000 

  0x000001e99a3b632c: ;   {runtime_call}
  0x000001e99a3b632c: 0000 00e9 | fbff ffff 

  0x000001e99a3b6334: ;   {static_stub}
  0x000001e99a3b6334: 9048 bb00 | 0000 0000 

  0x000001e99a3b633c: ;   {runtime_call}
  0x000001e99a3b633c: 0000 00e9 | fbff ffff 

  0x000001e99a3b6344: ;   {static_stub}
  0x000001e99a3b6344: 9048 bb00 | 0000 0000 

  0x000001e99a3b634c: ;   {runtime_call}
  0x000001e99a3b634c: 0000 00e9 | fbff ffff 

  0x000001e99a3b6354: ;   {static_stub}
  0x000001e99a3b6354: 9048 bb00 | 0000 0000 

  0x000001e99a3b635c: ;   {runtime_call}
  0x000001e99a3b635c: 0000 00e9 | fbff ffff 

  0x000001e99a3b6364: ;   {static_stub}
  0x000001e99a3b6364: 9048 bb00 | 0000 0000 

  0x000001e99a3b636c: ;   {runtime_call}
  0x000001e99a3b636c: 0000 00e9 | fbff ffff 

  0x000001e99a3b6374: ;   {static_stub}
  0x000001e99a3b6374: 9048 bb00 | 0000 0000 

  0x000001e99a3b637c: ;   {runtime_call}
  0x000001e99a3b637c: 0000 00e9 | fbff ffff 

  0x000001e99a3b6384: ;   {static_stub}
  0x000001e99a3b6384: 9048 bb00 | 0000 0000 

  0x000001e99a3b638c: ;   {runtime_call}
  0x000001e99a3b638c: 0000 00e9 | fbff ffff 

  0x000001e99a3b6394: ;   {static_stub}
  0x000001e99a3b6394: 9048 bb00 | 0000 0000 

  0x000001e99a3b639c: ;   {runtime_call}
  0x000001e99a3b639c: 0000 00e9 | fbff ffff 

  0x000001e99a3b63a4: ;   {static_stub}
  0x000001e99a3b63a4: 9048 bb00 | 0000 0000 

  0x000001e99a3b63ac: ;   {runtime_call}
  0x000001e99a3b63ac: 0000 00e9 | fbff ffff 

  0x000001e99a3b63b4: ;   {static_stub}
  0x000001e99a3b63b4: 9048 bb00 | 0000 0000 

  0x000001e99a3b63bc: ;   {runtime_call}
  0x000001e99a3b63bc: 0000 00e9 | fbff ffff 

  0x000001e99a3b63c4: ;   {static_stub}
  0x000001e99a3b63c4: 9048 bb00 | 0000 0000 

  0x000001e99a3b63cc: ;   {runtime_call}
  0x000001e99a3b63cc: 0000 00e9 | fbff ffff 

  0x000001e99a3b63d4: ;   {static_stub}
  0x000001e99a3b63d4: 9048 bb00 | 0000 0000 

  0x000001e99a3b63dc: ;   {runtime_call}
  0x000001e99a3b63dc: 0000 00e9 | fbff ffff 

  0x000001e99a3b63e4: ;   {static_stub}
  0x000001e99a3b63e4: 9048 bb00 | 0000 0000 

  0x000001e99a3b63ec: ;   {runtime_call}
  0x000001e99a3b63ec: 0000 00e9 | fbff ffff 

  0x000001e99a3b63f4: ;   {static_stub}
  0x000001e99a3b63f4: 9048 bb00 | 0000 0000 

  0x000001e99a3b63fc: ;   {runtime_call}
  0x000001e99a3b63fc: 0000 00e9 | fbff ffff 

  0x000001e99a3b6404: ;   {static_stub}
  0x000001e99a3b6404: 9048 bb00 | 0000 0000 

  0x000001e99a3b640c: ;   {runtime_call}
  0x000001e99a3b640c: 0000 00e9 | fbff ffff 

  0x000001e99a3b6414: ;   {static_stub}
  0x000001e99a3b6414: 9048 bb00 | 0000 0000 

  0x000001e99a3b641c: ;   {runtime_call}
  0x000001e99a3b641c: 0000 00e9 | fbff ffff 

  0x000001e99a3b6424: ;   {static_stub}
  0x000001e99a3b6424: 9048 bb00 | 0000 0000 

  0x000001e99a3b642c: ;   {runtime_call}
  0x000001e99a3b642c: 0000 00e9 | fbff ffff 

  0x000001e99a3b6434: ;   {static_stub}
  0x000001e99a3b6434: 9048 bb00 | 0000 0000 

  0x000001e99a3b643c: ;   {runtime_call}
  0x000001e99a3b643c: 0000 00e9 | fbff ffff 

  0x000001e99a3b6444: ;   {static_stub}
  0x000001e99a3b6444: 9048 bb00 | 0000 0000 

  0x000001e99a3b644c: ;   {runtime_call}
  0x000001e99a3b644c: 0000 00e9 | fbff ffff 

  0x000001e99a3b6454: ;   {static_stub}
  0x000001e99a3b6454: 9048 bb00 | 0000 0000 

  0x000001e99a3b645c: ;   {runtime_call}
  0x000001e99a3b645c: 0000 00e9 | fbff ffff 

  0x000001e99a3b6464: ;   {static_stub}
  0x000001e99a3b6464: 9048 bb00 | 0000 0000 

  0x000001e99a3b646c: ;   {runtime_call}
  0x000001e99a3b646c: 0000 00e9 | fbff ffff 

  0x000001e99a3b6474: ;   {static_stub}
  0x000001e99a3b6474: 9048 bb00 | 0000 0000 

  0x000001e99a3b647c: ;   {runtime_call}
  0x000001e99a3b647c: 0000 00e9 | fbff ffff 

  0x000001e99a3b6484: ;   {static_stub}
  0x000001e99a3b6484: 9048 bb00 | 0000 0000 

  0x000001e99a3b648c: ;   {runtime_call}
  0x000001e99a3b648c: 0000 00e9 | fbff ffff 

  0x000001e99a3b6494: ;   {static_stub}
  0x000001e99a3b6494: 9048 bb00 | 0000 0000 

  0x000001e99a3b649c: ;   {runtime_call}
  0x000001e99a3b649c: 0000 00e9 | fbff ffff 

  0x000001e99a3b64a4: ;   {static_stub}
  0x000001e99a3b64a4: 9048 bb00 | 0000 0000 

  0x000001e99a3b64ac: ;   {runtime_call}
  0x000001e99a3b64ac: 0000 00e9 | fbff ffff 

  0x000001e99a3b64b4: ;   {static_stub}
  0x000001e99a3b64b4: 9048 bb00 | 0000 0000 

  0x000001e99a3b64bc: ;   {runtime_call}
  0x000001e99a3b64bc: 0000 00e9 | fbff ffff 

  0x000001e99a3b64c4: ;   {static_stub}
  0x000001e99a3b64c4: 9048 bb00 | 0000 0000 

  0x000001e99a3b64cc: ;   {runtime_call}
  0x000001e99a3b64cc: 0000 00e9 | fbff ffff 

  0x000001e99a3b64d4: ;   {static_stub}
  0x000001e99a3b64d4: 9048 bb00 | 0000 0000 

  0x000001e99a3b64dc: ;   {runtime_call}
  0x000001e99a3b64dc: 0000 00e9 | fbff ffff 

  0x000001e99a3b64e4: ;   {static_stub}
  0x000001e99a3b64e4: 9048 bb00 | 0000 0000 

  0x000001e99a3b64ec: ;   {runtime_call}
  0x000001e99a3b64ec: 0000 00e9 | fbff ffff 

  0x000001e99a3b64f4: ;   {static_stub}
  0x000001e99a3b64f4: 9048 bb00 | 0000 0000 

  0x000001e99a3b64fc: ;   {runtime_call}
  0x000001e99a3b64fc: 0000 00e9 | fbff ffff 

  0x000001e99a3b6504: ;   {static_stub}
  0x000001e99a3b6504: 9048 bb00 | 0000 0000 

  0x000001e99a3b650c: ;   {runtime_call}
  0x000001e99a3b650c: 0000 00e9 | fbff ffff 

  0x000001e99a3b6514: ;   {static_stub}
  0x000001e99a3b6514: 9048 bb00 | 0000 0000 

  0x000001e99a3b651c: ;   {runtime_call}
  0x000001e99a3b651c: 0000 00e9 | fbff ffff 

  0x000001e99a3b6524: ;   {static_stub}
  0x000001e99a3b6524: 9048 bb00 | 0000 0000 

  0x000001e99a3b652c: ;   {runtime_call}
  0x000001e99a3b652c: 0000 00e9 | fbff ffff 

  0x000001e99a3b6534: ;   {static_stub}
  0x000001e99a3b6534: 9048 bb00 | 0000 0000 

  0x000001e99a3b653c: ;   {runtime_call}
  0x000001e99a3b653c: 0000 00e9 | fbff ffff 

  0x000001e99a3b6544: ;   {static_stub}
  0x000001e99a3b6544: 9048 bb00 | 0000 0000 

  0x000001e99a3b654c: ;   {runtime_call}
  0x000001e99a3b654c: 0000 00e9 | fbff ffff 

  0x000001e99a3b6554: ;   {static_stub}
  0x000001e99a3b6554: 9048 bb00 | 0000 0000 

  0x000001e99a3b655c: ;   {runtime_call}
  0x000001e99a3b655c: 0000 00e9 | fbff ffff 

  0x000001e99a3b6564: ;   {static_stub}
  0x000001e99a3b6564: 9048 bb00 | 0000 0000 

  0x000001e99a3b656c: ;   {runtime_call}
  0x000001e99a3b656c: 0000 00e9 | fbff ffff 

  0x000001e99a3b6574: ;   {static_stub}
  0x000001e99a3b6574: 9048 bb00 | 0000 0000 

  0x000001e99a3b657c: ;   {runtime_call}
  0x000001e99a3b657c: 0000 00e9 | fbff ffff 

  0x000001e99a3b6584: ;   {static_stub}
  0x000001e99a3b6584: 9048 bb00 | 0000 0000 

  0x000001e99a3b658c: ;   {runtime_call}
  0x000001e99a3b658c: 0000 00e9 | fbff ffff 

  0x000001e99a3b6594: ;   {static_stub}
  0x000001e99a3b6594: 9048 bb00 | 0000 0000 

  0x000001e99a3b659c: ;   {runtime_call}
  0x000001e99a3b659c: 0000 00e9 | fbff ffff 

  0x000001e99a3b65a4: ;   {static_stub}
  0x000001e99a3b65a4: 9048 bb00 | 0000 0000 

  0x000001e99a3b65ac: ;   {runtime_call}
  0x000001e99a3b65ac: 0000 00e9 | fbff ffff 

  0x000001e99a3b65b4: ;   {static_stub}
  0x000001e99a3b65b4: 9048 bb00 | 0000 0000 

  0x000001e99a3b65bc: ;   {runtime_call}
  0x000001e99a3b65bc: 0000 00e9 | fbff ffff 

  0x000001e99a3b65c4: ;   {static_stub}
  0x000001e99a3b65c4: 9048 bb00 | 0000 0000 

  0x000001e99a3b65cc: ;   {runtime_call}
  0x000001e99a3b65cc: 0000 00e9 | fbff ffff 

  0x000001e99a3b65d4: ;   {static_stub}
  0x000001e99a3b65d4: 9048 bb00 | 0000 0000 

  0x000001e99a3b65dc: ;   {runtime_call}
  0x000001e99a3b65dc: 0000 00e9 | fbff ffff 

  0x000001e99a3b65e4: ;   {static_stub}
  0x000001e99a3b65e4: 9048 bb00 | 0000 0000 

  0x000001e99a3b65ec: ;   {runtime_call}
  0x000001e99a3b65ec: 0000 00e9 | fbff ffff 

  0x000001e99a3b65f4: ;   {static_stub}
  0x000001e99a3b65f4: 9048 bb00 | 0000 0000 

  0x000001e99a3b65fc: ;   {runtime_call}
  0x000001e99a3b65fc: 0000 00e9 | fbff ffff 

  0x000001e99a3b6604: ;   {static_stub}
  0x000001e99a3b6604: 9048 bb00 | 0000 0000 

  0x000001e99a3b660c: ;   {runtime_call}
  0x000001e99a3b660c: 0000 00e9 | fbff ffff 

  0x000001e99a3b6614: ;   {static_stub}
  0x000001e99a3b6614: 9048 bb00 | 0000 0000 

  0x000001e99a3b661c: ;   {runtime_call}
  0x000001e99a3b661c: 0000 00e9 | fbff ffff 

  0x000001e99a3b6624: ;   {static_stub}
  0x000001e99a3b6624: 9048 bb00 | 0000 0000 

  0x000001e99a3b662c: ;   {runtime_call}
  0x000001e99a3b662c: 0000 00e9 | fbff ffff 

  0x000001e99a3b6634: ;   {static_stub}
  0x000001e99a3b6634: 9048 bb00 | 0000 0000 

  0x000001e99a3b663c: ;   {runtime_call}
  0x000001e99a3b663c: 0000 00e9 | fbff ffff 

  0x000001e99a3b6644: ;   {static_stub}
  0x000001e99a3b6644: 9048 bb00 | 0000 0000 

  0x000001e99a3b664c: ;   {runtime_call}
  0x000001e99a3b664c: 0000 00e9 | fbff ffff 

  0x000001e99a3b6654: ;   {static_stub}
  0x000001e99a3b6654: 9048 bb00 | 0000 0000 

  0x000001e99a3b665c: ;   {runtime_call}
  0x000001e99a3b665c: 0000 00e9 | fbff ffff 

  0x000001e99a3b6664: ;   {static_stub}
  0x000001e99a3b6664: 9048 bb00 | 0000 0000 

  0x000001e99a3b666c: ;   {runtime_call}
  0x000001e99a3b666c: 0000 00e9 | fbff ffff 

  0x000001e99a3b6674: ;   {static_stub}
  0x000001e99a3b6674: 9048 bb00 | 0000 0000 

  0x000001e99a3b667c: ;   {runtime_call}
  0x000001e99a3b667c: 0000 00e9 | fbff ffff 

  0x000001e99a3b6684: ;   {static_stub}
  0x000001e99a3b6684: 9048 bb00 | 0000 0000 

  0x000001e99a3b668c: ;   {runtime_call}
  0x000001e99a3b668c: 0000 00e9 | fbff ffff 

  0x000001e99a3b6694: ;   {static_stub}
  0x000001e99a3b6694: 9048 bb00 | 0000 0000 

  0x000001e99a3b669c: ;   {runtime_call}
  0x000001e99a3b669c: 0000 00e9 | fbff ffff 

  0x000001e99a3b66a4: ;   {static_stub}
  0x000001e99a3b66a4: 9048 bb00 | 0000 0000 

  0x000001e99a3b66ac: ;   {runtime_call}
  0x000001e99a3b66ac: 0000 00e9 | fbff ffff 

  0x000001e99a3b66b4: ;   {static_stub}
  0x000001e99a3b66b4: 9048 bb00 | 0000 0000 

  0x000001e99a3b66bc: ;   {runtime_call}
  0x000001e99a3b66bc: 0000 00e9 | fbff ffff 

  0x000001e99a3b66c4: ;   {static_stub}
  0x000001e99a3b66c4: 9048 bb00 | 0000 0000 

  0x000001e99a3b66cc: ;   {runtime_call}
  0x000001e99a3b66cc: 0000 00e9 | fbff ffff 

  0x000001e99a3b66d4: ;   {static_stub}
  0x000001e99a3b66d4: 9048 bb00 | 0000 0000 

  0x000001e99a3b66dc: ;   {runtime_call}
  0x000001e99a3b66dc: 0000 00e9 | fbff ffff 

  0x000001e99a3b66e4: ;   {static_stub}
  0x000001e99a3b66e4: 9048 bb00 | 0000 0000 

  0x000001e99a3b66ec: ;   {runtime_call}
  0x000001e99a3b66ec: 0000 00e9 | fbff ffff 

  0x000001e99a3b66f4: ;   {static_stub}
  0x000001e99a3b66f4: 9048 bb00 | 0000 0000 

  0x000001e99a3b66fc: ;   {runtime_call}
  0x000001e99a3b66fc: 0000 00e9 | fbff ffff 

  0x000001e99a3b6704: ;   {static_stub}
  0x000001e99a3b6704: 9048 bb00 | 0000 0000 

  0x000001e99a3b670c: ;   {runtime_call}
  0x000001e99a3b670c: 0000 00e9 | fbff ffff 

  0x000001e99a3b6714: ;   {static_stub}
  0x000001e99a3b6714: 9048 bb00 | 0000 0000 

  0x000001e99a3b671c: ;   {runtime_call}
  0x000001e99a3b671c: 0000 00e9 | fbff ffff 

  0x000001e99a3b6724: ;   {static_stub}
  0x000001e99a3b6724: 9048 bb00 | 0000 0000 

  0x000001e99a3b672c: ;   {runtime_call}
  0x000001e99a3b672c: 0000 00e9 | fbff ffff 

  0x000001e99a3b6734: ;   {static_stub}
  0x000001e99a3b6734: 9048 bb00 | 0000 0000 

  0x000001e99a3b673c: ;   {runtime_call}
  0x000001e99a3b673c: 0000 00e9 | fbff ffff 

  0x000001e99a3b6744: ;   {static_stub}
  0x000001e99a3b6744: 9048 bb00 | 0000 0000 

  0x000001e99a3b674c: ;   {runtime_call}
  0x000001e99a3b674c: 0000 00e9 | fbff ffff 

  0x000001e99a3b6754: ;   {static_stub}
  0x000001e99a3b6754: 9048 bb00 | 0000 0000 

  0x000001e99a3b675c: ;   {runtime_call}
  0x000001e99a3b675c: 0000 00e9 | fbff ffff 

  0x000001e99a3b6764: ;   {static_stub}
  0x000001e99a3b6764: 9048 bb00 | 0000 0000 

  0x000001e99a3b676c: ;   {runtime_call}
  0x000001e99a3b676c: 0000 00e9 | fbff ffff 

  0x000001e99a3b6774: ;   {static_stub}
  0x000001e99a3b6774: 9048 bb00 | 0000 0000 

  0x000001e99a3b677c: ;   {runtime_call}
  0x000001e99a3b677c: 0000 00e9 | fbff ffff 

  0x000001e99a3b6784: ;   {static_stub}
  0x000001e99a3b6784: 9048 bb00 | 0000 0000 

  0x000001e99a3b678c: ;   {runtime_call}
  0x000001e99a3b678c: 0000 00e9 | fbff ffff 

  0x000001e99a3b6794: ;   {static_stub}
  0x000001e99a3b6794: 9048 bb00 | 0000 0000 

  0x000001e99a3b679c: ;   {runtime_call}
  0x000001e99a3b679c: 0000 00e9 | fbff ffff 

  0x000001e99a3b67a4: ;   {static_stub}
  0x000001e99a3b67a4: 9048 bb00 | 0000 0000 

  0x000001e99a3b67ac: ;   {runtime_call}
  0x000001e99a3b67ac: 0000 00e9 | fbff ffff 

  0x000001e99a3b67b4: ;   {static_stub}
  0x000001e99a3b67b4: 9048 bb00 | 0000 0000 

  0x000001e99a3b67bc: ;   {runtime_call}
  0x000001e99a3b67bc: 0000 00e9 | fbff ffff 

  0x000001e99a3b67c4: ;   {static_stub}
  0x000001e99a3b67c4: 9048 bb00 | 0000 0000 

  0x000001e99a3b67cc: ;   {runtime_call}
  0x000001e99a3b67cc: 0000 00e9 | fbff ffff 

  0x000001e99a3b67d4: ;   {static_stub}
  0x000001e99a3b67d4: 9048 bb00 | 0000 0000 

  0x000001e99a3b67dc: ;   {runtime_call}
  0x000001e99a3b67dc: 0000 00e9 | fbff ffff 

  0x000001e99a3b67e4: ;   {static_stub}
  0x000001e99a3b67e4: 9048 bb00 | 0000 0000 

  0x000001e99a3b67ec: ;   {runtime_call}
  0x000001e99a3b67ec: 0000 00e9 | fbff ffff 

  0x000001e99a3b67f4: ;   {static_stub}
  0x000001e99a3b67f4: 9048 bb00 | 0000 0000 

  0x000001e99a3b67fc: ;   {runtime_call}
  0x000001e99a3b67fc: 0000 00e9 | fbff ffff 

  0x000001e99a3b6804: ;   {static_stub}
  0x000001e99a3b6804: 9048 bb00 | 0000 0000 

  0x000001e99a3b680c: ;   {runtime_call}
  0x000001e99a3b680c: 0000 00e9 | fbff ffff 

  0x000001e99a3b6814: ;   {static_stub}
  0x000001e99a3b6814: 9048 bb00 | 0000 0000 

  0x000001e99a3b681c: ;   {runtime_call}
  0x000001e99a3b681c: 0000 00e9 | fbff ffff 

  0x000001e99a3b6824: ;   {static_stub}
  0x000001e99a3b6824: 9048 bb00 | 0000 0000 

  0x000001e99a3b682c: ;   {runtime_call}
  0x000001e99a3b682c: 0000 00e9 | fbff ffff 

  0x000001e99a3b6834: ;   {static_stub}
  0x000001e99a3b6834: 9048 bb00 | 0000 0000 

  0x000001e99a3b683c: ;   {runtime_call}
  0x000001e99a3b683c: 0000 00e9 | fbff ffff 

  0x000001e99a3b6844: ;   {static_stub}
  0x000001e99a3b6844: 9048 bb00 | 0000 0000 

  0x000001e99a3b684c: ;   {runtime_call}
  0x000001e99a3b684c: 0000 00e9 | fbff ffff 

  0x000001e99a3b6854: ;   {static_stub}
  0x000001e99a3b6854: 9048 bb00 | 0000 0000 

  0x000001e99a3b685c: ;   {runtime_call}
  0x000001e99a3b685c: 0000 00e9 | fbff ffff 

  0x000001e99a3b6864: ;   {static_stub}
  0x000001e99a3b6864: 9048 bb00 | 0000 0000 

  0x000001e99a3b686c: ;   {runtime_call}
  0x000001e99a3b686c: 0000 00e9 | fbff ffff 

  0x000001e99a3b6874: ;   {static_stub}
  0x000001e99a3b6874: 9048 bb00 | 0000 0000 

  0x000001e99a3b687c: ;   {runtime_call}
  0x000001e99a3b687c: 0000 00e9 | fbff ffff 

  0x000001e99a3b6884: ;   {static_stub}
  0x000001e99a3b6884: 9048 bb00 | 0000 0000 

  0x000001e99a3b688c: ;   {runtime_call}
  0x000001e99a3b688c: 0000 00e9 | fbff ffff 

  0x000001e99a3b6894: ;   {static_stub}
  0x000001e99a3b6894: 9048 bb00 | 0000 0000 

  0x000001e99a3b689c: ;   {runtime_call}
  0x000001e99a3b689c: 0000 00e9 | fbff ffff 

  0x000001e99a3b68a4: ;   {static_stub}
  0x000001e99a3b68a4: 9048 bb00 | 0000 0000 

  0x000001e99a3b68ac: ;   {runtime_call}
  0x000001e99a3b68ac: 0000 00e9 | fbff ffff 

  0x000001e99a3b68b4: ;   {static_stub}
  0x000001e99a3b68b4: 9048 bb00 | 0000 0000 

  0x000001e99a3b68bc: ;   {runtime_call}
  0x000001e99a3b68bc: 0000 00e9 | fbff ffff 

  0x000001e99a3b68c4: ;   {static_stub}
  0x000001e99a3b68c4: 9048 bb00 | 0000 0000 

  0x000001e99a3b68cc: ;   {runtime_call}
  0x000001e99a3b68cc: 0000 00e9 | fbff ffff 

  0x000001e99a3b68d4: ;   {static_stub}
  0x000001e99a3b68d4: 9048 bb00 | 0000 0000 

  0x000001e99a3b68dc: ;   {runtime_call}
  0x000001e99a3b68dc: 0000 00e9 | fbff ffff 

  0x000001e99a3b68e4: ;   {static_stub}
  0x000001e99a3b68e4: 9048 bb00 | 0000 0000 

  0x000001e99a3b68ec: ;   {runtime_call}
  0x000001e99a3b68ec: 0000 00e9 | fbff ffff 

  0x000001e99a3b68f4: ;   {static_stub}
  0x000001e99a3b68f4: 9048 bb00 | 0000 0000 

  0x000001e99a3b68fc: ;   {runtime_call}
  0x000001e99a3b68fc: 0000 00e9 | fbff ffff 

  0x000001e99a3b6904: ;   {static_stub}
  0x000001e99a3b6904: 9048 bb00 | 0000 0000 

  0x000001e99a3b690c: ;   {runtime_call}
  0x000001e99a3b690c: 0000 00e9 | fbff ffff 

  0x000001e99a3b6914: ;   {static_stub}
  0x000001e99a3b6914: 9048 bb00 | 0000 0000 

  0x000001e99a3b691c: ;   {runtime_call}
  0x000001e99a3b691c: 0000 00e9 | fbff ffff 

  0x000001e99a3b6924: ;   {static_stub}
  0x000001e99a3b6924: 9048 bb00 | 0000 0000 

  0x000001e99a3b692c: ;   {runtime_call}
  0x000001e99a3b692c: 0000 00e9 | fbff ffff 

  0x000001e99a3b6934: ;   {static_stub}
  0x000001e99a3b6934: 9048 bb00 | 0000 0000 

  0x000001e99a3b693c: ;   {runtime_call}
  0x000001e99a3b693c: 0000 00e9 | fbff ffff 

  0x000001e99a3b6944: ;   {static_stub}
  0x000001e99a3b6944: 9048 bb00 | 0000 0000 

  0x000001e99a3b694c: ;   {runtime_call}
  0x000001e99a3b694c: 0000 00e9 | fbff ffff 

  0x000001e99a3b6954: ;   {static_stub}
  0x000001e99a3b6954: 9048 bb00 | 0000 0000 

  0x000001e99a3b695c: ;   {runtime_call}
  0x000001e99a3b695c: 0000 00e9 | fbff ffff 

  0x000001e99a3b6964: ;   {static_stub}
  0x000001e99a3b6964: 9048 bb00 | 0000 0000 

  0x000001e99a3b696c: ;   {runtime_call}
  0x000001e99a3b696c: 0000 00e9 | fbff ffff 

  0x000001e99a3b6974: ;   {static_stub}
  0x000001e99a3b6974: 9048 bb00 | 0000 0000 

  0x000001e99a3b697c: ;   {runtime_call}
  0x000001e99a3b697c: 0000 00e9 | fbff ffff 

  0x000001e99a3b6984: ;   {static_stub}
  0x000001e99a3b6984: 9048 bb00 | 0000 0000 

  0x000001e99a3b698c: ;   {runtime_call}
  0x000001e99a3b698c: 0000 00e9 | fbff ffff 

  0x000001e99a3b6994: ;   {static_stub}
  0x000001e99a3b6994: 9048 bb00 | 0000 0000 

  0x000001e99a3b699c: ;   {runtime_call}
  0x000001e99a3b699c: 0000 00e9 | fbff ffff 

  0x000001e99a3b69a4: ;   {static_stub}
  0x000001e99a3b69a4: 9048 bb00 | 0000 0000 

  0x000001e99a3b69ac: ;   {runtime_call}
  0x000001e99a3b69ac: 0000 00e9 | fbff ffff 

  0x000001e99a3b69b4: ;   {static_stub}
  0x000001e99a3b69b4: 9048 bb00 | 0000 0000 

  0x000001e99a3b69bc: ;   {runtime_call}
  0x000001e99a3b69bc: 0000 00e9 | fbff ffff 

  0x000001e99a3b69c4: ;   {static_stub}
  0x000001e99a3b69c4: 9048 bb00 | 0000 0000 

  0x000001e99a3b69cc: ;   {runtime_call}
  0x000001e99a3b69cc: 0000 00e9 | fbff ffff 

  0x000001e99a3b69d4: ;   {static_stub}
  0x000001e99a3b69d4: 9048 bb00 | 0000 0000 

  0x000001e99a3b69dc: ;   {runtime_call}
  0x000001e99a3b69dc: 0000 00e9 | fbff ffff 

  0x000001e99a3b69e4: ;   {static_stub}
  0x000001e99a3b69e4: 9048 bb00 | 0000 0000 

  0x000001e99a3b69ec: ;   {runtime_call}
  0x000001e99a3b69ec: 0000 00e9 | fbff ffff 

  0x000001e99a3b69f4: ;   {static_stub}
  0x000001e99a3b69f4: 9048 bb00 | 0000 0000 

  0x000001e99a3b69fc: ;   {runtime_call}
  0x000001e99a3b69fc: 0000 00e9 | fbff ffff 

  0x000001e99a3b6a04: ;   {static_stub}
  0x000001e99a3b6a04: 9048 bb00 | 0000 0000 

  0x000001e99a3b6a0c: ;   {runtime_call}
  0x000001e99a3b6a0c: 0000 00e9 | fbff ffff 

  0x000001e99a3b6a14: ;   {static_stub}
  0x000001e99a3b6a14: 9048 bb00 | 0000 0000 

  0x000001e99a3b6a1c: ;   {runtime_call}
  0x000001e99a3b6a1c: 0000 00e9 | fbff ffff 

  0x000001e99a3b6a24: ;   {static_stub}
  0x000001e99a3b6a24: 9048 bb00 | 0000 0000 

  0x000001e99a3b6a2c: ;   {runtime_call}
  0x000001e99a3b6a2c: 0000 00e9 | fbff ffff 

  0x000001e99a3b6a34: ;   {static_stub}
  0x000001e99a3b6a34: 9048 bb00 | 0000 0000 

  0x000001e99a3b6a3c: ;   {runtime_call}
  0x000001e99a3b6a3c: 0000 00e9 | fbff ffff 

  0x000001e99a3b6a44: ;   {static_stub}
  0x000001e99a3b6a44: 9048 bb00 | 0000 0000 

  0x000001e99a3b6a4c: ;   {runtime_call}
  0x000001e99a3b6a4c: 0000 00e9 | fbff ffff 

  0x000001e99a3b6a54: ;   {static_stub}
  0x000001e99a3b6a54: 9048 bb00 | 0000 0000 

  0x000001e99a3b6a5c: ;   {runtime_call}
  0x000001e99a3b6a5c: 0000 00e9 | fbff ffff 

  0x000001e99a3b6a64: ;   {static_stub}
  0x000001e99a3b6a64: 9048 bb00 | 0000 0000 

  0x000001e99a3b6a6c: ;   {runtime_call}
  0x000001e99a3b6a6c: 0000 00e9 | fbff ffff 

  0x000001e99a3b6a74: ;   {static_stub}
  0x000001e99a3b6a74: 9048 bb00 | 0000 0000 

  0x000001e99a3b6a7c: ;   {runtime_call}
  0x000001e99a3b6a7c: 0000 00e9 | fbff ffff 

  0x000001e99a3b6a84: ;   {static_stub}
  0x000001e99a3b6a84: 9048 bb00 | 0000 0000 

  0x000001e99a3b6a8c: ;   {runtime_call}
  0x000001e99a3b6a8c: 0000 00e9 | fbff ffff 

  0x000001e99a3b6a94: ;   {static_stub}
  0x000001e99a3b6a94: 9048 bb00 | 0000 0000 

  0x000001e99a3b6a9c: ;   {runtime_call}
  0x000001e99a3b6a9c: 0000 00e9 | fbff ffff 

  0x000001e99a3b6aa4: ;   {static_stub}
  0x000001e99a3b6aa4: 9048 bb00 | 0000 0000 

  0x000001e99a3b6aac: ;   {runtime_call}
  0x000001e99a3b6aac: 0000 00e9 | fbff ffff 

  0x000001e99a3b6ab4: ;   {static_stub}
  0x000001e99a3b6ab4: 9048 bb00 | 0000 0000 

  0x000001e99a3b6abc: ;   {runtime_call}
  0x000001e99a3b6abc: 0000 00e9 | fbff ffff 

  0x000001e99a3b6ac4: ;   {static_stub}
  0x000001e99a3b6ac4: 9048 bb00 | 0000 0000 

  0x000001e99a3b6acc: ;   {runtime_call}
  0x000001e99a3b6acc: 0000 00e9 | fbff ffff 

  0x000001e99a3b6ad4: ;   {static_stub}
  0x000001e99a3b6ad4: 9048 bb00 | 0000 0000 

  0x000001e99a3b6adc: ;   {runtime_call}
  0x000001e99a3b6adc: 0000 00e9 | fbff ffff 

  0x000001e99a3b6ae4: ;   {static_stub}
  0x000001e99a3b6ae4: 9048 bb00 | 0000 0000 

  0x000001e99a3b6aec: ;   {runtime_call}
  0x000001e99a3b6aec: 0000 00e9 | fbff ffff 

  0x000001e99a3b6af4: ;   {static_stub}
  0x000001e99a3b6af4: 9048 bb00 | 0000 0000 

  0x000001e99a3b6afc: ;   {runtime_call}
  0x000001e99a3b6afc: 0000 00e9 | fbff ffff 

  0x000001e99a3b6b04: ;   {static_stub}
  0x000001e99a3b6b04: 9048 bb00 | 0000 0000 

  0x000001e99a3b6b0c: ;   {runtime_call}
  0x000001e99a3b6b0c: 0000 00e9 | fbff ffff 

  0x000001e99a3b6b14: ;   {static_stub}
  0x000001e99a3b6b14: 9048 bb00 | 0000 0000 

  0x000001e99a3b6b1c: ;   {runtime_call}
  0x000001e99a3b6b1c: 0000 00e9 | fbff ffff 

  0x000001e99a3b6b24: ;   {static_stub}
  0x000001e99a3b6b24: 9048 bb00 | 0000 0000 

  0x000001e99a3b6b2c: ;   {runtime_call}
  0x000001e99a3b6b2c: 0000 00e9 | fbff ffff 

  0x000001e99a3b6b34: ;   {static_stub}
  0x000001e99a3b6b34: 9048 bb00 | 0000 0000 

  0x000001e99a3b6b3c: ;   {runtime_call}
  0x000001e99a3b6b3c: 0000 00e9 | fbff ffff 

  0x000001e99a3b6b44: ;   {static_stub}
  0x000001e99a3b6b44: 9048 bb00 | 0000 0000 

  0x000001e99a3b6b4c: ;   {runtime_call}
  0x000001e99a3b6b4c: 0000 00e9 | fbff ffff 

  0x000001e99a3b6b54: ;   {static_stub}
  0x000001e99a3b6b54: 9048 bb00 | 0000 0000 

  0x000001e99a3b6b5c: ;   {runtime_call}
  0x000001e99a3b6b5c: 0000 00e9 | fbff ffff 

  0x000001e99a3b6b64: ;   {static_stub}
  0x000001e99a3b6b64: 9048 bb00 | 0000 0000 

  0x000001e99a3b6b6c: ;   {runtime_call}
  0x000001e99a3b6b6c: 0000 00e9 | fbff ffff 

  0x000001e99a3b6b74: ;   {static_stub}
  0x000001e99a3b6b74: 9048 bb00 | 0000 0000 

  0x000001e99a3b6b7c: ;   {runtime_call}
  0x000001e99a3b6b7c: 0000 00e9 | fbff ffff 

  0x000001e99a3b6b84: ;   {static_stub}
  0x000001e99a3b6b84: 9048 bb00 | 0000 0000 

  0x000001e99a3b6b8c: ;   {runtime_call}
  0x000001e99a3b6b8c: 0000 00e9 | fbff ffff 

  0x000001e99a3b6b94: ;   {static_stub}
  0x000001e99a3b6b94: 9048 bb00 | 0000 0000 

  0x000001e99a3b6b9c: ;   {runtime_call}
  0x000001e99a3b6b9c: 0000 00e9 | fbff ffff 

  0x000001e99a3b6ba4: ;   {static_stub}
  0x000001e99a3b6ba4: 9048 bb00 | 0000 0000 

  0x000001e99a3b6bac: ;   {runtime_call}
  0x000001e99a3b6bac: 0000 00e9 | fbff ffff 

  0x000001e99a3b6bb4: ;   {static_stub}
  0x000001e99a3b6bb4: 9048 bb00 | 0000 0000 

  0x000001e99a3b6bbc: ;   {runtime_call}
  0x000001e99a3b6bbc: 0000 00e9 | fbff ffff 

  0x000001e99a3b6bc4: ;   {static_stub}
  0x000001e99a3b6bc4: 9048 bb00 | 0000 0000 

  0x000001e99a3b6bcc: ;   {runtime_call}
  0x000001e99a3b6bcc: 0000 00e9 | fbff ffff 

  0x000001e99a3b6bd4: ;   {static_stub}
  0x000001e99a3b6bd4: 9048 bb00 | 0000 0000 

  0x000001e99a3b6bdc: ;   {runtime_call}
  0x000001e99a3b6bdc: 0000 00e9 | fbff ffff 

  0x000001e99a3b6be4: ;   {static_stub}
  0x000001e99a3b6be4: 9048 bb00 | 0000 0000 

  0x000001e99a3b6bec: ;   {runtime_call}
  0x000001e99a3b6bec: 0000 00e9 | fbff ffff 

  0x000001e99a3b6bf4: ;   {static_stub}
  0x000001e99a3b6bf4: 9048 bb00 | 0000 0000 

  0x000001e99a3b6bfc: ;   {runtime_call}
  0x000001e99a3b6bfc: 0000 00e9 | fbff ffff 

  0x000001e99a3b6c04: ;   {static_stub}
  0x000001e99a3b6c04: 9048 bb00 | 0000 0000 

  0x000001e99a3b6c0c: ;   {runtime_call}
  0x000001e99a3b6c0c: 0000 00e9 | fbff ffff 

  0x000001e99a3b6c14: ;   {static_stub}
  0x000001e99a3b6c14: 9048 bb00 | 0000 0000 

  0x000001e99a3b6c1c: ;   {runtime_call}
  0x000001e99a3b6c1c: 0000 00e9 | fbff ffff 

  0x000001e99a3b6c24: ;   {static_stub}
  0x000001e99a3b6c24: 9048 bb00 | 0000 0000 

  0x000001e99a3b6c2c: ;   {runtime_call}
  0x000001e99a3b6c2c: 0000 00e9 | fbff ffff 

  0x000001e99a3b6c34: ;   {static_stub}
  0x000001e99a3b6c34: 9048 bb00 | 0000 0000 

  0x000001e99a3b6c3c: ;   {runtime_call}
  0x000001e99a3b6c3c: 0000 00e9 | fbff ffff 

  0x000001e99a3b6c44: ;   {static_stub}
  0x000001e99a3b6c44: 9048 bb00 | 0000 0000 

  0x000001e99a3b6c4c: ;   {runtime_call}
  0x000001e99a3b6c4c: 0000 00e9 | fbff ffff 

  0x000001e99a3b6c54: ;   {static_stub}
  0x000001e99a3b6c54: 9048 bb00 | 0000 0000 

  0x000001e99a3b6c5c: ;   {runtime_call}
  0x000001e99a3b6c5c: 0000 00e9 | fbff ffff 

  0x000001e99a3b6c64: ;   {static_stub}
  0x000001e99a3b6c64: 9048 bb00 | 0000 0000 

  0x000001e99a3b6c6c: ;   {runtime_call}
  0x000001e99a3b6c6c: 0000 00e9 | fbff ffff 

  0x000001e99a3b6c74: ;   {static_stub}
  0x000001e99a3b6c74: 9048 bb00 | 0000 0000 

  0x000001e99a3b6c7c: ;   {runtime_call}
  0x000001e99a3b6c7c: 0000 00e9 | fbff ffff 

  0x000001e99a3b6c84: ;   {static_stub}
  0x000001e99a3b6c84: 9048 bb00 | 0000 0000 

  0x000001e99a3b6c8c: ;   {runtime_call}
  0x000001e99a3b6c8c: 0000 00e9 | fbff ffff 

  0x000001e99a3b6c94: ;   {static_stub}
  0x000001e99a3b6c94: 9048 bb00 | 0000 0000 

  0x000001e99a3b6c9c: ;   {runtime_call}
  0x000001e99a3b6c9c: 0000 00e9 | fbff ffff 

  0x000001e99a3b6ca4: ;   {static_stub}
  0x000001e99a3b6ca4: 9048 bb00 | 0000 0000 

  0x000001e99a3b6cac: ;   {runtime_call}
  0x000001e99a3b6cac: 0000 00e9 | fbff ffff 

  0x000001e99a3b6cb4: ;   {static_stub}
  0x000001e99a3b6cb4: 9048 bb00 | 0000 0000 

  0x000001e99a3b6cbc: ;   {runtime_call}
  0x000001e99a3b6cbc: 0000 00e9 | fbff ffff 

  0x000001e99a3b6cc4: ;   {static_stub}
  0x000001e99a3b6cc4: 9048 bb00 | 0000 0000 

  0x000001e99a3b6ccc: ;   {runtime_call}
  0x000001e99a3b6ccc: 0000 00e9 | fbff ffff 

  0x000001e99a3b6cd4: ;   {static_stub}
  0x000001e99a3b6cd4: 9048 bb00 | 0000 0000 

  0x000001e99a3b6cdc: ;   {runtime_call}
  0x000001e99a3b6cdc: 0000 00e9 | fbff ffff 

  0x000001e99a3b6ce4: ;   {static_stub}
  0x000001e99a3b6ce4: 9048 bb00 | 0000 0000 

  0x000001e99a3b6cec: ;   {runtime_call}
  0x000001e99a3b6cec: 0000 00e9 | fbff ffff 

  0x000001e99a3b6cf4: ;   {static_stub}
  0x000001e99a3b6cf4: 9048 bb00 | 0000 0000 

  0x000001e99a3b6cfc: ;   {runtime_call}
  0x000001e99a3b6cfc: 0000 00e9 | fbff ffff 

  0x000001e99a3b6d04: ;   {static_stub}
  0x000001e99a3b6d04: 9048 bb00 | 0000 0000 

  0x000001e99a3b6d0c: ;   {runtime_call}
  0x000001e99a3b6d0c: 0000 00e9 | fbff ffff 

  0x000001e99a3b6d14: ;   {static_stub}
  0x000001e99a3b6d14: 9048 bb00 | 0000 0000 

  0x000001e99a3b6d1c: ;   {runtime_call}
  0x000001e99a3b6d1c: 0000 00e9 | fbff ffff 

  0x000001e99a3b6d24: ;   {static_stub}
  0x000001e99a3b6d24: 9048 bb00 | 0000 0000 

  0x000001e99a3b6d2c: ;   {runtime_call}
  0x000001e99a3b6d2c: 0000 00e9 | fbff ffff 

  0x000001e99a3b6d34: ;   {static_stub}
  0x000001e99a3b6d34: 9048 bb00 | 0000 0000 

  0x000001e99a3b6d3c: ;   {runtime_call}
  0x000001e99a3b6d3c: 0000 00e9 | fbff ffff 

  0x000001e99a3b6d44: ;   {static_stub}
  0x000001e99a3b6d44: 9048 bb00 | 0000 0000 

  0x000001e99a3b6d4c: ;   {runtime_call}
  0x000001e99a3b6d4c: 0000 00e9 | fbff ffff 

  0x000001e99a3b6d54: ;   {static_stub}
  0x000001e99a3b6d54: 9048 bb00 | 0000 0000 

  0x000001e99a3b6d5c: ;   {runtime_call}
  0x000001e99a3b6d5c: 0000 00e9 | fbff ffff 

  0x000001e99a3b6d64: ;   {static_stub}
  0x000001e99a3b6d64: 9048 bb00 | 0000 0000 

  0x000001e99a3b6d6c: ;   {runtime_call}
  0x000001e99a3b6d6c: 0000 00e9 | fbff ffff 

  0x000001e99a3b6d74: ;   {static_stub}
  0x000001e99a3b6d74: 9048 bb00 | 0000 0000 

  0x000001e99a3b6d7c: ;   {runtime_call}
  0x000001e99a3b6d7c: 0000 00e9 | fbff ffff 

  0x000001e99a3b6d84: ;   {static_stub}
  0x000001e99a3b6d84: 9048 bb00 | 0000 0000 

  0x000001e99a3b6d8c: ;   {runtime_call}
  0x000001e99a3b6d8c: 0000 00e9 | fbff ffff 

  0x000001e99a3b6d94: ;   {static_stub}
  0x000001e99a3b6d94: 9048 bb00 | 0000 0000 

  0x000001e99a3b6d9c: ;   {runtime_call}
  0x000001e99a3b6d9c: 0000 00e9 | fbff ffff 

  0x000001e99a3b6da4: ;   {static_stub}
  0x000001e99a3b6da4: 9048 bb00 | 0000 0000 

  0x000001e99a3b6dac: ;   {runtime_call}
  0x000001e99a3b6dac: 0000 00e9 | fbff ffff 

  0x000001e99a3b6db4: ;   {static_stub}
  0x000001e99a3b6db4: 9048 bb00 | 0000 0000 

  0x000001e99a3b6dbc: ;   {runtime_call}
  0x000001e99a3b6dbc: 0000 00e9 | fbff ffff 

  0x000001e99a3b6dc4: ;   {static_stub}
  0x000001e99a3b6dc4: 9048 bb00 | 0000 0000 

  0x000001e99a3b6dcc: ;   {runtime_call}
  0x000001e99a3b6dcc: 0000 00e9 | fbff ffff 

  0x000001e99a3b6dd4: ;   {static_stub}
  0x000001e99a3b6dd4: 9048 bb00 | 0000 0000 

  0x000001e99a3b6ddc: ;   {runtime_call}
  0x000001e99a3b6ddc: 0000 00e9 | fbff ffff 

  0x000001e99a3b6de4: ;   {static_stub}
  0x000001e99a3b6de4: 9048 bb00 | 0000 0000 

  0x000001e99a3b6dec: ;   {runtime_call}
  0x000001e99a3b6dec: 0000 00e9 | fbff ffff 

  0x000001e99a3b6df4: ;   {static_stub}
  0x000001e99a3b6df4: 9048 bb00 | 0000 0000 

  0x000001e99a3b6dfc: ;   {runtime_call}
  0x000001e99a3b6dfc: 0000 00e9 | fbff ffff 

  0x000001e99a3b6e04: ;   {static_stub}
  0x000001e99a3b6e04: 9048 bb00 | 0000 0000 

  0x000001e99a3b6e0c: ;   {runtime_call}
  0x000001e99a3b6e0c: 0000 00e9 | fbff ffff 

  0x000001e99a3b6e14: ;   {static_stub}
  0x000001e99a3b6e14: 9048 bb00 | 0000 0000 

  0x000001e99a3b6e1c: ;   {runtime_call}
  0x000001e99a3b6e1c: 0000 00e9 | fbff ffff 

  0x000001e99a3b6e24: ;   {static_stub}
  0x000001e99a3b6e24: 9048 bb00 | 0000 0000 

  0x000001e99a3b6e2c: ;   {runtime_call}
  0x000001e99a3b6e2c: 0000 00e9 | fbff ffff 

  0x000001e99a3b6e34: ;   {static_stub}
  0x000001e99a3b6e34: 9048 bb00 | 0000 0000 

  0x000001e99a3b6e3c: ;   {runtime_call}
  0x000001e99a3b6e3c: 0000 00e9 | fbff ffff 

  0x000001e99a3b6e44: ;   {static_stub}
  0x000001e99a3b6e44: 9048 bb00 | 0000 0000 

  0x000001e99a3b6e4c: ;   {runtime_call}
  0x000001e99a3b6e4c: 0000 00e9 | fbff ffff 

  0x000001e99a3b6e54: ;   {static_stub}
  0x000001e99a3b6e54: 9048 bb00 | 0000 0000 

  0x000001e99a3b6e5c: ;   {runtime_call}
  0x000001e99a3b6e5c: 0000 00e9 | fbff ffff 

  0x000001e99a3b6e64: ;   {static_stub}
  0x000001e99a3b6e64: 9048 bb00 | 0000 0000 

  0x000001e99a3b6e6c: ;   {runtime_call}
  0x000001e99a3b6e6c: 0000 00e9 | fbff ffff 

  0x000001e99a3b6e74: ;   {static_stub}
  0x000001e99a3b6e74: 9048 bb00 | 0000 0000 

  0x000001e99a3b6e7c: ;   {runtime_call}
  0x000001e99a3b6e7c: 0000 00e9 | fbff ffff 

  0x000001e99a3b6e84: ;   {static_stub}
  0x000001e99a3b6e84: 9048 bb00 | 0000 0000 

  0x000001e99a3b6e8c: ;   {runtime_call}
  0x000001e99a3b6e8c: 0000 00e9 | fbff ffff 

  0x000001e99a3b6e94: ;   {static_stub}
  0x000001e99a3b6e94: 9048 bb00 | 0000 0000 

  0x000001e99a3b6e9c: ;   {runtime_call}
  0x000001e99a3b6e9c: 0000 00e9 | fbff ffff 

  0x000001e99a3b6ea4: ;   {static_stub}
  0x000001e99a3b6ea4: 9048 bb00 | 0000 0000 

  0x000001e99a3b6eac: ;   {runtime_call}
  0x000001e99a3b6eac: 0000 00e9 | fbff ffff 

  0x000001e99a3b6eb4: ;   {static_stub}
  0x000001e99a3b6eb4: 9048 bb00 | 0000 0000 

  0x000001e99a3b6ebc: ;   {runtime_call}
  0x000001e99a3b6ebc: 0000 00e9 | fbff ffff 

  0x000001e99a3b6ec4: ;   {static_stub}
  0x000001e99a3b6ec4: 9048 bb00 | 0000 0000 

  0x000001e99a3b6ecc: ;   {runtime_call}
  0x000001e99a3b6ecc: 0000 00e9 | fbff ffff 

  0x000001e99a3b6ed4: ;   {static_stub}
  0x000001e99a3b6ed4: 9048 bb00 | 0000 0000 

  0x000001e99a3b6edc: ;   {runtime_call}
  0x000001e99a3b6edc: 0000 00e9 | fbff ffff 

  0x000001e99a3b6ee4: ;   {static_stub}
  0x000001e99a3b6ee4: 9048 bb00 | 0000 0000 

  0x000001e99a3b6eec: ;   {runtime_call}
  0x000001e99a3b6eec: 0000 00e9 | fbff ffff 

  0x000001e99a3b6ef4: ;   {static_stub}
  0x000001e99a3b6ef4: 9048 bb00 | 0000 0000 

  0x000001e99a3b6efc: ;   {runtime_call}
  0x000001e99a3b6efc: 0000 00e9 | fbff ffff 

  0x000001e99a3b6f04: ;   {static_stub}
  0x000001e99a3b6f04: 9048 bb00 | 0000 0000 

  0x000001e99a3b6f0c: ;   {runtime_call}
  0x000001e99a3b6f0c: 0000 00e9 | fbff ffff 

  0x000001e99a3b6f14: ;   {static_stub}
  0x000001e99a3b6f14: 9048 bb00 | 0000 0000 

  0x000001e99a3b6f1c: ;   {runtime_call}
  0x000001e99a3b6f1c: 0000 00e9 | fbff ffff 
[Exception Handler]
  0x000001e99a3b6f24: ;   {runtime_call handle_exception_from_callee Runtime1 stub}
  0x000001e99a3b6f24: e857 bcb2 

  0x000001e99a3b6f28: ;   {external_word}
  0x000001e99a3b6f28: fe48 b990 | f025 86fc | 7f00 0048 

  0x000001e99a3b6f34: ;   {runtime_call}
  0x000001e99a3b6f34: 83e4 f049 | ba20 f9f3 | 85fc 7f00 | 0041 ffd2 

  0x000001e99a3b6f44: ;   {section_word}
  0x000001e99a3b6f44: f449 ba45 | 6f3b 9ae9 | 0100 0041 

  0x000001e99a3b6f50: ;   {runtime_call DeoptimizationBlob}
  0x000001e99a3b6f50: 52e9 4ab9 | a8fe f4f4 
[/MachCode]


---------------  P R O C E S S  ---------------

Threads class SMR info:
_java_thread_list=0x000001e9e8110740, length=36, elements={
0x000001e9915d4150, 0x000001e9915d73f0, 0x000001e9915e8460, 0x000001e9915ebe50,
0x000001e9915ec720, 0x000001e9915eea70, 0x000001e9915f8090, 0x000001e99fac5f40,
0x000001e99faac0d0, 0x000001e9e5045390, 0x000001e9e55676f0, 0x000001e9e55615c0,
0x000001e9e55a8150, 0x000001e9e56a8aa0, 0x000001e9e7855fc0, 0x000001e9e785abb0,
0x000001e9e5967630, 0x000001e9e78555a0, 0x000001e9e785b0c0, 0x000001e9e7859770,
0x000001e9e785a190, 0x000001e9e7858d50, 0x000001e9e785cf20, 0x000001e9e7859260,
0x000001e9e785b5d0, 0x000001e9e7858330, 0x000001e9e7859c80, 0x000001e9e785ca10,
0x000001e9e785a6a0, 0x000001e9e78569e0, 0x000001e9e7855ab0, 0x000001e9e7856ef0,
0x000001e9e7857400, 0x000001e9e59648a0, 0x000001e9e5964db0, 0x000001e9e5966700
}

Java Threads: ( => current thread )
  0x000001e9915d4150 JavaThread "Reference Handler" daemon [_thread_blocked, id=4040, stack(0x0000002f83800000,0x0000002f83900000)]
  0x000001e9915d73f0 JavaThread "Finalizer" daemon [_thread_blocked, id=2324, stack(0x0000002f83900000,0x0000002f83a00000)]
  0x000001e9915e8460 JavaThread "Signal Dispatcher" daemon [_thread_blocked, id=6464, stack(0x0000002f83a00000,0x0000002f83b00000)]
  0x000001e9915ebe50 JavaThread "Attach Listener" daemon [_thread_blocked, id=4388, stack(0x0000002f83b00000,0x0000002f83c00000)]
  0x000001e9915ec720 JavaThread "Service Thread" daemon [_thread_blocked, id=1464, stack(0x0000002f83c00000,0x0000002f83d00000)]
  0x000001e9915eea70 JavaThread "Monitor Deflation Thread" daemon [_thread_blocked, id=1624, stack(0x0000002f83d00000,0x0000002f83e00000)]
  0x000001e9915f8090 JavaThread "C1 CompilerThread0" daemon [_thread_blocked, id=3100, stack(0x0000002f83e00000,0x0000002f83f00000)]
  0x000001e99fac5f40 JavaThread "Sweeper thread" daemon [_thread_blocked, id=4644, stack(0x0000002f83f00000,0x0000002f84000000)]
  0x000001e99faac0d0 JavaThread "Common-Cleaner" daemon [_thread_blocked, id=7632, stack(0x0000002f84000000,0x0000002f84100000)]
  0x000001e9e5045390 JavaThread "Notification Thread" daemon [_thread_blocked, id=2356, stack(0x0000002f84200000,0x0000002f84300000)]
  0x000001e9e55676f0 JavaThread "RMI TCP Accept-0" daemon [_thread_in_native, id=192, stack(0x0000002f84300000,0x0000002f84400000)]
  0x000001e9e55615c0 JavaThread "RMI TCP Accept-50160" daemon [_thread_in_native, id=2992, stack(0x0000002f84400000,0x0000002f84500000)]
  0x000001e9e55a8150 JavaThread "RMI TCP Accept-0" daemon [_thread_in_native, id=2388, stack(0x0000002f84500000,0x0000002f84600000)]
  0x000001e9e56a8aa0 JavaThread "RMI Scheduler(0)" daemon [_thread_blocked, id=3296, stack(0x0000002f84d00000,0x0000002f84e00000)]
  0x000001e9e7855fc0 JavaThread "Live Reload Server" daemon [_thread_in_native, id=9868, stack(0x0000002f85b00000,0x0000002f85c00000)]
  0x000001e9e785abb0 JavaThread "DestroyJavaVM" [_thread_blocked, id=4408, stack(0x0000002f83100000,0x0000002f83200000)]
=>0x000001e9e5967630 JavaThread "RMI TCP Connection(521)-127.0.0.1" daemon [_thread_in_Java, id=11628, stack(0x0000002f84100000,0x0000002f84200000)]
  0x000001e9e78555a0 JavaThread "Catalina-utility-1" [_thread_blocked, id=11656, stack(0x0000002f84c00000,0x0000002f84d00000)]
  0x000001e9e785b0c0 JavaThread "Catalina-utility-2" [_thread_blocked, id=13256, stack(0x0000002f84e00000,0x0000002f84f00000)]
  0x000001e9e7859770 JavaThread "container-0" [_thread_blocked, id=11448, stack(0x0000002f85000000,0x0000002f85100000)]
  0x000001e9e785a190 JavaThread "PoolHikari housekeeper" daemon [_thread_blocked, id=7748, stack(0x0000002f85300000,0x0000002f85400000)]
  0x000001e9e7858d50 JavaThread "PoolHikari connection adder" daemon [_thread_in_native, id=14144, stack(0x0000002f85400000,0x0000002f85500000)]
  0x000001e9e785cf20 JavaThread "File Watcher" daemon [_thread_blocked, id=12596, stack(0x0000002f85800000,0x0000002f85900000)]
  0x000001e9e7859260 JavaThread "http-nio-8080-exec-1" daemon [_thread_blocked, id=7952, stack(0x0000002f85900000,0x0000002f85a00000)]
  0x000001e9e785b5d0 JavaThread "http-nio-8080-exec-2" daemon [_thread_blocked, id=14116, stack(0x0000002f85a00000,0x0000002f85b00000)]
  0x000001e9e7858330 JavaThread "http-nio-8080-exec-3" daemon [_thread_blocked, id=10676, stack(0x0000002f85c00000,0x0000002f85d00000)]
  0x000001e9e7859c80 JavaThread "http-nio-8080-exec-4" daemon [_thread_blocked, id=9884, stack(0x0000002f85d00000,0x0000002f85e00000)]
  0x000001e9e785ca10 JavaThread "http-nio-8080-exec-5" daemon [_thread_blocked, id=9944, stack(0x0000002f85e00000,0x0000002f85f00000)]
  0x000001e9e785a6a0 JavaThread "http-nio-8080-exec-6" daemon [_thread_blocked, id=9924, stack(0x0000002f85f00000,0x0000002f86000000)]
  0x000001e9e78569e0 JavaThread "http-nio-8080-exec-7" daemon [_thread_blocked, id=4264, stack(0x0000002f86000000,0x0000002f86100000)]
  0x000001e9e7855ab0 JavaThread "http-nio-8080-exec-8" daemon [_thread_blocked, id=224, stack(0x0000002f86100000,0x0000002f86200000)]
  0x000001e9e7856ef0 JavaThread "http-nio-8080-exec-9" daemon [_thread_blocked, id=10920, stack(0x0000002f86500000,0x0000002f86600000)]
  0x000001e9e7857400 JavaThread "http-nio-8080-exec-10" daemon [_thread_blocked, id=9420, stack(0x0000002f86700000,0x0000002f86800000)]
  0x000001e9e59648a0 JavaThread "http-nio-8080-Poller" daemon [_thread_in_native, id=12044, stack(0x0000002f86800000,0x0000002f86900000)]
  0x000001e9e5964db0 JavaThread "http-nio-8080-Acceptor" daemon [_thread_in_native, id=7428, stack(0x0000002f86900000,0x0000002f86a00000)]
  0x000001e9e5966700 JavaThread "RMI TCP Connection(599)-127.0.0.1" daemon [_thread_in_Java, id=10780, stack(0x0000002f83000000,0x0000002f83100000)]

Other Threads:
  0x000001e9915cfd80 VMThread "VM Thread" [stack: 0x0000002f83700000,0x0000002f83800000] [id=6348]
  0x000001e991579af0 WatcherThread [stack: 0x0000002f84600000,0x0000002f84700000] [id=784]
  0x000001e991569330 GCTaskThread "GC Thread#0" [stack: 0x0000002f83200000,0x0000002f83300000] [id=7080]
  0x000001e9e5637ee0 GCTaskThread "GC Thread#1" [stack: 0x0000002f84700000,0x0000002f84800000] [id=712]
  0x000001e9e562a0f0 GCTaskThread "GC Thread#2" [stack: 0x0000002f84800000,0x0000002f84900000] [id=6616]
  0x000001e9e5686d80 GCTaskThread "GC Thread#3" [stack: 0x0000002f84900000,0x0000002f84a00000] [id=7116]
  0x000001e991570960 ConcurrentGCThread "G1 Main Marker" [stack: 0x0000002f83300000,0x0000002f83400000] [id=3912]
  0x000001e991571b60 ConcurrentGCThread "G1 Conc#0" [stack: 0x0000002f83400000,0x0000002f83500000] [id=3328]
  0x000001e9915ace40 ConcurrentGCThread "G1 Refine#0" [stack: 0x0000002f83500000,0x0000002f83600000] [id=1888]
  0x000001e9e56381a0 ConcurrentGCThread "G1 Refine#1" [stack: 0x0000002f84a00000,0x0000002f84b00000] [id=6652]
  0x000001e9e5668050 ConcurrentGCThread "G1 Refine#2" [stack: 0x0000002f84b00000,0x0000002f84c00000] [id=5184]
  0x000001e9915ad780 ConcurrentGCThread "G1 Service" [stack: 0x0000002f83600000,0x0000002f83700000] [id=4792]

Threads with active compile tasks:

VM state: not at safepoint (normal execution)

VM Mutex/Monitor currently owned by a thread: None

Heap address: 0x00000000d4200000, size: 702 MB, Compressed Oops mode: 32-bit

CDS archive(s) mapped at: [0x000001e9a0000000-0x000001e9a0bd0000-0x000001e9a0bd0000), size 12386304, SharedBaseAddress: 0x000001e9a0000000, ArchiveRelocationMode: 1.
Compressed class space mapped at: 0x000001e9a1000000-0x000001e9e1000000, reserved size: 1073741824
Narrow klass base: 0x000001e9a0000000, Narrow klass shift: 0, Narrow klass range: 0x100000000

GC Precious Log:
 CPUs: 4 total, 4 available
 Memory: 2806M
 Large Page Support: Disabled
 NUMA Support: Disabled
 Compressed Oops: Enabled (32-bit)
 Heap Region Size: 1M
 Heap Min Capacity: 8M
 Heap Initial Capacity: 44M
 Heap Max Capacity: 702M
 Pre-touch: Disabled
 Parallel Workers: 4
 Concurrent Workers: 1
 Concurrent Refinement Workers: 4
 Periodic GC: Disabled

Heap:
 garbage-first heap   total 133120K, used 67035K [0x00000000d4200000, 0x0000000100000000)
  region size 1024K, 17 young (17408K), 1 survivors (1024K)
 Metaspace       used 74241K, committed 75008K, reserved 1114112K
  class space    used 10830K, committed 11136K, reserved 1048576K

Heap Regions: E=young(eden), S=young(survivor), O=old, HS=humongous(starts), HC=humongous(continues), CS=collection set, F=free, OA=open archive, CA=closed archive, TAMS=top-at-mark-start (previous, next)
|   0|0x00000000d4200000, 0x00000000d4300000, 0x00000000d4300000|100%|HS|  |TAMS 0x00000000d4300000, 0x00000000d4200000| Complete 
|   1|0x00000000d4300000, 0x00000000d4400000, 0x00000000d4400000|100%| O|  |TAMS 0x00000000d4400000, 0x00000000d4300000| Untracked 
|   2|0x00000000d4400000, 0x00000000d44ffff8, 0x00000000d4500000| 99%| O|  |TAMS 0x00000000d44ffff8, 0x00000000d4400000| Untracked 
|   3|0x00000000d4500000, 0x00000000d45fffc8, 0x00000000d4600000| 99%| O|  |TAMS 0x00000000d45fffc8, 0x00000000d4500000| Untracked 
|   4|0x00000000d4600000, 0x00000000d46fffe8, 0x00000000d4700000| 99%| O|  |TAMS 0x00000000d46fffe8, 0x00000000d4600000| Untracked 
|   5|0x00000000d4700000, 0x00000000d4800000, 0x00000000d4800000|100%| O|  |TAMS 0x00000000d4800000, 0x00000000d4700000| Untracked 
|   6|0x00000000d4800000, 0x00000000d48fffb8, 0x00000000d4900000| 99%| O|  |TAMS 0x00000000d48fffb8, 0x00000000d4800000| Untracked 
|   7|0x00000000d4900000, 0x00000000d49ffff8, 0x00000000d4a00000| 99%| O|  |TAMS 0x00000000d49ffff8, 0x00000000d4900000| Untracked 
|   8|0x00000000d4a00000, 0x00000000d4affff0, 0x00000000d4b00000| 99%| O|  |TAMS 0x00000000d4affff0, 0x00000000d4a00000| Untracked 
|   9|0x00000000d4b00000, 0x00000000d4bfffb0, 0x00000000d4c00000| 99%| O|  |TAMS 0x00000000d4bfffb0, 0x00000000d4b00000| Untracked 
|  10|0x00000000d4c00000, 0x00000000d4cfffe8, 0x00000000d4d00000| 99%| O|  |TAMS 0x00000000d4cfffe8, 0x00000000d4c00000| Untracked 
|  11|0x00000000d4d00000, 0x00000000d4e00000, 0x00000000d4e00000|100%| O|  |TAMS 0x00000000d4e00000, 0x00000000d4d00000| Untracked 
|  12|0x00000000d4e00000, 0x00000000d4efffe0, 0x00000000d4f00000| 99%| O|  |TAMS 0x00000000d4efffe0, 0x00000000d4e00000| Untracked 
|  13|0x00000000d4f00000, 0x00000000d4fffff0, 0x00000000d5000000| 99%| O|  |TAMS 0x00000000d4fffff0, 0x00000000d4f00000| Untracked 
|  14|0x00000000d5000000, 0x00000000d50ffff0, 0x00000000d5100000| 99%| O|  |TAMS 0x00000000d50ffff0, 0x00000000d5000000| Untracked 
|  15|0x00000000d5100000, 0x00000000d51f70c0, 0x00000000d5200000| 96%| O|  |TAMS 0x00000000d51f70c0, 0x00000000d5100000| Untracked 
|  16|0x00000000d5200000, 0x00000000d52fffc0, 0x00000000d5300000| 99%| O|  |TAMS 0x00000000d52fffc0, 0x00000000d5200000| Untracked 
|  17|0x00000000d5300000, 0x00000000d53fffb0, 0x00000000d5400000| 99%| O|  |TAMS 0x00000000d53fffb0, 0x00000000d5300000| Untracked 
|  18|0x00000000d5400000, 0x00000000d5500000, 0x00000000d5500000|100%| O|  |TAMS 0x00000000d5500000, 0x00000000d5400000| Untracked 
|  19|0x00000000d5500000, 0x00000000d55fffe0, 0x00000000d5600000| 99%| O|  |TAMS 0x00000000d55fffe0, 0x00000000d5500000| Untracked 
|  20|0x00000000d5600000, 0x00000000d56fffc8, 0x00000000d5700000| 99%| O|  |TAMS 0x00000000d56fffc8, 0x00000000d5600000| Untracked 
|  21|0x00000000d5700000, 0x00000000d57fffe8, 0x00000000d5800000| 99%| O|  |TAMS 0x00000000d57fffe8, 0x00000000d5700000| Untracked 
|  22|0x00000000d5800000, 0x00000000d5900000, 0x00000000d5900000|100%| O|  |TAMS 0x00000000d5900000, 0x00000000d5800000| Untracked 
|  23|0x00000000d5900000, 0x00000000d5a00000, 0x00000000d5a00000|100%| O|  |TAMS 0x00000000d5a00000, 0x00000000d5900000| Untracked 
|  24|0x00000000d5a00000, 0x00000000d5b00000, 0x00000000d5b00000|100%| O|  |TAMS 0x00000000d5b00000, 0x00000000d5a00000| Untracked 
|  25|0x00000000d5b00000, 0x00000000d5c00000, 0x00000000d5c00000|100%| O|  |TAMS 0x00000000d5c00000, 0x00000000d5b00000| Untracked 
|  26|0x00000000d5c00000, 0x00000000d5d00000, 0x00000000d5d00000|100%| O|  |TAMS 0x00000000d5d00000, 0x00000000d5c00000| Untracked 
|  27|0x00000000d5d00000, 0x00000000d5e00000, 0x00000000d5e00000|100%| O|  |TAMS 0x00000000d5e00000, 0x00000000d5d00000| Untracked 
|  28|0x00000000d5e00000, 0x00000000d5f00000, 0x00000000d5f00000|100%| O|  |TAMS 0x00000000d5f00000, 0x00000000d5e00000| Untracked 
|  29|0x00000000d5f00000, 0x00000000d6000000, 0x00000000d6000000|100%| O|  |TAMS 0x00000000d6000000, 0x00000000d5f00000| Complete 
|  30|0x00000000d6000000, 0x00000000d6100000, 0x00000000d6100000|100%| O|  |TAMS 0x00000000d6100000, 0x00000000d6000000| Untracked 
|  31|0x00000000d6100000, 0x00000000d6200000, 0x00000000d6200000|100%| O|  |TAMS 0x00000000d6200000, 0x00000000d6100000| Untracked 
|  32|0x00000000d6200000, 0x00000000d62ffff8, 0x00000000d6300000| 99%| O|  |TAMS 0x00000000d62ffff8, 0x00000000d6200000| Untracked 
|  33|0x00000000d6300000, 0x00000000d6400000, 0x00000000d6400000|100%| O|  |TAMS 0x00000000d6400000, 0x00000000d6300000| Untracked 
|  34|0x00000000d6400000, 0x00000000d6500000, 0x00000000d6500000|100%| O|  |TAMS 0x00000000d6500000, 0x00000000d6400000| Untracked 
|  35|0x00000000d6500000, 0x00000000d6600000, 0x00000000d6600000|100%| O|  |TAMS 0x00000000d6600000, 0x00000000d6500000| Untracked 
|  36|0x00000000d6600000, 0x00000000d6664600, 0x00000000d6700000| 39%| O|  |TAMS 0x00000000d6664600, 0x00000000d6600000| Untracked 
|  37|0x00000000d6700000, 0x00000000d6700000, 0x00000000d6800000|  0%| F|  |TAMS 0x00000000d6700000, 0x00000000d6700000| Untracked 
|  38|0x00000000d6800000, 0x00000000d6800000, 0x00000000d6900000|  0%| F|  |TAMS 0x00000000d6800000, 0x00000000d6800000| Untracked 
|  39|0x00000000d6900000, 0x00000000d6a00000, 0x00000000d6a00000|100%| O|  |TAMS 0x00000000d6a00000, 0x00000000d6900000| Complete 
|  40|0x00000000d6a00000, 0x00000000d6a00000, 0x00000000d6b00000|  0%| F|  |TAMS 0x00000000d6a00000, 0x00000000d6a00000| Untracked 
|  41|0x00000000d6b00000, 0x00000000d6b00000, 0x00000000d6c00000|  0%| F|  |TAMS 0x00000000d6b00000, 0x00000000d6b00000| Untracked 
|  42|0x00000000d6c00000, 0x00000000d6d00000, 0x00000000d6d00000|100%| O|  |TAMS 0x00000000d6d00000, 0x00000000d6c00000| Untracked 
|  43|0x00000000d6d00000, 0x00000000d6e00000, 0x00000000d6e00000|100%| O|  |TAMS 0x00000000d6e00000, 0x00000000d6d00000| Untracked 
|  44|0x00000000d6e00000, 0x00000000d6f00000, 0x00000000d6f00000|100%| O|  |TAMS 0x00000000d6f00000, 0x00000000d6e00000| Untracked 
|  45|0x00000000d6f00000, 0x00000000d7000000, 0x00000000d7000000|100%| O|  |TAMS 0x00000000d7000000, 0x00000000d6f00000| Untracked 
|  46|0x00000000d7000000, 0x00000000d7100000, 0x00000000d7100000|100%| O|  |TAMS 0x00000000d7100000, 0x00000000d7000000| Untracked 
|  47|0x00000000d7100000, 0x00000000d7100000, 0x00000000d7200000|  0%| F|  |TAMS 0x00000000d7100000, 0x00000000d7100000| Untracked 
|  48|0x00000000d7200000, 0x00000000d7300000, 0x00000000d7300000|100%| O|  |TAMS 0x00000000d7300000, 0x00000000d7200000| Untracked 
|  49|0x00000000d7300000, 0x00000000d7400000, 0x00000000d7400000|100%| O|  |TAMS 0x00000000d7400000, 0x00000000d7300000| Untracked 
|  50|0x00000000d7400000, 0x00000000d7500000, 0x00000000d7500000|100%| O|  |TAMS 0x00000000d7500000, 0x00000000d7400000| Untracked 
|  51|0x00000000d7500000, 0x00000000d7600000, 0x00000000d7600000|100%| O|  |TAMS 0x00000000d7600000, 0x00000000d7500000| Untracked 
|  52|0x00000000d7600000, 0x00000000d7700000, 0x00000000d7700000|100%| O|  |TAMS 0x00000000d7700000, 0x00000000d7600000| Untracked 
|  53|0x00000000d7700000, 0x00000000d7800000, 0x00000000d7800000|100%| O|  |TAMS 0x00000000d7800000, 0x00000000d7700000| Untracked 
|  54|0x00000000d7800000, 0x00000000d7900000, 0x00000000d7900000|100%| O|  |TAMS 0x00000000d7900000, 0x00000000d7800000| Untracked 
|  55|0x00000000d7900000, 0x00000000d7a00000, 0x00000000d7a00000|100%| O|  |TAMS 0x00000000d7a00000, 0x00000000d7900000| Untracked 
|  56|0x00000000d7a00000, 0x00000000d7a00000, 0x00000000d7b00000|  0%| F|  |TAMS 0x00000000d7a00000, 0x00000000d7a00000| Untracked 
|  57|0x00000000d7b00000, 0x00000000d7b00000, 0x00000000d7c00000|  0%| F|  |TAMS 0x00000000d7b00000, 0x00000000d7b00000| Untracked 
|  58|0x00000000d7c00000, 0x00000000d7c00000, 0x00000000d7d00000|  0%| F|  |TAMS 0x00000000d7c00000, 0x00000000d7c00000| Untracked 
|  59|0x00000000d7d00000, 0x00000000d7e00000, 0x00000000d7e00000|100%| O|  |TAMS 0x00000000d7e00000, 0x00000000d7d00000| Untracked 
|  60|0x00000000d7e00000, 0x00000000d7e00000, 0x00000000d7f00000|  0%| F|  |TAMS 0x00000000d7e00000, 0x00000000d7e00000| Untracked 
|  61|0x00000000d7f00000, 0x00000000d7f00000, 0x00000000d8000000|  0%| F|  |TAMS 0x00000000d7f00000, 0x00000000d7f00000| Untracked 
|  62|0x00000000d8000000, 0x00000000d8000000, 0x00000000d8100000|  0%| F|  |TAMS 0x00000000d8000000, 0x00000000d8000000| Untracked 
|  63|0x00000000d8100000, 0x00000000d8100000, 0x00000000d8200000|  0%| F|  |TAMS 0x00000000d8100000, 0x00000000d8100000| Untracked 
|  64|0x00000000d8200000, 0x00000000d8200000, 0x00000000d8300000|  0%| F|  |TAMS 0x00000000d8200000, 0x00000000d8200000| Untracked 
|  65|0x00000000d8300000, 0x00000000d8300000, 0x00000000d8400000|  0%| F|  |TAMS 0x00000000d8300000, 0x00000000d8300000| Untracked 
|  66|0x00000000d8400000, 0x00000000d8400000, 0x00000000d8500000|  0%| F|  |TAMS 0x00000000d8400000, 0x00000000d8400000| Untracked 
|  67|0x00000000d8500000, 0x00000000d8500000, 0x00000000d8600000|  0%| F|  |TAMS 0x00000000d8500000, 0x00000000d8500000| Untracked 
|  68|0x00000000d8600000, 0x00000000d8600000, 0x00000000d8700000|  0%| F|  |TAMS 0x00000000d8600000, 0x00000000d8600000| Untracked 
|  69|0x00000000d8700000, 0x00000000d8700000, 0x00000000d8800000|  0%| F|  |TAMS 0x00000000d8700000, 0x00000000d8700000| Untracked 
|  70|0x00000000d8800000, 0x00000000d8800000, 0x00000000d8900000|  0%| F|  |TAMS 0x00000000d8800000, 0x00000000d8800000| Untracked 
|  71|0x00000000d8900000, 0x00000000d8900000, 0x00000000d8a00000|  0%| F|  |TAMS 0x00000000d8900000, 0x00000000d8900000| Untracked 
|  72|0x00000000d8a00000, 0x00000000d8a00000, 0x00000000d8b00000|  0%| F|  |TAMS 0x00000000d8a00000, 0x00000000d8a00000| Untracked 
|  73|0x00000000d8b00000, 0x00000000d8b00000, 0x00000000d8c00000|  0%| F|  |TAMS 0x00000000d8b00000, 0x00000000d8b00000| Untracked 
|  74|0x00000000d8c00000, 0x00000000d8c00000, 0x00000000d8d00000|  0%| F|  |TAMS 0x00000000d8c00000, 0x00000000d8c00000| Untracked 
|  75|0x00000000d8d00000, 0x00000000d8d00000, 0x00000000d8e00000|  0%| F|  |TAMS 0x00000000d8d00000, 0x00000000d8d00000| Untracked 
|  76|0x00000000d8e00000, 0x00000000d8e00000, 0x00000000d8f00000|  0%| F|  |TAMS 0x00000000d8e00000, 0x00000000d8e00000| Untracked 
|  77|0x00000000d8f00000, 0x00000000d8f00000, 0x00000000d9000000|  0%| F|  |TAMS 0x00000000d8f00000, 0x00000000d8f00000| Untracked 
|  78|0x00000000d9000000, 0x00000000d9000000, 0x00000000d9100000|  0%| F|  |TAMS 0x00000000d9000000, 0x00000000d9000000| Untracked 
|  79|0x00000000d9100000, 0x00000000d911baa0, 0x00000000d9200000| 10%| S|CS|TAMS 0x00000000d9100000, 0x00000000d9100000| Complete 
|  80|0x00000000d9200000, 0x00000000d9200000, 0x00000000d9300000|  0%| F|  |TAMS 0x00000000d9200000, 0x00000000d9200000| Untracked 
|  81|0x00000000d9300000, 0x00000000d9300000, 0x00000000d9400000|  0%| F|  |TAMS 0x00000000d9300000, 0x00000000d9300000| Untracked 
|  82|0x00000000d9400000, 0x00000000d9400000, 0x00000000d9500000|  0%| F|  |TAMS 0x00000000d9400000, 0x00000000d9400000| Untracked 
|  83|0x00000000d9500000, 0x00000000d9500000, 0x00000000d9600000|  0%| F|  |TAMS 0x00000000d9500000, 0x00000000d9500000| Untracked 
|  84|0x00000000d9600000, 0x00000000d9600000, 0x00000000d9700000|  0%| F|  |TAMS 0x00000000d9600000, 0x00000000d9600000| Untracked 
|  85|0x00000000d9700000, 0x00000000d9700000, 0x00000000d9800000|  0%| F|  |TAMS 0x00000000d9700000, 0x00000000d9700000| Untracked 
|  86|0x00000000d9800000, 0x00000000d9800000, 0x00000000d9900000|  0%| F|  |TAMS 0x00000000d9800000, 0x00000000d9800000| Untracked 
|  87|0x00000000d9900000, 0x00000000d9900000, 0x00000000d9a00000|  0%| F|  |TAMS 0x00000000d9900000, 0x00000000d9900000| Untracked 
|  88|0x00000000d9a00000, 0x00000000d9a00000, 0x00000000d9b00000|  0%| F|  |TAMS 0x00000000d9a00000, 0x00000000d9a00000| Untracked 
|  89|0x00000000d9b00000, 0x00000000d9b00000, 0x00000000d9c00000|  0%| F|  |TAMS 0x00000000d9b00000, 0x00000000d9b00000| Untracked 
|  90|0x00000000d9c00000, 0x00000000d9c00000, 0x00000000d9d00000|  0%| F|  |TAMS 0x00000000d9c00000, 0x00000000d9c00000| Untracked 
|  91|0x00000000d9d00000, 0x00000000d9d00000, 0x00000000d9e00000|  0%| F|  |TAMS 0x00000000d9d00000, 0x00000000d9d00000| Untracked 
|  92|0x00000000d9e00000, 0x00000000d9e00000, 0x00000000d9f00000|  0%| F|  |TAMS 0x00000000d9e00000, 0x00000000d9e00000| Untracked 
|  93|0x00000000d9f00000, 0x00000000d9f00000, 0x00000000da000000|  0%| F|  |TAMS 0x00000000d9f00000, 0x00000000d9f00000| Untracked 
|  94|0x00000000da000000, 0x00000000da000000, 0x00000000da100000|  0%| F|  |TAMS 0x00000000da000000, 0x00000000da000000| Untracked 
|  95|0x00000000da100000, 0x00000000da100000, 0x00000000da200000|  0%| F|  |TAMS 0x00000000da100000, 0x00000000da100000| Untracked 
|  96|0x00000000da200000, 0x00000000da200000, 0x00000000da300000|  0%| F|  |TAMS 0x00000000da200000, 0x00000000da200000| Untracked 
|  97|0x00000000da300000, 0x00000000da300000, 0x00000000da400000|  0%| F|  |TAMS 0x00000000da300000, 0x00000000da300000| Untracked 
|  98|0x00000000da400000, 0x00000000da400000, 0x00000000da500000|  0%| F|  |TAMS 0x00000000da400000, 0x00000000da400000| Untracked 
|  99|0x00000000da500000, 0x00000000da500000, 0x00000000da600000|  0%| F|  |TAMS 0x00000000da500000, 0x00000000da500000| Untracked 
| 100|0x00000000da600000, 0x00000000da600000, 0x00000000da700000|  0%| F|  |TAMS 0x00000000da600000, 0x00000000da600000| Untracked 
| 101|0x00000000da700000, 0x00000000da700000, 0x00000000da800000|  0%| F|  |TAMS 0x00000000da700000, 0x00000000da700000| Untracked 
| 102|0x00000000da800000, 0x00000000da800000, 0x00000000da900000|  0%| F|  |TAMS 0x00000000da800000, 0x00000000da800000| Untracked 
| 103|0x00000000da900000, 0x00000000da900000, 0x00000000daa00000|  0%| F|  |TAMS 0x00000000da900000, 0x00000000da900000| Untracked 
| 104|0x00000000daa00000, 0x00000000daa00000, 0x00000000dab00000|  0%| F|  |TAMS 0x00000000daa00000, 0x00000000daa00000| Untracked 
| 105|0x00000000dab00000, 0x00000000dab00000, 0x00000000dac00000|  0%| F|  |TAMS 0x00000000dab00000, 0x00000000dab00000| Untracked 
| 106|0x00000000dac00000, 0x00000000dac00000, 0x00000000dad00000|  0%| F|  |TAMS 0x00000000dac00000, 0x00000000dac00000| Untracked 
| 107|0x00000000dad00000, 0x00000000dad00000, 0x00000000dae00000|  0%| F|  |TAMS 0x00000000dad00000, 0x00000000dad00000| Untracked 
| 108|0x00000000dae00000, 0x00000000dae00000, 0x00000000daf00000|  0%| F|  |TAMS 0x00000000dae00000, 0x00000000dae00000| Untracked 
| 109|0x00000000daf00000, 0x00000000daf00000, 0x00000000db000000|  0%| F|  |TAMS 0x00000000daf00000, 0x00000000daf00000| Untracked 
| 110|0x00000000db000000, 0x00000000db000000, 0x00000000db100000|  0%| F|  |TAMS 0x00000000db000000, 0x00000000db000000| Untracked 
| 111|0x00000000db100000, 0x00000000db100000, 0x00000000db200000|  0%| F|  |TAMS 0x00000000db100000, 0x00000000db100000| Untracked 
| 112|0x00000000db200000, 0x00000000db200000, 0x00000000db300000|  0%| F|  |TAMS 0x00000000db200000, 0x00000000db200000| Untracked 
| 113|0x00000000db300000, 0x00000000db300000, 0x00000000db400000|  0%| F|  |TAMS 0x00000000db300000, 0x00000000db300000| Untracked 
| 114|0x00000000db400000, 0x00000000db424fd8, 0x00000000db500000| 14%| E|  |TAMS 0x00000000db400000, 0x00000000db400000| Complete 
| 115|0x00000000db500000, 0x00000000db600000, 0x00000000db600000|100%| E|CS|TAMS 0x00000000db500000, 0x00000000db500000| Complete 
| 116|0x00000000db600000, 0x00000000db700000, 0x00000000db700000|100%| E|CS|TAMS 0x00000000db600000, 0x00000000db600000| Complete 
| 117|0x00000000db700000, 0x00000000db800000, 0x00000000db800000|100%| E|CS|TAMS 0x00000000db700000, 0x00000000db700000| Complete 
| 118|0x00000000db800000, 0x00000000db900000, 0x00000000db900000|100%| E|  |TAMS 0x00000000db800000, 0x00000000db800000| Complete 
| 119|0x00000000db900000, 0x00000000dba00000, 0x00000000dba00000|100%| E|CS|TAMS 0x00000000db900000, 0x00000000db900000| Complete 
| 120|0x00000000dba00000, 0x00000000dbb00000, 0x00000000dbb00000|100%| E|CS|TAMS 0x00000000dba00000, 0x00000000dba00000| Complete 
| 121|0x00000000dbb00000, 0x00000000dbc00000, 0x00000000dbc00000|100%| E|CS|TAMS 0x00000000dbb00000, 0x00000000dbb00000| Complete 
| 122|0x00000000dbc00000, 0x00000000dbd00000, 0x00000000dbd00000|100%| E|CS|TAMS 0x00000000dbc00000, 0x00000000dbc00000| Complete 
| 123|0x00000000dbd00000, 0x00000000dbe00000, 0x00000000dbe00000|100%| E|CS|TAMS 0x00000000dbd00000, 0x00000000dbd00000| Complete 
| 124|0x00000000dbe00000, 0x00000000dbf00000, 0x00000000dbf00000|100%| E|CS|TAMS 0x00000000dbe00000, 0x00000000dbe00000| Complete 
| 125|0x00000000dbf00000, 0x00000000dc000000, 0x00000000dc000000|100%| E|CS|TAMS 0x00000000dbf00000, 0x00000000dbf00000| Complete 
| 126|0x00000000dc000000, 0x00000000dc100000, 0x00000000dc100000|100%| E|CS|TAMS 0x00000000dc000000, 0x00000000dc000000| Complete 
| 127|0x00000000dc100000, 0x00000000dc200000, 0x00000000dc200000|100%| E|CS|TAMS 0x00000000dc100000, 0x00000000dc100000| Complete 
| 128|0x00000000dc200000, 0x00000000dc300000, 0x00000000dc300000|100%| E|CS|TAMS 0x00000000dc200000, 0x00000000dc200000| Complete 
| 129|0x00000000dc300000, 0x00000000dc400000, 0x00000000dc400000|100%| E|CS|TAMS 0x00000000dc300000, 0x00000000dc300000| Complete 

Card table byte_map: [0x000001e991310000,0x000001e991470000] _byte_map_base: 0x000001e990c6f000

Marking Bits (Prev, Next): (CMBitMap*) 0x000001e99156a870, (CMBitMap*) 0x000001e99156a8b0
 Prev Bits: [0x000001e99bf50000, 0x000001e99ca48000)
 Next Bits: [0x000001e99ca50000, 0x000001e99d548000)

Polling page: 0x000001e98f450000

Metaspace:

Usage:
  Non-class:     61.92 MB used.
      Class:     10.58 MB used.
       Both:     72.50 MB used.

Virtual space:
  Non-class space:       64.00 MB reserved,      62.38 MB ( 97%) committed,  1 nodes.
      Class space:        1.00 GB reserved,      10.88 MB (  1%) committed,  1 nodes.
             Both:        1.06 GB reserved,      73.25 MB (  7%) committed. 

Chunk freelists:
   Non-Class:  1.31 MB
       Class:  4.96 MB
        Both:  6.28 MB

MaxMetaspaceSize: unlimited
CompressedClassSpaceSize: 1.00 GB
Initial GC threshold: 21.00 MB
Current GC threshold: 122.12 MB
CDS: on
MetaspaceReclaimPolicy: balanced
 - commit_granule_bytes: 65536.
 - commit_granule_words: 8192.
 - virtual_space_node_default_size: 8388608.
 - enlarge_chunks_in_place: 1.
 - new_chunks_are_fully_committed: 0.
 - uncommit_free_chunks: 1.
 - use_allocation_guard: 0.
 - handle_deallocations: 1.


Internal statistics:

num_allocs_failed_limit: 9.
num_arena_births: 1696.
num_arena_deaths: 930.
num_vsnodes_births: 2.
num_vsnodes_deaths: 0.
num_space_committed: 1173.
num_space_uncommitted: 1.
num_chunks_returned_to_freelist: 1242.
num_chunks_taken_from_freelist: 5119.
num_chunk_merges: 301.
num_chunk_splits: 3002.
num_chunks_enlarged: 2088.
num_inconsistent_stats: 0.

CodeCache: size=49152Kb used=25086Kb max_used=26138Kb free=24065Kb
 bounds [0x000001e998df0000, 0x000001e99a790000, 0x000001e99bdf0000]
 total_blobs=15124 nmethods=14461 adapters=590
 compilation: enabled
              stopped_count=0, restarted_count=0
 full_count=0

Compilation events (20 events):
Event: 25953.059 Thread 0x000001e9915f8090 nmethod 14507 0x000001e99a5aef10 code [0x000001e99a5af120, 0x000001e99a5af758]
Event: 28231.920 Thread 0x000001e9915f8090 14508       1       java.util.IdentityHashMap::keySet (25 bytes)
Event: 28231.964 Thread 0x000001e9915f8090 nmethod 14508 0x000001e99a5aeb10 code [0x000001e99a5aeca0, 0x000001e99a5aee78]
Event: 28231.966 Thread 0x000001e9915f8090 14509       1       java.util.IdentityHashMap$KeySet::<init> (10 bytes)
Event: 28231.966 Thread 0x000001e9915f8090 nmethod 14509 0x000001e99a5ae810 code [0x000001e99a5ae9a0, 0x000001e99a5aeab8]
Event: 28231.991 Thread 0x000001e9915f8090 14510   !   1       java.io.ObjectOutputStream::writeArray (589 bytes)
Event: 28232.067 Thread 0x000001e9915f8090 nmethod 14510 0x000001e99a5ace90 code [0x000001e99a5ad200, 0x000001e99a5ade98]
Event: 30994.218 Thread 0x000001e9915f8090 14511       1       java.io.ObjectInputStream$HandleTable::grow (85 bytes)
Event: 30994.285 Thread 0x000001e9915f8090 nmethod 14511 0x000001e99a5ac590 code [0x000001e99a5ac760, 0x000001e99a5acd48]
Event: 31003.887 Thread 0x000001e9915f8090 14512   !   1       sun.rmi.server.UnicastServerRef::oldDispatch (131 bytes)
Event: 31004.172 Thread 0x000001e9915f8090 nmethod 14512 0x000001e99a5ab590 code [0x000001e99a5ab800, 0x000001e99a5abee8]
Event: 31294.209 Thread 0x000001e9915f8090 14513       1       java.io.ObjectStreamClass$Caches$1::computeValue (6 bytes)
Event: 31294.211 Thread 0x000001e9915f8090 nmethod 14513 0x000001e99a5ab210 code [0x000001e99a5ab3a0, 0x000001e99a5ab4e8]
Event: 31294.211 Thread 0x000001e9915f8090 14515   !   1       java.io.ObjectStreamClass::<init> (309 bytes)
Event: 31294.274 Thread 0x000001e9915f8090 nmethod 14515 0x000001e99a5a9490 code [0x000001e99a5a97e0, 0x000001e99a5aab68]
Event: 34409.658 Thread 0x000001e9915f8090 14516       1       java.lang.StringBuilder::append (8 bytes)
Event: 34409.660 Thread 0x000001e9915f8090 nmethod 14516 0x000001e99a5a9190 code [0x000001e99a5a9320, 0x000001e99a5a9408]
Event: 34413.641 Thread 0x000001e9915f8090 14517       1       java.util.Vector$1::hasMoreElements (20 bytes)
Event: 34413.643 Thread 0x000001e9915f8090 nmethod 14517 0x000001e99a5a8e90 code [0x000001e99a5a9020, 0x000001e99a5a9118]
Event: 34413.739 Thread 0x000001e9915f8090 14518       1       java.io.ObjectStreamField::appendClassSignature (69 bytes)

GC Heap History (20 events):
Event: 28334.735 GC heap before
{Heap before GC invocations=266 (full 10):
 garbage-first heap   total 133120K, used 57088K [0x00000000d4200000, 0x0000000100000000)
  region size 1024K, 8 young (8192K), 7 survivors (7168K)
 Metaspace       used 74279K, committed 75008K, reserved 1114112K
  class space    used 10837K, committed 11136K, reserved 1048576K
}
Event: 28334.817 GC heap after
{Heap after GC invocations=267 (full 10):
 garbage-first heap   total 133120K, used 55527K [0x00000000d4200000, 0x0000000100000000)
  region size 1024K, 1 young (1024K), 1 survivors (1024K)
 Metaspace       used 74279K, committed 75008K, reserved 1114112K
  class space    used 10837K, committed 11136K, reserved 1048576K
}
Event: 28420.807 GC heap before
{Heap before GC invocations=267 (full 10):
 garbage-first heap   total 133120K, used 60647K [0x00000000d4200000, 0x0000000100000000)
  region size 1024K, 6 young (6144K), 1 survivors (1024K)
 Metaspace       used 74279K, committed 75008K, reserved 1114112K
  class space    used 10837K, committed 11136K, reserved 1048576K
}
Event: 28420.832 GC heap after
{Heap after GC invocations=268 (full 10):
 garbage-first heap   total 133120K, used 54890K [0x00000000d4200000, 0x0000000100000000)
  region size 1024K, 1 young (1024K), 1 survivors (1024K)
 Metaspace       used 74279K, committed 75008K, reserved 1114112K
  class space    used 10837K, committed 11136K, reserved 1048576K
}
Event: 29264.764 GC heap before
{Heap before GC invocations=268 (full 10):
 garbage-first heap   total 133120K, used 105066K [0x00000000d4200000, 0x0000000100000000)
  region size 1024K, 50 young (51200K), 1 survivors (1024K)
 Metaspace       used 74289K, committed 75008K, reserved 1114112K
  class space    used 10839K, committed 11136K, reserved 1048576K
}
Event: 29264.840 GC heap after
{Heap after GC invocations=269 (full 10):
 garbage-first heap   total 133120K, used 54761K [0x00000000d4200000, 0x0000000100000000)
  region size 1024K, 1 young (1024K), 1 survivors (1024K)
 Metaspace       used 74289K, committed 75008K, reserved 1114112K
  class space    used 10839K, committed 11136K, reserved 1048576K
}
Event: 29967.084 GC heap before
{Heap before GC invocations=270 (full 10):
 garbage-first heap   total 133120K, used 104937K [0x00000000d4200000, 0x0000000100000000)
  region size 1024K, 52 young (53248K), 1 survivors (1024K)
 Metaspace       used 74254K, committed 75008K, reserved 1114112K
  class space    used 10833K, committed 11136K, reserved 1048576K
}
Event: 29967.326 GC heap after
{Heap after GC invocations=271 (full 10):
 garbage-first heap   total 133120K, used 58080K [0x00000000d4200000, 0x0000000100000000)
  region size 1024K, 6 young (6144K), 6 survivors (6144K)
 Metaspace       used 74254K, committed 75008K, reserved 1114112K
  class space    used 10833K, committed 11136K, reserved 1048576K
}
Event: 29983.630 GC heap before
{Heap before GC invocations=271 (full 10):
 garbage-first heap   total 133120K, used 59104K [0x00000000d4200000, 0x0000000100000000)
  region size 1024K, 7 young (7168K), 6 survivors (6144K)
 Metaspace       used 74254K, committed 75008K, reserved 1114112K
  class space    used 10833K, committed 11136K, reserved 1048576K
}
Event: 29983.825 GC heap after
{Heap after GC invocations=272 (full 10):
 garbage-first heap   total 133120K, used 51925K [0x00000000d4200000, 0x0000000100000000)
  region size 1024K, 1 young (1024K), 1 survivors (1024K)
 Metaspace       used 74254K, committed 75008K, reserved 1114112K
  class space    used 10833K, committed 11136K, reserved 1048576K
}
Event: 30068.153 GC heap before
{Heap before GC invocations=272 (full 10):
 garbage-first heap   total 133120K, used 57045K [0x00000000d4200000, 0x0000000100000000)
  region size 1024K, 6 young (6144K), 1 survivors (1024K)
 Metaspace       used 74254K, committed 75008K, reserved 1114112K
  class space    used 10833K, committed 11136K, reserved 1048576K
}
Event: 30068.207 GC heap after
{Heap after GC invocations=273 (full 10):
 garbage-first heap   total 133120K, used 51280K [0x00000000d4200000, 0x0000000100000000)
  region size 1024K, 1 young (1024K), 1 survivors (1024K)
 Metaspace       used 74254K, committed 75008K, reserved 1114112K
  class space    used 10833K, committed 11136K, reserved 1048576K
}
Event: 31024.851 GC heap before
{Heap before GC invocations=273 (full 10):
 garbage-first heap   total 133120K, used 104528K [0x00000000d4200000, 0x0000000100000000)
  region size 1024K, 53 young (54272K), 1 survivors (1024K)
 Metaspace       used 74254K, committed 75008K, reserved 1114112K
  class space    used 10833K, committed 11136K, reserved 1048576K
}
Event: 31024.945 GC heap after
{Heap after GC invocations=274 (full 10):
 garbage-first heap   total 133120K, used 51226K [0x00000000d4200000, 0x0000000100000000)
  region size 1024K, 1 young (1024K), 1 survivors (1024K)
 Metaspace       used 74254K, committed 75008K, reserved 1114112K
  class space    used 10833K, committed 11136K, reserved 1048576K
}
Event: 31756.995 GC heap before
{Heap before GC invocations=275 (full 10):
 garbage-first heap   total 133120K, used 107546K [0x00000000d4200000, 0x0000000100000000)
  region size 1024K, 56 young (57344K), 1 survivors (1024K)
 Metaspace       used 74248K, committed 75008K, reserved 1114112K
  class space    used 10831K, committed 11136K, reserved 1048576K
}
Event: 31757.072 GC heap after
{Heap after GC invocations=276 (full 10):
 garbage-first heap   total 133120K, used 56607K [0x00000000d4200000, 0x0000000100000000)
  region size 1024K, 6 young (6144K), 6 survivors (6144K)
 Metaspace       used 74248K, committed 75008K, reserved 1114112K
  class space    used 10831K, committed 11136K, reserved 1048576K
}
Event: 31772.942 GC heap before
{Heap before GC invocations=276 (full 10):
 garbage-first heap   total 133120K, used 57631K [0x00000000d4200000, 0x0000000100000000)
  region size 1024K, 7 young (7168K), 6 survivors (6144K)
 Metaspace       used 74248K, committed 75008K, reserved 1114112K
  class space    used 10831K, committed 11136K, reserved 1048576K
}
Event: 31773.064 GC heap after
{Heap after GC invocations=277 (full 10):
 garbage-first heap   total 133120K, used 55986K [0x00000000d4200000, 0x0000000100000000)
  region size 1024K, 1 young (1024K), 1 survivors (1024K)
 Metaspace       used 74248K, committed 75008K, reserved 1114112K
  class space    used 10831K, committed 11136K, reserved 1048576K
}
Event: 32606.862 GC heap before
{Heap before GC invocations=277 (full 10):
 garbage-first heap   total 133120K, used 106162K [0x00000000d4200000, 0x0000000100000000)
  region size 1024K, 50 young (51200K), 1 survivors (1024K)
 Metaspace       used 74248K, committed 75008K, reserved 1114112K
  class space    used 10831K, committed 11136K, reserved 1048576K
}
Event: 32606.873 GC heap after
{Heap after GC invocations=278 (full 10):
 garbage-first heap   total 133120K, used 55771K [0x00000000d4200000, 0x0000000100000000)
  region size 1024K, 1 young (1024K), 1 survivors (1024K)
 Metaspace       used 74248K, committed 75008K, reserved 1114112K
  class space    used 10831K, committed 11136K, reserved 1048576K
}

Deoptimization events (12 events):
Event: 7.465 Thread 0x000001e9e59648a0 DEOPT PACKING pc=0x000001e99957f042 sp=0x0000002f851fd330
Event: 7.466 Thread 0x000001e9e59648a0 DEOPT UNPACKING pc=0x000001e998e42b24 sp=0x0000002f851fc8c8 mode 0
Event: 15.098 Thread 0x000001e9e59648a0 DEOPT PACKING pc=0x000001e9997cf174 sp=0x0000002f851fbef0
Event: 15.098 Thread 0x000001e9e59648a0 DEOPT UNPACKING pc=0x000001e998e42b24 sp=0x0000002f851fb378 mode 0
Event: 19.456 Thread 0x000001e9e59648a0 DEOPT PACKING pc=0x000001e9992e35a2 sp=0x0000002f851fc5b0
Event: 19.456 Thread 0x000001e9e59648a0 DEOPT UNPACKING pc=0x000001e998e42b24 sp=0x0000002f851fbab8 mode 3
Event: 19.458 Thread 0x000001e9e59648a0 DEOPT PACKING pc=0x000001e9992cf795 sp=0x0000002f851fc570
Event: 19.458 Thread 0x000001e9e59648a0 DEOPT UNPACKING pc=0x000001e998e42b24 sp=0x0000002f851fbab8 mode 3
Event: 19.549 Thread 0x000001e9e59648a0 DEOPT PACKING pc=0x000001e9992c4024 sp=0x0000002f851fd250
Event: 19.549 Thread 0x000001e9e59648a0 DEOPT UNPACKING pc=0x000001e998e42b24 sp=0x0000002f851fc7a8 mode 0
Event: 29.721 Thread 0x000001e9e7857400 DEOPT PACKING pc=0x000001e999bb4f94 sp=0x0000002f868fc470
Event: 29.721 Thread 0x000001e9e7857400 DEOPT UNPACKING pc=0x000001e998e42b24 sp=0x0000002f868fb920 mode 0

Classes unloaded (20 events):
Event: 29265.189 Thread 0x000001e9915cfd80 Unloading class 0x000001e9a1974400 'jdk/internal/reflect/GeneratedSerializationConstructorAccessor164'
Event: 29265.189 Thread 0x000001e9915cfd80 Unloading class 0x000001e9a1006400 'jdk/internal/reflect/GeneratedSerializationConstructorAccessor163'
Event: 29265.189 Thread 0x000001e9915cfd80 Unloading class 0x000001e9a1004000 'jdk/internal/reflect/GeneratedSerializationConstructorAccessor162'
Event: 29265.189 Thread 0x000001e9915cfd80 Unloading class 0x000001e9a1a98800 'jdk/internal/reflect/GeneratedSerializationConstructorAccessor161'
Event: 29265.190 Thread 0x000001e9915cfd80 Unloading class 0x000001e9a1aa8000 'jdk/internal/reflect/GeneratedSerializationConstructorAccessor160'
Event: 29265.190 Thread 0x000001e9915cfd80 Unloading class 0x000001e9a1ad4800 'jdk/internal/reflect/GeneratedSerializationConstructorAccessor159'
Event: 29265.190 Thread 0x000001e9915cfd80 Unloading class 0x000001e9a1ad4400 'jdk/internal/reflect/GeneratedSerializationConstructorAccessor158'
Event: 29265.190 Thread 0x000001e9915cfd80 Unloading class 0x000001e9a1aecc00 'java/lang/invoke/LambdaForm$MH+0x000001e9a1aecc00'
Event: 29265.191 Thread 0x000001e9915cfd80 Unloading class 0x000001e9a1aed000 'java/lang/invoke/LambdaForm$MH+0x000001e9a1aed000'
Event: 29265.191 Thread 0x000001e9915cfd80 Unloading class 0x000001e9a1aedc00 'java/lang/invoke/LambdaForm$MH+0x000001e9a1aedc00'
Event: 29265.191 Thread 0x000001e9915cfd80 Unloading class 0x000001e9a1ac1800 'jdk/internal/reflect/GeneratedSerializationConstructorAccessor154'
Event: 31025.855 Thread 0x000001e9915cfd80 Unloading class 0x000001e9a1004000 'jdk/internal/reflect/GeneratedSerializationConstructorAccessor174'
Event: 31025.856 Thread 0x000001e9915cfd80 Unloading class 0x000001e9a1974400 'jdk/internal/reflect/GeneratedSerializationConstructorAccessor172'
Event: 31025.856 Thread 0x000001e9915cfd80 Unloading class 0x000001e9a1b00000 'jdk/internal/reflect/GeneratedSerializationConstructorAccessor171'
Event: 31025.856 Thread 0x000001e9915cfd80 Unloading class 0x000001e9a1af1000 'jdk/internal/reflect/GeneratedSerializationConstructorAccessor170'
Event: 31025.856 Thread 0x000001e9915cfd80 Unloading class 0x000001e9a1aef400 'jdk/internal/reflect/GeneratedSerializationConstructorAccessor169'
Event: 32607.107 Thread 0x000001e9915cfd80 Unloading class 0x000001e9a1b00000 'jdk/internal/reflect/GeneratedSerializationConstructorAccessor177'
Event: 32607.108 Thread 0x000001e9915cfd80 Unloading class 0x000001e9a1974400 'jdk/internal/reflect/GeneratedSerializationConstructorAccessor176'
Event: 32607.108 Thread 0x000001e9915cfd80 Unloading class 0x000001e9a1004000 'jdk/internal/reflect/GeneratedSerializationConstructorAccessor175'
Event: 32607.108 Thread 0x000001e9915cfd80 Unloading class 0x000001e9a1006400 'jdk/internal/reflect/GeneratedSerializationConstructorAccessor173'

Classes redefined (0 events):
No events

Internal exceptions (20 events):
Event: 20247.860 Thread 0x000001e9e7857e20 Exception <a 'java/lang/ArrayIndexOutOfBoundsException'{0x00000000d92d1540}> (0x00000000d92d1540) 
thrown [s\open\src\hotspot\share\runtime\sharedRuntime.cpp, line 631]
Event: 20248.085 Thread 0x000001e9e7857e20 Exception <a 'sun/nio/fs/WindowsException'{0x00000000dc131f08}> (0x00000000dc131f08) 
thrown [s\open\src\hotspot\share\prims\jni.cpp, line 516]
Event: 20248.086 Thread 0x000001e9e7857e20 Exception <a 'sun/nio/fs/WindowsException'{0x00000000dc1325f8}> (0x00000000dc1325f8) 
thrown [s\open\src\hotspot\share\prims\jni.cpp, line 516]
Event: 20248.086 Thread 0x000001e9e7857e20 Exception <a 'sun/nio/fs/WindowsException'{0x00000000dc132cd8}> (0x00000000dc132cd8) 
thrown [s\open\src\hotspot\share\prims\jni.cpp, line 516]
Event: 20248.113 Thread 0x000001e9e7857e20 Exception <a 'java/io/FileNotFoundException'{0x00000000dc173840}> (0x00000000dc173840) 
thrown [s\open\src\hotspot\share\prims\jni.cpp, line 516]
Event: 20248.419 Thread 0x000001e9e7857e20 Exception <a 'java/io/FileNotFoundException'{0x00000000db6ec790}> (0x00000000db6ec790) 
thrown [s\open\src\hotspot\share\prims\jni.cpp, line 516]
Event: 20248.550 Thread 0x000001e9e7857e20 Exception <a 'sun/nio/fs/WindowsException'{0x00000000daff6a78}> (0x00000000daff6a78) 
thrown [s\open\src\hotspot\share\prims\jni.cpp, line 516]
Event: 20250.514 Thread 0x000001e9e7857e20 Exception <a 'sun/nio/fs/WindowsException'{0x00000000db0bfa58}> (0x00000000db0bfa58) 
thrown [s\open\src\hotspot\share\prims\jni.cpp, line 516]
Event: 20250.796 Thread 0x000001e9e7857e20 Exception <a 'sun/nio/fs/WindowsException'{0x00000000da5faaa0}> (0x00000000da5faaa0) 
thrown [s\open\src\hotspot\share\prims\jni.cpp, line 516]
Event: 20250.871 Thread 0x000001e9e7857e20 Exception <a 'java/lang/reflect/InvocationTargetException'{0x00000000da14d2c8}> (0x00000000da14d2c8) 
thrown [s\open\src\hotspot\share\runtime\reflection.cpp, line 1121]
Event: 20250.871 Thread 0x000001e9e7857e20 Exception <a 'java/lang/reflect/InvocationTargetException'{0x00000000da152330}> (0x00000000da152330) 
thrown [s\open\src\hotspot\share\runtime\reflection.cpp, line 1121]
Event: 21120.099 Thread 0x000001e9e785bae0 Exception <a 'java/lang/NoSuchMethodError'{0x00000000dc3d9388}: static [B.<clinit>()V> (0x00000000dc3d9388) 
thrown [s\open\src\hotspot\share\prims\jni.cpp, line 1112]
Event: 22020.072 Thread 0x000001e9e785bae0 Exception <a 'java/lang/NoSuchMethodError'{0x00000000dc1b1c40}: static [B.<clinit>()V> (0x00000000dc1b1c40) 
thrown [s\open\src\hotspot\share\prims\jni.cpp, line 1112]
Event: 22620.105 Thread 0x000001e9e785bae0 Exception <a 'java/lang/NoSuchMethodError'{0x00000000dbc6f088}: static [B.<clinit>()V> (0x00000000dbc6f088) 
thrown [s\open\src\hotspot\share\prims\jni.cpp, line 1112]
Event: 23820.333 Thread 0x000001e9e785bae0 Exception <a 'java/lang/NoSuchMethodError'{0x00000000dba3fa78}: static [B.<clinit>()V> (0x00000000dba3fa78) 
thrown [s\open\src\hotspot\share\prims\jni.cpp, line 1112]
Event: 24119.988 Thread 0x000001e9e785bae0 Exception <a 'java/lang/NoSuchMethodError'{0x00000000dc3e7170}: static [B.<clinit>()V> (0x00000000dc3e7170) 
thrown [s\open\src\hotspot\share\prims\jni.cpp, line 1112]
Event: 28221.225 Thread 0x000001e9e785bae0 Exception <a 'java/lang/NoSuchMethodError'{0x00000000d92534d8}: static [Ljava/lang/StackTraceElement;.<clinit>()V> (0x00000000d92534d8) 
thrown [s\open\src\hotspot\share\prims\jni.cpp, line 1112]
Event: 28222.407 Thread 0x000001e9e5967630 Exception <a 'java/lang/NoSuchMethodError'{0x00000000d92b4ee0}: static [Ljava/lang/Integer;.<clinit>()V> (0x00000000d92b4ee0) 
thrown [s\open\src\hotspot\share\prims\jni.cpp, line 1112]
Event: 28522.341 Thread 0x000001e9e5967630 Exception <a 'java/lang/NoSuchMethodError'{0x00000000dbc23ce0}: static [B.<clinit>()V> (0x00000000dbc23ce0) 
thrown [s\open\src\hotspot\share\prims\jni.cpp, line 1112]
Event: 31294.283 Thread 0x000001e9e5967630 Exception <a 'java/lang/NoSuchMethodError'{0x00000000db4d26f8}: static [B.<clinit>()V> (0x00000000db4d26f8) 
thrown [s\open\src\hotspot\share\prims\jni.cpp, line 1112]

VM Operations (20 events):
Event: 30068.152 Executing VM operation: G1CollectForAllocation
Event: 30068.207 Executing VM operation: G1CollectForAllocation done
Event: 31024.850 Executing VM operation: G1CollectForAllocation
Event: 31024.946 Executing VM operation: G1CollectForAllocation done
Event: 31025.838 Executing VM operation: G1Concurrent
Event: 31028.234 Executing VM operation: G1Concurrent done
Event: 31028.321 Executing VM operation: G1Concurrent
Event: 31029.204 Executing VM operation: G1Concurrent done
Event: 31304.690 Executing VM operation: Cleanup
Event: 31304.690 Executing VM operation: Cleanup done
Event: 31756.994 Executing VM operation: G1CollectForAllocation
Event: 31757.100 Executing VM operation: G1CollectForAllocation done
Event: 31772.942 Executing VM operation: G1CollectForAllocation
Event: 31773.064 Executing VM operation: G1CollectForAllocation done
Event: 32606.859 Executing VM operation: G1CollectForAllocation
Event: 32606.874 Executing VM operation: G1CollectForAllocation done
Event: 32607.102 Executing VM operation: G1Concurrent
Event: 32609.540 Executing VM operation: G1Concurrent done
Event: 32609.614 Executing VM operation: G1Concurrent
Event: 32610.098 Executing VM operation: G1Concurrent done

Events (20 events):
Event: 28220.073 Thread 0x000001e9e5966c10 Thread exited: 0x000001e9e5966c10
Event: 28220.101 Thread 0x000001e9e5966700 Thread exited: 0x000001e9e5966700
Event: 28220.102 Thread 0x000001e9e59652c0 Thread exited: 0x000001e9e59652c0
Event: 28222.129 Thread 0x000001e9e59652c0 Thread added: 0x000001e9e59652c0
Event: 28230.595 Thread 0x000001e9e59657d0 Thread added: 0x000001e9e59657d0
Event: 28231.912 Thread 0x000001e9e5966700 Thread added: 0x000001e9e5966700
Event: 28231.980 Thread 0x000001e9e5965ce0 Thread added: 0x000001e9e5965ce0
Event: 28311.984 Thread 0x000001e9e785bae0 Thread exited: 0x000001e9e785bae0
Event: 28321.917 Thread 0x000001e9e59657d0 Thread exited: 0x000001e9e59657d0
Event: 29855.330 Thread 0x000001e9e59657d0 Thread added: 0x000001e9e59657d0
Event: 29908.936 Thread 0x000001e9e59657d0 Thread exited: 0x000001e9e59657d0
Event: 31623.218 Thread 0x000001e9e5967120 Thread added: 0x000001e9e5967120
Event: 31707.722 Thread 0x000001e9e5967120 Thread exited: 0x000001e9e5967120
Event: 34409.661 Thread 0x000001e9e59657d0 Thread added: 0x000001e9e59657d0
Event: 34413.635 Thread 0x000001e9e5966c10 Thread added: 0x000001e9e5966c10
Event: 34413.637 Thread 0x000001e9e5967120 Thread added: 0x000001e9e5967120
Event: 34413.640 Thread 0x000001e9e59652c0 Thread exited: 0x000001e9e59652c0
Event: 34413.640 Thread 0x000001e9e5965ce0 Thread exited: 0x000001e9e5965ce0
Event: 34413.642 Thread 0x000001e9e5967120 Thread exited: 0x000001e9e5967120
Event: 34413.642 Thread 0x000001e9e5966c10 Thread exited: 0x000001e9e5966c10


Dynamic libraries:
0x00007ff73a980000 - 0x00007ff73a990000 	C:\Program Files\Java\jdk-17.0.11\bin\javaw.exe
0x00007ffce17b0000 - 0x00007ffce19a8000 	C:\WINDOWS\SYSTEM32\ntdll.dll
0x00007ffce06f0000 - 0x00007ffce07ad000 	C:\WINDOWS\System32\KERNEL32.DLL
0x00007ffcdf4f0000 - 0x00007ffcdf7e6000 	C:\WINDOWS\System32\KERNELBASE.dll
0x00007ffcdf000000 - 0x00007ffcdf100000 	C:\WINDOWS\System32\ucrtbase.dll
0x00007ffcdbcb0000 - 0x00007ffcdbccb000 	C:\Program Files\Java\jdk-17.0.11\bin\VCRUNTIME140.dll
0x00007ffcc3ab0000 - 0x00007ffcc3ac9000 	C:\Program Files\Java\jdk-17.0.11\bin\jli.dll
0x00007ffce1030000 - 0x00007ffce10e0000 	C:\WINDOWS\System32\ADVAPI32.dll
0x00007ffce16b0000 - 0x00007ffce174e000 	C:\WINDOWS\System32\msvcrt.dll
0x00007ffce07c0000 - 0x00007ffce0860000 	C:\WINDOWS\System32\sechost.dll
0x00007ffce05c0000 - 0x00007ffce06e3000 	C:\WINDOWS\System32\RPCRT4.dll
0x00007ffcdee70000 - 0x00007ffcdee97000 	C:\WINDOWS\System32\bcrypt.dll
0x00007ffce0420000 - 0x00007ffce05bf000 	C:\WINDOWS\System32\USER32.dll
0x00007ffcdf270000 - 0x00007ffcdf292000 	C:\WINDOWS\System32\win32u.dll
0x00007ffce1680000 - 0x00007ffce16ab000 	C:\WINDOWS\System32\GDI32.dll
0x00007ffcdf150000 - 0x00007ffcdf267000 	C:\WINDOWS\System32\gdi32full.dll
0x00007ffcdf330000 - 0x00007ffcdf3cd000 	C:\WINDOWS\System32\msvcp_win.dll
0x00007ffccfca0000 - 0x00007ffccfcaa000 	C:\WINDOWS\SYSTEM32\VERSION.dll
0x00007ffccb9d0000 - 0x00007ffccbc6a000 	C:\WINDOWS\WinSxS\amd64_microsoft.windows.common-controls_6595b64144ccf1df_6.0.19041.4355_none_60b8b9eb71f62e16\COMCTL32.dll
0x00007ffce10e0000 - 0x00007ffce110f000 	C:\WINDOWS\System32\IMM32.DLL
0x00007ffccb640000 - 0x00007ffccb64c000 	C:\Program Files\Java\jdk-17.0.11\bin\vcruntime140_1.dll
0x00007ffcbc270000 - 0x00007ffcbc2fe000 	C:\Program Files\Java\jdk-17.0.11\bin\msvcp140.dll
0x00007ffc85990000 - 0x00007ffc86570000 	C:\Program Files\Java\jdk-17.0.11\bin\server\jvm.dll
0x00007ffce1470000 - 0x00007ffce1478000 	C:\WINDOWS\System32\PSAPI.DLL
0x00007ffccd200000 - 0x00007ffccd209000 	C:\WINDOWS\SYSTEM32\WSOCK32.dll
0x00007ffce0e90000 - 0x00007ffce0efb000 	C:\WINDOWS\System32\WS2_32.dll
0x00007ffcc76f0000 - 0x00007ffcc7717000 	C:\WINDOWS\SYSTEM32\WINMM.dll
0x00007ffcdccb0000 - 0x00007ffcdccc2000 	C:\WINDOWS\SYSTEM32\kernel.appcore.dll
0x00007ffcca760000 - 0x00007ffcca76a000 	C:\Program Files\Java\jdk-17.0.11\bin\jimage.dll
0x00007ffccd900000 - 0x00007ffccdae4000 	C:\WINDOWS\SYSTEM32\DBGHELP.DLL
0x00007ffccd3a0000 - 0x00007ffccd3d4000 	C:\WINDOWS\SYSTEM32\dbgcore.DLL
0x00007ffcdf2a0000 - 0x00007ffcdf322000 	C:\WINDOWS\System32\bcryptPrimitives.dll
0x00007ffcbc240000 - 0x00007ffcbc265000 	C:\Program Files\Java\jdk-17.0.11\bin\java.dll
0x00007ffcbc160000 - 0x00007ffcbc237000 	C:\Program Files\Java\jdk-17.0.11\bin\jsvml.dll
0x00007ffcdf8d0000 - 0x00007ffce003c000 	C:\WINDOWS\System32\SHELL32.dll
0x00007ffcdceb0000 - 0x00007ffcdd64d000 	C:\WINDOWS\SYSTEM32\windows.storage.dll
0x00007ffce1110000 - 0x00007ffce1463000 	C:\WINDOWS\System32\combase.dll
0x00007ffcde7b0000 - 0x00007ffcde7de000 	C:\WINDOWS\SYSTEM32\Wldp.dll
0x00007ffce0860000 - 0x00007ffce092d000 	C:\WINDOWS\System32\OLEAUT32.dll
0x00007ffce0f80000 - 0x00007ffce102d000 	C:\WINDOWS\System32\SHCORE.dll
0x00007ffce0160000 - 0x00007ffce01b5000 	C:\WINDOWS\System32\shlwapi.dll
0x00007ffcdeda0000 - 0x00007ffcdedc4000 	C:\WINDOWS\SYSTEM32\profapi.dll
0x00007ffcc09f0000 - 0x00007ffcc0a09000 	C:\Program Files\Java\jdk-17.0.11\bin\net.dll
0x00007ffcd8060000 - 0x00007ffcd816a000 	C:\WINDOWS\SYSTEM32\WINHTTP.dll
0x00007ffcde590000 - 0x00007ffcde5fa000 	C:\WINDOWS\system32\mswsock.dll
0x00007ffcbc140000 - 0x00007ffcbc156000 	C:\Program Files\Java\jdk-17.0.11\bin\nio.dll
0x00007ffcbc120000 - 0x00007ffcbc138000 	C:\Program Files\Java\jdk-17.0.11\bin\zip.dll
0x00007ffcca530000 - 0x00007ffcca53a000 	C:\Program Files\Java\jdk-17.0.11\bin\management.dll
0x00007ffcc9050000 - 0x00007ffcc905b000 	C:\Program Files\Java\jdk-17.0.11\bin\management_ext.dll
0x00007ffccaf80000 - 0x00007ffccaf97000 	C:\WINDOWS\system32\napinsp.dll
0x00007ffccaf60000 - 0x00007ffccaf7b000 	C:\WINDOWS\system32\pnrpnsp.dll
0x00007ffcdb6f0000 - 0x00007ffcdb70d000 	C:\WINDOWS\system32\NLAapi.dll
0x00007ffcde240000 - 0x00007ffcde27b000 	C:\WINDOWS\SYSTEM32\IPHLPAPI.DLL
0x00007ffcde280000 - 0x00007ffcde34a000 	C:\WINDOWS\SYSTEM32\DNSAPI.dll
0x00007ffce07b0000 - 0x00007ffce07b8000 	C:\WINDOWS\System32\NSI.dll
0x00007ffccae90000 - 0x00007ffccaea2000 	C:\WINDOWS\System32\winrnr.dll
0x00007ffccae70000 - 0x00007ffccae85000 	C:\WINDOWS\system32\wshbth.dll
0x00007ffcd4520000 - 0x00007ffcd452a000 	C:\Windows\System32\rasadhlp.dll
0x00007ffcd5aa0000 - 0x00007ffcd5b20000 	C:\WINDOWS\System32\fwpuclnt.dll
0x00007ffcdeb60000 - 0x00007ffcdeb78000 	C:\WINDOWS\SYSTEM32\CRYPTSP.dll
0x00007ffcdde60000 - 0x00007ffcdde94000 	C:\WINDOWS\system32\rsaenh.dll
0x00007ffcded50000 - 0x00007ffcded7e000 	C:\WINDOWS\SYSTEM32\USERENV.dll
0x00007ffcde720000 - 0x00007ffcde72c000 	C:\WINDOWS\SYSTEM32\CRYPTBASE.dll
0x00007ffcd85e0000 - 0x00007ffcd85f7000 	C:\WINDOWS\SYSTEM32\dhcpcsvc6.DLL
0x00007ffcd8ea0000 - 0x00007ffcd8ebd000 	C:\WINDOWS\SYSTEM32\dhcpcsvc.DLL
0x00007ffcbc110000 - 0x00007ffcbc11e000 	C:\Program Files\Java\jdk-17.0.11\bin\sunmscapi.dll
0x00007ffcdeea0000 - 0x00007ffcdeffe000 	C:\WINDOWS\System32\CRYPT32.dll
0x00007ffcde820000 - 0x00007ffcde849000 	C:\WINDOWS\SYSTEM32\ncrypt.dll
0x00007ffcde7e0000 - 0x00007ffcde81b000 	C:\WINDOWS\SYSTEM32\NTASN1.dll
0x00007ffcdc4b0000 - 0x00007ffcdc4c0000 	C:\Program Files\Java\jdk-17.0.11\bin\verify.dll
0x00007ffcdb410000 - 0x00007ffcdb417000 	C:\WINDOWS\system32\wshunix.dll

dbghelp: loaded successfully - version: 4.0.5 - missing functions: none
symbol engine: initialized successfully - sym options: 0x614 - pdb path: .;C:\Program Files\Java\jdk-17.0.11\bin;C:\WINDOWS\SYSTEM32;C:\WINDOWS\WinSxS\amd64_microsoft.windows.common-controls_6595b64144ccf1df_6.0.19041.4355_none_60b8b9eb71f62e16;C:\Program Files\Java\jdk-17.0.11\bin\server

VM Arguments:
jvm_args: -Dcom.sun.management.jmxremote -Dcom.sun.management.jmxremote.port=50160 -Dcom.sun.management.jmxremote.authenticate=false -Dcom.sun.management.jmxremote.ssl=false -Djava.rmi.server.hostname=localhost -Dspring.jmx.enabled=true -Dmanagement.endpoints.jmx.exposure.include=* -Dspring.application.admin.enabled=true -XX:TieredStopAtLevel=1 -Dspring.boot.project.name=loja_virtual -Dfile.encoding=UTF-8 -Dstdout.encoding=UTF-8 -Dstderr.encoding=UTF-8 -XX:+ShowCodeDetailsInExceptionMessages 
java_command: jdev.mentoria.lojavirtual.LojaVirtualApplication --spring.output.ansi.enabled=always
java_class_path (initial): C:\Users\WILSON\Documents\workspace-spring-tool-suite-4-4.23.1.RELEASE\loja_virtual\target\classes;C:\Users\WILSON\.m2\repository\org\springframework\boot\spring-boot-starter-data-jpa\3.3.1\spring-boot-starter-data-jpa-3.3.1.jar;C:\Users\WILSON\.m2\repository\org\springframework\boot\spring-boot-starter-aop\3.3.1\spring-boot-starter-aop-3.3.1.jar;C:\Users\WILSON\.m2\repository\org\aspectj\aspectjweaver\1.9.22\aspectjweaver-1.9.22.jar;C:\Users\WILSON\.m2\repository\org\hibernate\orm\hibernate-core\6.5.2.Final\hibernate-core-6.5.2.Final.jar;C:\Users\WILSON\.m2\repository\jakarta\persistence\jakarta.persistence-api\3.1.0\jakarta.persistence-api-3.1.0.jar;C:\Users\WILSON\.m2\repository\jakarta\transaction\jakarta.transaction-api\2.0.1\jakarta.transaction-api-2.0.1.jar;C:\Users\WILSON\.m2\repository\org\jboss\logging\jboss-logging\3.5.3.Final\jboss-logging-3.5.3.Final.jar;C:\Users\WILSON\.m2\repository\org\hibernate\common\hibernate-commons-annotations\6.0.6.Final\hibernate-commons-annotations-6.0.6.Final.jar;C:\Users\WILSON\.m2\repository\io\smallrye\jandex\3.1.2\jandex-3.1.2.jar;C:\Users\WILSON\.m2\repository\com\fasterxml\classmate\1.7.0\classmate-1.7.0.jar;C:\Users\WILSON\.m2\repository\net\bytebuddy\byte-buddy\1.14.17\byte-buddy-1.14.17.jar;C:\Users\WILSON\.m2\repository\org\glassfish\jaxb\jaxb-runtime\4.0.5\jaxb-runtime-4.0.5.jar;C:\Users\WILSON\.m2\repository\org\glassfish\jaxb\jaxb-core\4.0.5\jaxb-core-4.0.5.jar;C:\Users\WILSON\.m2\repository\org\eclipse\angus\angus-activation\2.0.2\angus-activation-2.0.2.jar;C:\Users\WILSON\.m2\repository\org\glassfish\jaxb\txw2\4.0.5\txw2-4.0.5.jar;C:\Users\WILSON\.m2\repository\com\sun\istack\istack-commons-runtime\4.1.2\istack-commons-runtime-4.1.2.jar;C:\Users\WILSON\.m2\repository\jakarta\inject\jakarta.inject-api\2.0.1\jakarta.inject-api-2.0.1.jar;C:\Users\WILSON\.m2\repository\org\antlr\antlr4-runtime\4.13.0\antlr4-runtime-4.13.0.jar;C:\Users\WILSON\.m2\repository\org\springframework\data\spri
Launcher Type: SUN_STANDARD

[Global flags]
     intx CICompilerCount                          = 3                                         {product} {ergonomic}
     uint ConcGCThreads                            = 1                                         {product} {ergonomic}
     uint G1ConcRefinementThreads                  = 4                                         {product} {ergonomic}
   size_t G1HeapRegionSize                         = 1048576                                   {product} {ergonomic}
    uintx GCDrainStackTargetSize                   = 64                                        {product} {ergonomic}
   size_t InitialHeapSize                          = 46137344                                  {product} {ergonomic}
     bool ManagementServer                         = true                                      {product} {command line}
   size_t MarkStackSize                            = 4194304                                   {product} {ergonomic}
   size_t MaxHeapSize                              = 736100352                                 {product} {ergonomic}
   size_t MaxNewSize                               = 441450496                                 {product} {ergonomic}
   size_t MinHeapDeltaBytes                        = 1048576                                   {product} {ergonomic}
   size_t MinHeapSize                              = 8388608                                   {product} {ergonomic}
    uintx NonProfiledCodeHeapSize                  = 0                                      {pd product} {ergonomic}
     bool ProfileInterpreter                       = false                                  {pd product} {command line}
    uintx ProfiledCodeHeapSize                     = 0                                      {pd product} {ergonomic}
     bool ShowCodeDetailsInExceptionMessages       = true                                   {manageable} {command line}
   size_t SoftMaxHeapSize                          = 736100352                              {manageable} {ergonomic}
     intx TieredStopAtLevel                        = 1                                         {product} {command line}
     bool UseCompressedClassPointers               = true                           {product lp64_product} {ergonomic}
     bool UseCompressedOops                        = true                           {product lp64_product} {ergonomic}
     bool UseG1GC                                  = true                                      {product} {ergonomic}
     bool UseLargePagesIndividualAllocation        = false                                  {pd product} {ergonomic}

Logging:
Log output configuration:
 #0: stdout all=warning uptime,level,tags
 #1: stderr all=off uptime,level,tags

Environment Variables:
JAVA_HOME=C:\Program Files\Java\jdk-17.0.11
CLASSPATH=.;C:\Program Files\Java\jdk-17.0.11\lib
PATH=C:/Program Files/Java/sts-4.23.1.RELEASE//plugins/org.eclipse.justj.openjdk.hotspot.jre.full.win32.x86_64_21.0.3.v20240426-1530/jre/bin/server;C:/Program Files/Java/sts-4.23.1.RELEASE//plugins/org.eclipse.justj.openjdk.hotspot.jre.full.win32.x86_64_21.0.3.v20240426-1530/jre/bin;C:\Program Files\Java\jdk-17.0.11;C:\Program Files\Java\jdk-17.0.11\bin;C:\WINDOWS\system32;C:\WINDOWS;C:\WINDOWS\System32\Wbem;C:\WINDOWS\System32\WindowsPowerShell\v1.0\;C:\WINDOWS\System32\OpenSSH\;C:\Program Files\Git\cmd;C:\ProgramData\ComposerSetup\bin;C:\xampp\php\;C:\Program Files\Docker\Docker\resources\bin;C:\cygwin64\bin;C:\Program Files\PostgreSQL\9.5\bin;C:\Program Files\nodejs\;C:\Program Files\MySQL\MySQL Shell 8.0\bin\;C:\Users\WILSON\AppData\Local\Microsoft\WindowsApps;C:\Users\WILSON\AppData\Local\Programs\Microsoft VS Code\bin;C:\Program Files\MySQL\MySQL Server 8.0\bin;C:\Program Files\Java\jdk-17.0.11\bin;C:\Program Files\Java\apache-maven-3.9.8\bin;C:\Program Files\OpenSSL-Win64\bin;C:\Users\WILSON\AppData\Roaming\npm;C:\Program Files\Java\sts-4.23.1.RELEASE;
USERNAME=WILSON
OS=Windows_NT
PROCESSOR_IDENTIFIER=Intel64 Family 6 Model 37 Stepping 5, GenuineIntel



---------------  S Y S T E M  ---------------

OS:
 Windows 10 , 64 bit Build 19041 (10.0.19041.3636)
OS uptime: 0 days 9:41 hours
Hyper-V role detected

CPU: total 4 (initial active 4) (2 cores per cpu, 2 threads per core) family 6 model 37 stepping 5 microcode 0x7, cx8, cmov, fxsr, ht, mmx, sse, sse2, sse3, ssse3, sse4.1, sse4.2, popcnt, tsc, tscinvbit, clflush, hv

Memory: 4k page, system-wide physical 2806M (207M free)
TotalPageFile size 9281M (AvailPageFile size 2898M)
current process WorkingSet (physical memory assigned to process): 249M, peak: 310M
current process commit charge ("private bytes"): 343M, peak: 567M

vm_info: Java HotSpot(TM) 64-Bit Server VM (17.0.11+7-LTS-207) for windows-amd64 JRE (17.0.11+7-LTS-207), built on Mar 11 2024 19:01:50 by "mach5one" with MS VC++ 17.6 (VS2022)

END.
